
STM32PROJECT.elf:     file format elf32-littlearm

Sections:
Idx Name          Size      VMA       LMA       File off  Algn
  0 .isr_vector   0000010c  08000000  08000000  00001000  2**0
                  CONTENTS, ALLOC, LOAD, READONLY, DATA
  1 .text         00008a24  0800010c  0800010c  0000110c  2**2
                  CONTENTS, ALLOC, LOAD, READONLY, CODE
  2 .rodata       0000082c  08008b30  08008b30  00009b30  2**2
                  CONTENTS, ALLOC, LOAD, READONLY, DATA
  3 .ARM.extab    00000000  0800935c  0800935c  0000b074  2**0
                  CONTENTS, READONLY
  4 .ARM          00000008  0800935c  0800935c  0000a35c  2**2
                  CONTENTS, ALLOC, LOAD, READONLY, DATA
  5 .preinit_array 00000000  08009364  08009364  0000b074  2**0
                  CONTENTS, ALLOC, LOAD, DATA
  6 .init_array   00000004  08009364  08009364  0000a364  2**2
                  CONTENTS, ALLOC, LOAD, READONLY, DATA
  7 .fini_array   00000004  08009368  08009368  0000a368  2**2
                  CONTENTS, ALLOC, LOAD, READONLY, DATA
  8 .data         00000074  20000000  0800936c  0000b000  2**2
                  CONTENTS, ALLOC, LOAD, DATA
  9 .bss          00003eb0  20000074  080093e0  0000b074  2**2
                  ALLOC
 10 ._user_heap_stack 00000604  20003f24  080093e0  0000bf24  2**0
                  ALLOC
 11 .ARM.attributes 00000029  00000000  00000000  0000b074  2**0
                  CONTENTS, READONLY
 12 .debug_info   0000ea96  00000000  00000000  0000b09d  2**0
                  CONTENTS, READONLY, DEBUGGING, OCTETS
 13 .debug_abbrev 00002ab0  00000000  00000000  00019b33  2**0
                  CONTENTS, READONLY, DEBUGGING, OCTETS
 14 .debug_aranges 00000fd0  00000000  00000000  0001c5e8  2**3
                  CONTENTS, READONLY, DEBUGGING, OCTETS
 15 .debug_rnglists 00000c85  00000000  00000000  0001d5b8  2**0
                  CONTENTS, READONLY, DEBUGGING, OCTETS
 16 .debug_macro  00019577  00000000  00000000  0001e23d  2**0
                  CONTENTS, READONLY, DEBUGGING, OCTETS
 17 .debug_line   00013ea6  00000000  00000000  000377b4  2**0
                  CONTENTS, READONLY, DEBUGGING, OCTETS
 18 .debug_str    0008c2a0  00000000  00000000  0004b65a  2**0
                  CONTENTS, READONLY, DEBUGGING, OCTETS
 19 .comment      00000043  00000000  00000000  000d78fa  2**0
                  CONTENTS, READONLY
 20 .debug_frame  00004c1c  00000000  00000000  000d7940  2**2
                  CONTENTS, READONLY, DEBUGGING, OCTETS
 21 .debug_line_str 0000004b  00000000  00000000  000dc55c  2**0
                  CONTENTS, READONLY, DEBUGGING, OCTETS

Disassembly of section .text:

0800010c <__do_global_dtors_aux>:
 800010c:	b510      	push	{r4, lr}
 800010e:	4c05      	ldr	r4, [pc, #20]	@ (8000124 <__do_global_dtors_aux+0x18>)
 8000110:	7823      	ldrb	r3, [r4, #0]
 8000112:	b933      	cbnz	r3, 8000122 <__do_global_dtors_aux+0x16>
 8000114:	4b04      	ldr	r3, [pc, #16]	@ (8000128 <__do_global_dtors_aux+0x1c>)
 8000116:	b113      	cbz	r3, 800011e <__do_global_dtors_aux+0x12>
 8000118:	4804      	ldr	r0, [pc, #16]	@ (800012c <__do_global_dtors_aux+0x20>)
 800011a:	f3af 8000 	nop.w
 800011e:	2301      	movs	r3, #1
 8000120:	7023      	strb	r3, [r4, #0]
 8000122:	bd10      	pop	{r4, pc}
 8000124:	20000074 	.word	0x20000074
 8000128:	00000000 	.word	0x00000000
 800012c:	08008b18 	.word	0x08008b18

08000130 <frame_dummy>:
 8000130:	b508      	push	{r3, lr}
 8000132:	4b03      	ldr	r3, [pc, #12]	@ (8000140 <frame_dummy+0x10>)
 8000134:	b11b      	cbz	r3, 800013e <frame_dummy+0xe>
 8000136:	4903      	ldr	r1, [pc, #12]	@ (8000144 <frame_dummy+0x14>)
 8000138:	4803      	ldr	r0, [pc, #12]	@ (8000148 <frame_dummy+0x18>)
 800013a:	f3af 8000 	nop.w
 800013e:	bd08      	pop	{r3, pc}
 8000140:	00000000 	.word	0x00000000
 8000144:	20000078 	.word	0x20000078
 8000148:	08008b18 	.word	0x08008b18

0800014c <strcmp>:
 800014c:	f810 2b01 	ldrb.w	r2, [r0], #1
 8000150:	f811 3b01 	ldrb.w	r3, [r1], #1
 8000154:	2a01      	cmp	r2, #1
 8000156:	bf28      	it	cs
 8000158:	429a      	cmpcs	r2, r3
 800015a:	d0f7      	beq.n	800014c <strcmp>
 800015c:	1ad0      	subs	r0, r2, r3
 800015e:	4770      	bx	lr

08000160 <strlen>:
 8000160:	4603      	mov	r3, r0
 8000162:	f813 2b01 	ldrb.w	r2, [r3], #1
 8000166:	2a00      	cmp	r2, #0
 8000168:	d1fb      	bne.n	8000162 <strlen+0x2>
 800016a:	1a18      	subs	r0, r3, r0
 800016c:	3801      	subs	r0, #1
 800016e:	4770      	bx	lr

08000170 <__aeabi_frsub>:
 8000170:	f080 4000 	eor.w	r0, r0, #2147483648	@ 0x80000000
 8000174:	e002      	b.n	800017c <__addsf3>
 8000176:	bf00      	nop

08000178 <__aeabi_fsub>:
 8000178:	f081 4100 	eor.w	r1, r1, #2147483648	@ 0x80000000

0800017c <__addsf3>:
 800017c:	0042      	lsls	r2, r0, #1
 800017e:	bf1f      	itttt	ne
 8000180:	ea5f 0341 	movsne.w	r3, r1, lsl #1
 8000184:	ea92 0f03 	teqne	r2, r3
 8000188:	ea7f 6c22 	mvnsne.w	ip, r2, asr #24
 800018c:	ea7f 6c23 	mvnsne.w	ip, r3, asr #24
 8000190:	d06a      	beq.n	8000268 <__addsf3+0xec>
 8000192:	ea4f 6212 	mov.w	r2, r2, lsr #24
 8000196:	ebd2 6313 	rsbs	r3, r2, r3, lsr #24
 800019a:	bfc1      	itttt	gt
 800019c:	18d2      	addgt	r2, r2, r3
 800019e:	4041      	eorgt	r1, r0
 80001a0:	4048      	eorgt	r0, r1
 80001a2:	4041      	eorgt	r1, r0
 80001a4:	bfb8      	it	lt
 80001a6:	425b      	neglt	r3, r3
 80001a8:	2b19      	cmp	r3, #25
 80001aa:	bf88      	it	hi
 80001ac:	4770      	bxhi	lr
 80001ae:	f010 4f00 	tst.w	r0, #2147483648	@ 0x80000000
 80001b2:	f440 0000 	orr.w	r0, r0, #8388608	@ 0x800000
 80001b6:	f020 407f 	bic.w	r0, r0, #4278190080	@ 0xff000000
 80001ba:	bf18      	it	ne
 80001bc:	4240      	negne	r0, r0
 80001be:	f011 4f00 	tst.w	r1, #2147483648	@ 0x80000000
 80001c2:	f441 0100 	orr.w	r1, r1, #8388608	@ 0x800000
 80001c6:	f021 417f 	bic.w	r1, r1, #4278190080	@ 0xff000000
 80001ca:	bf18      	it	ne
 80001cc:	4249      	negne	r1, r1
 80001ce:	ea92 0f03 	teq	r2, r3
 80001d2:	d03f      	beq.n	8000254 <__addsf3+0xd8>
 80001d4:	f1a2 0201 	sub.w	r2, r2, #1
 80001d8:	fa41 fc03 	asr.w	ip, r1, r3
 80001dc:	eb10 000c 	adds.w	r0, r0, ip
 80001e0:	f1c3 0320 	rsb	r3, r3, #32
 80001e4:	fa01 f103 	lsl.w	r1, r1, r3
 80001e8:	f000 4300 	and.w	r3, r0, #2147483648	@ 0x80000000
 80001ec:	d502      	bpl.n	80001f4 <__addsf3+0x78>
 80001ee:	4249      	negs	r1, r1
 80001f0:	eb60 0040 	sbc.w	r0, r0, r0, lsl #1
 80001f4:	f5b0 0f00 	cmp.w	r0, #8388608	@ 0x800000
 80001f8:	d313      	bcc.n	8000222 <__addsf3+0xa6>
 80001fa:	f1b0 7f80 	cmp.w	r0, #16777216	@ 0x1000000
 80001fe:	d306      	bcc.n	800020e <__addsf3+0x92>
 8000200:	0840      	lsrs	r0, r0, #1
 8000202:	ea4f 0131 	mov.w	r1, r1, rrx
 8000206:	f102 0201 	add.w	r2, r2, #1
 800020a:	2afe      	cmp	r2, #254	@ 0xfe
 800020c:	d251      	bcs.n	80002b2 <__addsf3+0x136>
 800020e:	f1b1 4f00 	cmp.w	r1, #2147483648	@ 0x80000000
 8000212:	eb40 50c2 	adc.w	r0, r0, r2, lsl #23
 8000216:	bf08      	it	eq
 8000218:	f020 0001 	biceq.w	r0, r0, #1
 800021c:	ea40 0003 	orr.w	r0, r0, r3
 8000220:	4770      	bx	lr
 8000222:	0049      	lsls	r1, r1, #1
 8000224:	eb40 0000 	adc.w	r0, r0, r0
 8000228:	3a01      	subs	r2, #1
 800022a:	bf28      	it	cs
 800022c:	f5b0 0f00 	cmpcs.w	r0, #8388608	@ 0x800000
 8000230:	d2ed      	bcs.n	800020e <__addsf3+0x92>
 8000232:	fab0 fc80 	clz	ip, r0
 8000236:	f1ac 0c08 	sub.w	ip, ip, #8
 800023a:	ebb2 020c 	subs.w	r2, r2, ip
 800023e:	fa00 f00c 	lsl.w	r0, r0, ip
 8000242:	bfaa      	itet	ge
 8000244:	eb00 50c2 	addge.w	r0, r0, r2, lsl #23
 8000248:	4252      	neglt	r2, r2
 800024a:	4318      	orrge	r0, r3
 800024c:	bfbc      	itt	lt
 800024e:	40d0      	lsrlt	r0, r2
 8000250:	4318      	orrlt	r0, r3
 8000252:	4770      	bx	lr
 8000254:	f092 0f00 	teq	r2, #0
 8000258:	f481 0100 	eor.w	r1, r1, #8388608	@ 0x800000
 800025c:	bf06      	itte	eq
 800025e:	f480 0000 	eoreq.w	r0, r0, #8388608	@ 0x800000
 8000262:	3201      	addeq	r2, #1
 8000264:	3b01      	subne	r3, #1
 8000266:	e7b5      	b.n	80001d4 <__addsf3+0x58>
 8000268:	ea4f 0341 	mov.w	r3, r1, lsl #1
 800026c:	ea7f 6c22 	mvns.w	ip, r2, asr #24
 8000270:	bf18      	it	ne
 8000272:	ea7f 6c23 	mvnsne.w	ip, r3, asr #24
 8000276:	d021      	beq.n	80002bc <__addsf3+0x140>
 8000278:	ea92 0f03 	teq	r2, r3
 800027c:	d004      	beq.n	8000288 <__addsf3+0x10c>
 800027e:	f092 0f00 	teq	r2, #0
 8000282:	bf08      	it	eq
 8000284:	4608      	moveq	r0, r1
 8000286:	4770      	bx	lr
 8000288:	ea90 0f01 	teq	r0, r1
 800028c:	bf1c      	itt	ne
 800028e:	2000      	movne	r0, #0
 8000290:	4770      	bxne	lr
 8000292:	f012 4f7f 	tst.w	r2, #4278190080	@ 0xff000000
 8000296:	d104      	bne.n	80002a2 <__addsf3+0x126>
 8000298:	0040      	lsls	r0, r0, #1
 800029a:	bf28      	it	cs
 800029c:	f040 4000 	orrcs.w	r0, r0, #2147483648	@ 0x80000000
 80002a0:	4770      	bx	lr
 80002a2:	f112 7200 	adds.w	r2, r2, #33554432	@ 0x2000000
 80002a6:	bf3c      	itt	cc
 80002a8:	f500 0000 	addcc.w	r0, r0, #8388608	@ 0x800000
 80002ac:	4770      	bxcc	lr
 80002ae:	f000 4300 	and.w	r3, r0, #2147483648	@ 0x80000000
 80002b2:	f043 40fe 	orr.w	r0, r3, #2130706432	@ 0x7f000000
 80002b6:	f440 0000 	orr.w	r0, r0, #8388608	@ 0x800000
 80002ba:	4770      	bx	lr
 80002bc:	ea7f 6222 	mvns.w	r2, r2, asr #24
 80002c0:	bf16      	itet	ne
 80002c2:	4608      	movne	r0, r1
 80002c4:	ea7f 6323 	mvnseq.w	r3, r3, asr #24
 80002c8:	4601      	movne	r1, r0
 80002ca:	0242      	lsls	r2, r0, #9
 80002cc:	bf06      	itte	eq
 80002ce:	ea5f 2341 	movseq.w	r3, r1, lsl #9
 80002d2:	ea90 0f01 	teqeq	r0, r1
 80002d6:	f440 0080 	orrne.w	r0, r0, #4194304	@ 0x400000
 80002da:	4770      	bx	lr

080002dc <__aeabi_ui2f>:
 80002dc:	f04f 0300 	mov.w	r3, #0
 80002e0:	e004      	b.n	80002ec <__aeabi_i2f+0x8>
 80002e2:	bf00      	nop

080002e4 <__aeabi_i2f>:
 80002e4:	f010 4300 	ands.w	r3, r0, #2147483648	@ 0x80000000
 80002e8:	bf48      	it	mi
 80002ea:	4240      	negmi	r0, r0
 80002ec:	ea5f 0c00 	movs.w	ip, r0
 80002f0:	bf08      	it	eq
 80002f2:	4770      	bxeq	lr
 80002f4:	f043 4396 	orr.w	r3, r3, #1258291200	@ 0x4b000000
 80002f8:	4601      	mov	r1, r0
 80002fa:	f04f 0000 	mov.w	r0, #0
 80002fe:	e01c      	b.n	800033a <__aeabi_l2f+0x2a>

08000300 <__aeabi_ul2f>:
 8000300:	ea50 0201 	orrs.w	r2, r0, r1
 8000304:	bf08      	it	eq
 8000306:	4770      	bxeq	lr
 8000308:	f04f 0300 	mov.w	r3, #0
 800030c:	e00a      	b.n	8000324 <__aeabi_l2f+0x14>
 800030e:	bf00      	nop

08000310 <__aeabi_l2f>:
 8000310:	ea50 0201 	orrs.w	r2, r0, r1
 8000314:	bf08      	it	eq
 8000316:	4770      	bxeq	lr
 8000318:	f011 4300 	ands.w	r3, r1, #2147483648	@ 0x80000000
 800031c:	d502      	bpl.n	8000324 <__aeabi_l2f+0x14>
 800031e:	4240      	negs	r0, r0
 8000320:	eb61 0141 	sbc.w	r1, r1, r1, lsl #1
 8000324:	ea5f 0c01 	movs.w	ip, r1
 8000328:	bf02      	ittt	eq
 800032a:	4684      	moveq	ip, r0
 800032c:	4601      	moveq	r1, r0
 800032e:	2000      	moveq	r0, #0
 8000330:	f043 43b6 	orr.w	r3, r3, #1526726656	@ 0x5b000000
 8000334:	bf08      	it	eq
 8000336:	f1a3 5380 	subeq.w	r3, r3, #268435456	@ 0x10000000
 800033a:	f5a3 0300 	sub.w	r3, r3, #8388608	@ 0x800000
 800033e:	fabc f28c 	clz	r2, ip
 8000342:	3a08      	subs	r2, #8
 8000344:	eba3 53c2 	sub.w	r3, r3, r2, lsl #23
 8000348:	db10      	blt.n	800036c <__aeabi_l2f+0x5c>
 800034a:	fa01 fc02 	lsl.w	ip, r1, r2
 800034e:	4463      	add	r3, ip
 8000350:	fa00 fc02 	lsl.w	ip, r0, r2
 8000354:	f1c2 0220 	rsb	r2, r2, #32
 8000358:	f1bc 4f00 	cmp.w	ip, #2147483648	@ 0x80000000
 800035c:	fa20 f202 	lsr.w	r2, r0, r2
 8000360:	eb43 0002 	adc.w	r0, r3, r2
 8000364:	bf08      	it	eq
 8000366:	f020 0001 	biceq.w	r0, r0, #1
 800036a:	4770      	bx	lr
 800036c:	f102 0220 	add.w	r2, r2, #32
 8000370:	fa01 fc02 	lsl.w	ip, r1, r2
 8000374:	f1c2 0220 	rsb	r2, r2, #32
 8000378:	ea50 004c 	orrs.w	r0, r0, ip, lsl #1
 800037c:	fa21 f202 	lsr.w	r2, r1, r2
 8000380:	eb43 0002 	adc.w	r0, r3, r2
 8000384:	bf08      	it	eq
 8000386:	ea20 70dc 	biceq.w	r0, r0, ip, lsr #31
 800038a:	4770      	bx	lr

0800038c <__aeabi_fmul>:
 800038c:	f04f 0cff 	mov.w	ip, #255	@ 0xff
 8000390:	ea1c 52d0 	ands.w	r2, ip, r0, lsr #23
 8000394:	bf1e      	ittt	ne
 8000396:	ea1c 53d1 	andsne.w	r3, ip, r1, lsr #23
 800039a:	ea92 0f0c 	teqne	r2, ip
 800039e:	ea93 0f0c 	teqne	r3, ip
 80003a2:	d06f      	beq.n	8000484 <__aeabi_fmul+0xf8>
 80003a4:	441a      	add	r2, r3
 80003a6:	ea80 0c01 	eor.w	ip, r0, r1
 80003aa:	0240      	lsls	r0, r0, #9
 80003ac:	bf18      	it	ne
 80003ae:	ea5f 2141 	movsne.w	r1, r1, lsl #9
 80003b2:	d01e      	beq.n	80003f2 <__aeabi_fmul+0x66>
 80003b4:	f04f 6300 	mov.w	r3, #134217728	@ 0x8000000
 80003b8:	ea43 1050 	orr.w	r0, r3, r0, lsr #5
 80003bc:	ea43 1151 	orr.w	r1, r3, r1, lsr #5
 80003c0:	fba0 3101 	umull	r3, r1, r0, r1
 80003c4:	f00c 4000 	and.w	r0, ip, #2147483648	@ 0x80000000
 80003c8:	f5b1 0f00 	cmp.w	r1, #8388608	@ 0x800000
 80003cc:	bf3e      	ittt	cc
 80003ce:	0049      	lslcc	r1, r1, #1
 80003d0:	ea41 71d3 	orrcc.w	r1, r1, r3, lsr #31
 80003d4:	005b      	lslcc	r3, r3, #1
 80003d6:	ea40 0001 	orr.w	r0, r0, r1
 80003da:	f162 027f 	sbc.w	r2, r2, #127	@ 0x7f
 80003de:	2afd      	cmp	r2, #253	@ 0xfd
 80003e0:	d81d      	bhi.n	800041e <__aeabi_fmul+0x92>
 80003e2:	f1b3 4f00 	cmp.w	r3, #2147483648	@ 0x80000000
 80003e6:	eb40 50c2 	adc.w	r0, r0, r2, lsl #23
 80003ea:	bf08      	it	eq
 80003ec:	f020 0001 	biceq.w	r0, r0, #1
 80003f0:	4770      	bx	lr
 80003f2:	f090 0f00 	teq	r0, #0
 80003f6:	f00c 4c00 	and.w	ip, ip, #2147483648	@ 0x80000000
 80003fa:	bf08      	it	eq
 80003fc:	0249      	lsleq	r1, r1, #9
 80003fe:	ea4c 2050 	orr.w	r0, ip, r0, lsr #9
 8000402:	ea40 2051 	orr.w	r0, r0, r1, lsr #9
 8000406:	3a7f      	subs	r2, #127	@ 0x7f
 8000408:	bfc2      	ittt	gt
 800040a:	f1d2 03ff 	rsbsgt	r3, r2, #255	@ 0xff
 800040e:	ea40 50c2 	orrgt.w	r0, r0, r2, lsl #23
 8000412:	4770      	bxgt	lr
 8000414:	f440 0000 	orr.w	r0, r0, #8388608	@ 0x800000
 8000418:	f04f 0300 	mov.w	r3, #0
 800041c:	3a01      	subs	r2, #1
 800041e:	dc5d      	bgt.n	80004dc <__aeabi_fmul+0x150>
 8000420:	f112 0f19 	cmn.w	r2, #25
 8000424:	bfdc      	itt	le
 8000426:	f000 4000 	andle.w	r0, r0, #2147483648	@ 0x80000000
 800042a:	4770      	bxle	lr
 800042c:	f1c2 0200 	rsb	r2, r2, #0
 8000430:	0041      	lsls	r1, r0, #1
 8000432:	fa21 f102 	lsr.w	r1, r1, r2
 8000436:	f1c2 0220 	rsb	r2, r2, #32
 800043a:	fa00 fc02 	lsl.w	ip, r0, r2
 800043e:	ea5f 0031 	movs.w	r0, r1, rrx
 8000442:	f140 0000 	adc.w	r0, r0, #0
 8000446:	ea53 034c 	orrs.w	r3, r3, ip, lsl #1
 800044a:	bf08      	it	eq
 800044c:	ea20 70dc 	biceq.w	r0, r0, ip, lsr #31
 8000450:	4770      	bx	lr
 8000452:	f092 0f00 	teq	r2, #0
 8000456:	f000 4c00 	and.w	ip, r0, #2147483648	@ 0x80000000
 800045a:	bf02      	ittt	eq
 800045c:	0040      	lsleq	r0, r0, #1
 800045e:	f410 0f00 	tsteq.w	r0, #8388608	@ 0x800000
 8000462:	3a01      	subeq	r2, #1
 8000464:	d0f9      	beq.n	800045a <__aeabi_fmul+0xce>
 8000466:	ea40 000c 	orr.w	r0, r0, ip
 800046a:	f093 0f00 	teq	r3, #0
 800046e:	f001 4c00 	and.w	ip, r1, #2147483648	@ 0x80000000
 8000472:	bf02      	ittt	eq
 8000474:	0049      	lsleq	r1, r1, #1
 8000476:	f411 0f00 	tsteq.w	r1, #8388608	@ 0x800000
 800047a:	3b01      	subeq	r3, #1
 800047c:	d0f9      	beq.n	8000472 <__aeabi_fmul+0xe6>
 800047e:	ea41 010c 	orr.w	r1, r1, ip
 8000482:	e78f      	b.n	80003a4 <__aeabi_fmul+0x18>
 8000484:	ea0c 53d1 	and.w	r3, ip, r1, lsr #23
 8000488:	ea92 0f0c 	teq	r2, ip
 800048c:	bf18      	it	ne
 800048e:	ea93 0f0c 	teqne	r3, ip
 8000492:	d00a      	beq.n	80004aa <__aeabi_fmul+0x11e>
 8000494:	f030 4c00 	bics.w	ip, r0, #2147483648	@ 0x80000000
 8000498:	bf18      	it	ne
 800049a:	f031 4c00 	bicsne.w	ip, r1, #2147483648	@ 0x80000000
 800049e:	d1d8      	bne.n	8000452 <__aeabi_fmul+0xc6>
 80004a0:	ea80 0001 	eor.w	r0, r0, r1
 80004a4:	f000 4000 	and.w	r0, r0, #2147483648	@ 0x80000000
 80004a8:	4770      	bx	lr
 80004aa:	f090 0f00 	teq	r0, #0
 80004ae:	bf17      	itett	ne
 80004b0:	f090 4f00 	teqne	r0, #2147483648	@ 0x80000000
 80004b4:	4608      	moveq	r0, r1
 80004b6:	f091 0f00 	teqne	r1, #0
 80004ba:	f091 4f00 	teqne	r1, #2147483648	@ 0x80000000
 80004be:	d014      	beq.n	80004ea <__aeabi_fmul+0x15e>
 80004c0:	ea92 0f0c 	teq	r2, ip
 80004c4:	d101      	bne.n	80004ca <__aeabi_fmul+0x13e>
 80004c6:	0242      	lsls	r2, r0, #9
 80004c8:	d10f      	bne.n	80004ea <__aeabi_fmul+0x15e>
 80004ca:	ea93 0f0c 	teq	r3, ip
 80004ce:	d103      	bne.n	80004d8 <__aeabi_fmul+0x14c>
 80004d0:	024b      	lsls	r3, r1, #9
 80004d2:	bf18      	it	ne
 80004d4:	4608      	movne	r0, r1
 80004d6:	d108      	bne.n	80004ea <__aeabi_fmul+0x15e>
 80004d8:	ea80 0001 	eor.w	r0, r0, r1
 80004dc:	f000 4000 	and.w	r0, r0, #2147483648	@ 0x80000000
 80004e0:	f040 40fe 	orr.w	r0, r0, #2130706432	@ 0x7f000000
 80004e4:	f440 0000 	orr.w	r0, r0, #8388608	@ 0x800000
 80004e8:	4770      	bx	lr
 80004ea:	f040 40fe 	orr.w	r0, r0, #2130706432	@ 0x7f000000
 80004ee:	f440 0040 	orr.w	r0, r0, #12582912	@ 0xc00000
 80004f2:	4770      	bx	lr

080004f4 <__aeabi_fdiv>:
 80004f4:	f04f 0cff 	mov.w	ip, #255	@ 0xff
 80004f8:	ea1c 52d0 	ands.w	r2, ip, r0, lsr #23
 80004fc:	bf1e      	ittt	ne
 80004fe:	ea1c 53d1 	andsne.w	r3, ip, r1, lsr #23
 8000502:	ea92 0f0c 	teqne	r2, ip
 8000506:	ea93 0f0c 	teqne	r3, ip
 800050a:	d069      	beq.n	80005e0 <__aeabi_fdiv+0xec>
 800050c:	eba2 0203 	sub.w	r2, r2, r3
 8000510:	ea80 0c01 	eor.w	ip, r0, r1
 8000514:	0249      	lsls	r1, r1, #9
 8000516:	ea4f 2040 	mov.w	r0, r0, lsl #9
 800051a:	d037      	beq.n	800058c <__aeabi_fdiv+0x98>
 800051c:	f04f 5380 	mov.w	r3, #268435456	@ 0x10000000
 8000520:	ea43 1111 	orr.w	r1, r3, r1, lsr #4
 8000524:	ea43 1310 	orr.w	r3, r3, r0, lsr #4
 8000528:	f00c 4000 	and.w	r0, ip, #2147483648	@ 0x80000000
 800052c:	428b      	cmp	r3, r1
 800052e:	bf38      	it	cc
 8000530:	005b      	lslcc	r3, r3, #1
 8000532:	f142 027d 	adc.w	r2, r2, #125	@ 0x7d
 8000536:	f44f 0c00 	mov.w	ip, #8388608	@ 0x800000
 800053a:	428b      	cmp	r3, r1
 800053c:	bf24      	itt	cs
 800053e:	1a5b      	subcs	r3, r3, r1
 8000540:	ea40 000c 	orrcs.w	r0, r0, ip
 8000544:	ebb3 0f51 	cmp.w	r3, r1, lsr #1
 8000548:	bf24      	itt	cs
 800054a:	eba3 0351 	subcs.w	r3, r3, r1, lsr #1
 800054e:	ea40 005c 	orrcs.w	r0, r0, ip, lsr #1
 8000552:	ebb3 0f91 	cmp.w	r3, r1, lsr #2
 8000556:	bf24      	itt	cs
 8000558:	eba3 0391 	subcs.w	r3, r3, r1, lsr #2
 800055c:	ea40 009c 	orrcs.w	r0, r0, ip, lsr #2
 8000560:	ebb3 0fd1 	cmp.w	r3, r1, lsr #3
 8000564:	bf24      	itt	cs
 8000566:	eba3 03d1 	subcs.w	r3, r3, r1, lsr #3
 800056a:	ea40 00dc 	orrcs.w	r0, r0, ip, lsr #3
 800056e:	011b      	lsls	r3, r3, #4
 8000570:	bf18      	it	ne
 8000572:	ea5f 1c1c 	movsne.w	ip, ip, lsr #4
 8000576:	d1e0      	bne.n	800053a <__aeabi_fdiv+0x46>
 8000578:	2afd      	cmp	r2, #253	@ 0xfd
 800057a:	f63f af50 	bhi.w	800041e <__aeabi_fmul+0x92>
 800057e:	428b      	cmp	r3, r1
 8000580:	eb40 50c2 	adc.w	r0, r0, r2, lsl #23
 8000584:	bf08      	it	eq
 8000586:	f020 0001 	biceq.w	r0, r0, #1
 800058a:	4770      	bx	lr
 800058c:	f00c 4c00 	and.w	ip, ip, #2147483648	@ 0x80000000
 8000590:	ea4c 2050 	orr.w	r0, ip, r0, lsr #9
 8000594:	327f      	adds	r2, #127	@ 0x7f
 8000596:	bfc2      	ittt	gt
 8000598:	f1d2 03ff 	rsbsgt	r3, r2, #255	@ 0xff
 800059c:	ea40 50c2 	orrgt.w	r0, r0, r2, lsl #23
 80005a0:	4770      	bxgt	lr
 80005a2:	f440 0000 	orr.w	r0, r0, #8388608	@ 0x800000
 80005a6:	f04f 0300 	mov.w	r3, #0
 80005aa:	3a01      	subs	r2, #1
 80005ac:	e737      	b.n	800041e <__aeabi_fmul+0x92>
 80005ae:	f092 0f00 	teq	r2, #0
 80005b2:	f000 4c00 	and.w	ip, r0, #2147483648	@ 0x80000000
 80005b6:	bf02      	ittt	eq
 80005b8:	0040      	lsleq	r0, r0, #1
 80005ba:	f410 0f00 	tsteq.w	r0, #8388608	@ 0x800000
 80005be:	3a01      	subeq	r2, #1
 80005c0:	d0f9      	beq.n	80005b6 <__aeabi_fdiv+0xc2>
 80005c2:	ea40 000c 	orr.w	r0, r0, ip
 80005c6:	f093 0f00 	teq	r3, #0
 80005ca:	f001 4c00 	and.w	ip, r1, #2147483648	@ 0x80000000
 80005ce:	bf02      	ittt	eq
 80005d0:	0049      	lsleq	r1, r1, #1
 80005d2:	f411 0f00 	tsteq.w	r1, #8388608	@ 0x800000
 80005d6:	3b01      	subeq	r3, #1
 80005d8:	d0f9      	beq.n	80005ce <__aeabi_fdiv+0xda>
 80005da:	ea41 010c 	orr.w	r1, r1, ip
 80005de:	e795      	b.n	800050c <__aeabi_fdiv+0x18>
 80005e0:	ea0c 53d1 	and.w	r3, ip, r1, lsr #23
 80005e4:	ea92 0f0c 	teq	r2, ip
 80005e8:	d108      	bne.n	80005fc <__aeabi_fdiv+0x108>
 80005ea:	0242      	lsls	r2, r0, #9
 80005ec:	f47f af7d 	bne.w	80004ea <__aeabi_fmul+0x15e>
 80005f0:	ea93 0f0c 	teq	r3, ip
 80005f4:	f47f af70 	bne.w	80004d8 <__aeabi_fmul+0x14c>
 80005f8:	4608      	mov	r0, r1
 80005fa:	e776      	b.n	80004ea <__aeabi_fmul+0x15e>
 80005fc:	ea93 0f0c 	teq	r3, ip
 8000600:	d104      	bne.n	800060c <__aeabi_fdiv+0x118>
 8000602:	024b      	lsls	r3, r1, #9
 8000604:	f43f af4c 	beq.w	80004a0 <__aeabi_fmul+0x114>
 8000608:	4608      	mov	r0, r1
 800060a:	e76e      	b.n	80004ea <__aeabi_fmul+0x15e>
 800060c:	f030 4c00 	bics.w	ip, r0, #2147483648	@ 0x80000000
 8000610:	bf18      	it	ne
 8000612:	f031 4c00 	bicsne.w	ip, r1, #2147483648	@ 0x80000000
 8000616:	d1ca      	bne.n	80005ae <__aeabi_fdiv+0xba>
 8000618:	f030 4200 	bics.w	r2, r0, #2147483648	@ 0x80000000
 800061c:	f47f af5c 	bne.w	80004d8 <__aeabi_fmul+0x14c>
 8000620:	f031 4300 	bics.w	r3, r1, #2147483648	@ 0x80000000
 8000624:	f47f af3c 	bne.w	80004a0 <__aeabi_fmul+0x114>
 8000628:	e75f      	b.n	80004ea <__aeabi_fmul+0x15e>
 800062a:	bf00      	nop

0800062c <__gesf2>:
 800062c:	f04f 3cff 	mov.w	ip, #4294967295
 8000630:	e006      	b.n	8000640 <__cmpsf2+0x4>
 8000632:	bf00      	nop

08000634 <__lesf2>:
 8000634:	f04f 0c01 	mov.w	ip, #1
 8000638:	e002      	b.n	8000640 <__cmpsf2+0x4>
 800063a:	bf00      	nop

0800063c <__cmpsf2>:
 800063c:	f04f 0c01 	mov.w	ip, #1
 8000640:	f84d cd04 	str.w	ip, [sp, #-4]!
 8000644:	ea4f 0240 	mov.w	r2, r0, lsl #1
 8000648:	ea4f 0341 	mov.w	r3, r1, lsl #1
 800064c:	ea7f 6c22 	mvns.w	ip, r2, asr #24
 8000650:	bf18      	it	ne
 8000652:	ea7f 6c23 	mvnsne.w	ip, r3, asr #24
 8000656:	d011      	beq.n	800067c <__cmpsf2+0x40>
 8000658:	b001      	add	sp, #4
 800065a:	ea52 0c53 	orrs.w	ip, r2, r3, lsr #1
 800065e:	bf18      	it	ne
 8000660:	ea90 0f01 	teqne	r0, r1
 8000664:	bf58      	it	pl
 8000666:	ebb2 0003 	subspl.w	r0, r2, r3
 800066a:	bf88      	it	hi
 800066c:	17c8      	asrhi	r0, r1, #31
 800066e:	bf38      	it	cc
 8000670:	ea6f 70e1 	mvncc.w	r0, r1, asr #31
 8000674:	bf18      	it	ne
 8000676:	f040 0001 	orrne.w	r0, r0, #1
 800067a:	4770      	bx	lr
 800067c:	ea7f 6c22 	mvns.w	ip, r2, asr #24
 8000680:	d102      	bne.n	8000688 <__cmpsf2+0x4c>
 8000682:	ea5f 2c40 	movs.w	ip, r0, lsl #9
 8000686:	d105      	bne.n	8000694 <__cmpsf2+0x58>
 8000688:	ea7f 6c23 	mvns.w	ip, r3, asr #24
 800068c:	d1e4      	bne.n	8000658 <__cmpsf2+0x1c>
 800068e:	ea5f 2c41 	movs.w	ip, r1, lsl #9
 8000692:	d0e1      	beq.n	8000658 <__cmpsf2+0x1c>
 8000694:	f85d 0b04 	ldr.w	r0, [sp], #4
 8000698:	4770      	bx	lr
 800069a:	bf00      	nop

0800069c <__aeabi_cfrcmple>:
 800069c:	4684      	mov	ip, r0
 800069e:	4608      	mov	r0, r1
 80006a0:	4661      	mov	r1, ip
 80006a2:	e7ff      	b.n	80006a4 <__aeabi_cfcmpeq>

080006a4 <__aeabi_cfcmpeq>:
 80006a4:	b50f      	push	{r0, r1, r2, r3, lr}
 80006a6:	f7ff ffc9 	bl	800063c <__cmpsf2>
 80006aa:	2800      	cmp	r0, #0
 80006ac:	bf48      	it	mi
 80006ae:	f110 0f00 	cmnmi.w	r0, #0
 80006b2:	bd0f      	pop	{r0, r1, r2, r3, pc}

080006b4 <__aeabi_fcmpeq>:
 80006b4:	f84d ed08 	str.w	lr, [sp, #-8]!
 80006b8:	f7ff fff4 	bl	80006a4 <__aeabi_cfcmpeq>
 80006bc:	bf0c      	ite	eq
 80006be:	2001      	moveq	r0, #1
 80006c0:	2000      	movne	r0, #0
 80006c2:	f85d fb08 	ldr.w	pc, [sp], #8
 80006c6:	bf00      	nop

080006c8 <__aeabi_fcmplt>:
 80006c8:	f84d ed08 	str.w	lr, [sp, #-8]!
 80006cc:	f7ff ffea 	bl	80006a4 <__aeabi_cfcmpeq>
 80006d0:	bf34      	ite	cc
 80006d2:	2001      	movcc	r0, #1
 80006d4:	2000      	movcs	r0, #0
 80006d6:	f85d fb08 	ldr.w	pc, [sp], #8
 80006da:	bf00      	nop

080006dc <__aeabi_fcmple>:
 80006dc:	f84d ed08 	str.w	lr, [sp, #-8]!
 80006e0:	f7ff ffe0 	bl	80006a4 <__aeabi_cfcmpeq>
 80006e4:	bf94      	ite	ls
 80006e6:	2001      	movls	r0, #1
 80006e8:	2000      	movhi	r0, #0
 80006ea:	f85d fb08 	ldr.w	pc, [sp], #8
 80006ee:	bf00      	nop

080006f0 <__aeabi_fcmpge>:
 80006f0:	f84d ed08 	str.w	lr, [sp, #-8]!
 80006f4:	f7ff ffd2 	bl	800069c <__aeabi_cfrcmple>
 80006f8:	bf94      	ite	ls
 80006fa:	2001      	movls	r0, #1
 80006fc:	2000      	movhi	r0, #0
 80006fe:	f85d fb08 	ldr.w	pc, [sp], #8
 8000702:	bf00      	nop

08000704 <__aeabi_fcmpgt>:
 8000704:	f84d ed08 	str.w	lr, [sp, #-8]!
 8000708:	f7ff ffc8 	bl	800069c <__aeabi_cfrcmple>
 800070c:	bf34      	ite	cc
 800070e:	2001      	movcc	r0, #1
 8000710:	2000      	movcs	r0, #0
 8000712:	f85d fb08 	ldr.w	pc, [sp], #8
 8000716:	bf00      	nop

08000718 <__aeabi_fcmpun>:
 8000718:	ea4f 0240 	mov.w	r2, r0, lsl #1
 800071c:	ea4f 0341 	mov.w	r3, r1, lsl #1
 8000720:	ea7f 6c22 	mvns.w	ip, r2, asr #24
 8000724:	d102      	bne.n	800072c <__aeabi_fcmpun+0x14>
 8000726:	ea5f 2c40 	movs.w	ip, r0, lsl #9
 800072a:	d108      	bne.n	800073e <__aeabi_fcmpun+0x26>
 800072c:	ea7f 6c23 	mvns.w	ip, r3, asr #24
 8000730:	d102      	bne.n	8000738 <__aeabi_fcmpun+0x20>
 8000732:	ea5f 2c41 	movs.w	ip, r1, lsl #9
 8000736:	d102      	bne.n	800073e <__aeabi_fcmpun+0x26>
 8000738:	f04f 0000 	mov.w	r0, #0
 800073c:	4770      	bx	lr
 800073e:	f04f 0001 	mov.w	r0, #1
 8000742:	4770      	bx	lr

08000744 <__aeabi_f2iz>:
 8000744:	ea4f 0240 	mov.w	r2, r0, lsl #1
 8000748:	f1b2 4ffe 	cmp.w	r2, #2130706432	@ 0x7f000000
 800074c:	d30f      	bcc.n	800076e <__aeabi_f2iz+0x2a>
 800074e:	f04f 039e 	mov.w	r3, #158	@ 0x9e
 8000752:	ebb3 6212 	subs.w	r2, r3, r2, lsr #24
 8000756:	d90d      	bls.n	8000774 <__aeabi_f2iz+0x30>
 8000758:	ea4f 2300 	mov.w	r3, r0, lsl #8
 800075c:	f043 4300 	orr.w	r3, r3, #2147483648	@ 0x80000000
 8000760:	f010 4f00 	tst.w	r0, #2147483648	@ 0x80000000
 8000764:	fa23 f002 	lsr.w	r0, r3, r2
 8000768:	bf18      	it	ne
 800076a:	4240      	negne	r0, r0
 800076c:	4770      	bx	lr
 800076e:	f04f 0000 	mov.w	r0, #0
 8000772:	4770      	bx	lr
 8000774:	f112 0f61 	cmn.w	r2, #97	@ 0x61
 8000778:	d101      	bne.n	800077e <__aeabi_f2iz+0x3a>
 800077a:	0242      	lsls	r2, r0, #9
 800077c:	d105      	bne.n	800078a <__aeabi_f2iz+0x46>
 800077e:	f010 4000 	ands.w	r0, r0, #2147483648	@ 0x80000000
 8000782:	bf08      	it	eq
 8000784:	f06f 4000 	mvneq.w	r0, #2147483648	@ 0x80000000
 8000788:	4770      	bx	lr
 800078a:	f04f 0000 	mov.w	r0, #0
 800078e:	4770      	bx	lr

08000790 <__aeabi_f2uiz>:
 8000790:	0042      	lsls	r2, r0, #1
 8000792:	d20e      	bcs.n	80007b2 <__aeabi_f2uiz+0x22>
 8000794:	f1b2 4ffe 	cmp.w	r2, #2130706432	@ 0x7f000000
 8000798:	d30b      	bcc.n	80007b2 <__aeabi_f2uiz+0x22>
 800079a:	f04f 039e 	mov.w	r3, #158	@ 0x9e
 800079e:	ebb3 6212 	subs.w	r2, r3, r2, lsr #24
 80007a2:	d409      	bmi.n	80007b8 <__aeabi_f2uiz+0x28>
 80007a4:	ea4f 2300 	mov.w	r3, r0, lsl #8
 80007a8:	f043 4300 	orr.w	r3, r3, #2147483648	@ 0x80000000
 80007ac:	fa23 f002 	lsr.w	r0, r3, r2
 80007b0:	4770      	bx	lr
 80007b2:	f04f 0000 	mov.w	r0, #0
 80007b6:	4770      	bx	lr
 80007b8:	f112 0f61 	cmn.w	r2, #97	@ 0x61
 80007bc:	d101      	bne.n	80007c2 <__aeabi_f2uiz+0x32>
 80007be:	0242      	lsls	r2, r0, #9
 80007c0:	d102      	bne.n	80007c8 <__aeabi_f2uiz+0x38>
 80007c2:	f04f 30ff 	mov.w	r0, #4294967295
 80007c6:	4770      	bx	lr
 80007c8:	f04f 0000 	mov.w	r0, #0
 80007cc:	4770      	bx	lr
 80007ce:	bf00      	nop

080007d0 <MX_DMA_Init>:

/**
  * Enable DMA controller clock
  */
void MX_DMA_Init(void)
{
 80007d0:	b580      	push	{r7, lr}
 80007d2:	b082      	sub	sp, #8
 80007d4:	af00      	add	r7, sp, #0

  /* DMA controller clock enable */
  __HAL_RCC_DMA1_CLK_ENABLE();
 80007d6:	4b0c      	ldr	r3, [pc, #48]	@ (8000808 <MX_DMA_Init+0x38>)
 80007d8:	695b      	ldr	r3, [r3, #20]
 80007da:	4a0b      	ldr	r2, [pc, #44]	@ (8000808 <MX_DMA_Init+0x38>)
 80007dc:	f043 0301 	orr.w	r3, r3, #1
 80007e0:	6153      	str	r3, [r2, #20]
 80007e2:	4b09      	ldr	r3, [pc, #36]	@ (8000808 <MX_DMA_Init+0x38>)
 80007e4:	695b      	ldr	r3, [r3, #20]
 80007e6:	f003 0301 	and.w	r3, r3, #1
 80007ea:	607b      	str	r3, [r7, #4]
 80007ec:	687b      	ldr	r3, [r7, #4]

  /* DMA interrupt init */
  /* DMA1_Channel6_IRQn interrupt configuration */
  HAL_NVIC_SetPriority(DMA1_Channel6_IRQn, 0, 0);
 80007ee:	2200      	movs	r2, #0
 80007f0:	2100      	movs	r1, #0
 80007f2:	2010      	movs	r0, #16
 80007f4:	f003 ff29 	bl	800464a <HAL_NVIC_SetPriority>
  HAL_NVIC_EnableIRQ(DMA1_Channel6_IRQn);
 80007f8:	2010      	movs	r0, #16
 80007fa:	f003 ff42 	bl	8004682 <HAL_NVIC_EnableIRQ>

}
 80007fe:	bf00      	nop
 8000800:	3708      	adds	r7, #8
 8000802:	46bd      	mov	sp, r7
 8000804:	bd80      	pop	{r7, pc}
 8000806:	bf00      	nop
 8000808:	40021000 	.word	0x40021000

0800080c <MX_GPIO_Init>:
        * Output
        * EVENT_OUT
        * EXTI
*/
void MX_GPIO_Init(void)
{
 800080c:	b580      	push	{r7, lr}
 800080e:	b088      	sub	sp, #32
 8000810:	af00      	add	r7, sp, #0

  GPIO_InitTypeDef GPIO_InitStruct = {0};
 8000812:	f107 0310 	add.w	r3, r7, #16
 8000816:	2200      	movs	r2, #0
 8000818:	601a      	str	r2, [r3, #0]
 800081a:	605a      	str	r2, [r3, #4]
 800081c:	609a      	str	r2, [r3, #8]
 800081e:	60da      	str	r2, [r3, #12]

  /* GPIO Ports Clock Enable */
  __HAL_RCC_GPIOC_CLK_ENABLE();
 8000820:	4b2a      	ldr	r3, [pc, #168]	@ (80008cc <MX_GPIO_Init+0xc0>)
 8000822:	699b      	ldr	r3, [r3, #24]
 8000824:	4a29      	ldr	r2, [pc, #164]	@ (80008cc <MX_GPIO_Init+0xc0>)
 8000826:	f043 0310 	orr.w	r3, r3, #16
 800082a:	6193      	str	r3, [r2, #24]
 800082c:	4b27      	ldr	r3, [pc, #156]	@ (80008cc <MX_GPIO_Init+0xc0>)
 800082e:	699b      	ldr	r3, [r3, #24]
 8000830:	f003 0310 	and.w	r3, r3, #16
 8000834:	60fb      	str	r3, [r7, #12]
 8000836:	68fb      	ldr	r3, [r7, #12]
  __HAL_RCC_GPIOD_CLK_ENABLE();
 8000838:	4b24      	ldr	r3, [pc, #144]	@ (80008cc <MX_GPIO_Init+0xc0>)
 800083a:	699b      	ldr	r3, [r3, #24]
 800083c:	4a23      	ldr	r2, [pc, #140]	@ (80008cc <MX_GPIO_Init+0xc0>)
 800083e:	f043 0320 	orr.w	r3, r3, #32
 8000842:	6193      	str	r3, [r2, #24]
 8000844:	4b21      	ldr	r3, [pc, #132]	@ (80008cc <MX_GPIO_Init+0xc0>)
 8000846:	699b      	ldr	r3, [r3, #24]
 8000848:	f003 0320 	and.w	r3, r3, #32
 800084c:	60bb      	str	r3, [r7, #8]
 800084e:	68bb      	ldr	r3, [r7, #8]
  __HAL_RCC_GPIOB_CLK_ENABLE();
 8000850:	4b1e      	ldr	r3, [pc, #120]	@ (80008cc <MX_GPIO_Init+0xc0>)
 8000852:	699b      	ldr	r3, [r3, #24]
 8000854:	4a1d      	ldr	r2, [pc, #116]	@ (80008cc <MX_GPIO_Init+0xc0>)
 8000856:	f043 0308 	orr.w	r3, r3, #8
 800085a:	6193      	str	r3, [r2, #24]
 800085c:	4b1b      	ldr	r3, [pc, #108]	@ (80008cc <MX_GPIO_Init+0xc0>)
 800085e:	699b      	ldr	r3, [r3, #24]
 8000860:	f003 0308 	and.w	r3, r3, #8
 8000864:	607b      	str	r3, [r7, #4]
 8000866:	687b      	ldr	r3, [r7, #4]
  __HAL_RCC_GPIOA_CLK_ENABLE();
 8000868:	4b18      	ldr	r3, [pc, #96]	@ (80008cc <MX_GPIO_Init+0xc0>)
 800086a:	699b      	ldr	r3, [r3, #24]
 800086c:	4a17      	ldr	r2, [pc, #92]	@ (80008cc <MX_GPIO_Init+0xc0>)
 800086e:	f043 0304 	orr.w	r3, r3, #4
 8000872:	6193      	str	r3, [r2, #24]
 8000874:	4b15      	ldr	r3, [pc, #84]	@ (80008cc <MX_GPIO_Init+0xc0>)
 8000876:	699b      	ldr	r3, [r3, #24]
 8000878:	f003 0304 	and.w	r3, r3, #4
 800087c:	603b      	str	r3, [r7, #0]
 800087e:	683b      	ldr	r3, [r7, #0]

  /*Configure GPIO pin Output Level */
  HAL_GPIO_WritePin(SysWork_Light_GPIO_Port, SysWork_Light_Pin, GPIO_PIN_RESET);
 8000880:	2200      	movs	r2, #0
 8000882:	f44f 5100 	mov.w	r1, #8192	@ 0x2000
 8000886:	4812      	ldr	r0, [pc, #72]	@ (80008d0 <MX_GPIO_Init+0xc4>)
 8000888:	f004 fa11 	bl	8004cae <HAL_GPIO_WritePin>

  /*Configure GPIO pin : SysWork_Light_Pin */
  GPIO_InitStruct.Pin = SysWork_Light_Pin;
 800088c:	f44f 5300 	mov.w	r3, #8192	@ 0x2000
 8000890:	613b      	str	r3, [r7, #16]
  GPIO_InitStruct.Mode = GPIO_MODE_OUTPUT_PP;
 8000892:	2301      	movs	r3, #1
 8000894:	617b      	str	r3, [r7, #20]
  GPIO_InitStruct.Pull = GPIO_NOPULL;
 8000896:	2300      	movs	r3, #0
 8000898:	61bb      	str	r3, [r7, #24]
  GPIO_InitStruct.Speed = GPIO_SPEED_FREQ_LOW;
 800089a:	2302      	movs	r3, #2
 800089c:	61fb      	str	r3, [r7, #28]
  HAL_GPIO_Init(SysWork_Light_GPIO_Port, &GPIO_InitStruct);
 800089e:	f107 0310 	add.w	r3, r7, #16
 80008a2:	4619      	mov	r1, r3
 80008a4:	480a      	ldr	r0, [pc, #40]	@ (80008d0 <MX_GPIO_Init+0xc4>)
 80008a6:	f004 f867 	bl	8004978 <HAL_GPIO_Init>

  /*Configure GPIO pin : Encoder_Input_Pin */
  GPIO_InitStruct.Pin = Encoder_Input_Pin;
 80008aa:	f44f 5380 	mov.w	r3, #4096	@ 0x1000
 80008ae:	613b      	str	r3, [r7, #16]
  GPIO_InitStruct.Mode = GPIO_MODE_INPUT;
 80008b0:	2300      	movs	r3, #0
 80008b2:	617b      	str	r3, [r7, #20]
  GPIO_InitStruct.Pull = GPIO_PULLUP;
 80008b4:	2301      	movs	r3, #1
 80008b6:	61bb      	str	r3, [r7, #24]
  HAL_GPIO_Init(Encoder_Input_GPIO_Port, &GPIO_InitStruct);
 80008b8:	f107 0310 	add.w	r3, r7, #16
 80008bc:	4619      	mov	r1, r3
 80008be:	4805      	ldr	r0, [pc, #20]	@ (80008d4 <MX_GPIO_Init+0xc8>)
 80008c0:	f004 f85a 	bl	8004978 <HAL_GPIO_Init>

}
 80008c4:	bf00      	nop
 80008c6:	3720      	adds	r7, #32
 80008c8:	46bd      	mov	sp, r7
 80008ca:	bd80      	pop	{r7, pc}
 80008cc:	40021000 	.word	0x40021000
 80008d0:	40011000 	.word	0x40011000
 80008d4:	40010c00 	.word	0x40010c00

080008d8 <MX_I2C1_Init>:
I2C_HandleTypeDef hi2c2;
DMA_HandleTypeDef hdma_i2c1_tx;

/* I2C1 init function */
void MX_I2C1_Init(void)
{
 80008d8:	b580      	push	{r7, lr}
 80008da:	af00      	add	r7, sp, #0
  /* USER CODE END I2C1_Init 0 */

  /* USER CODE BEGIN I2C1_Init 1 */

  /* USER CODE END I2C1_Init 1 */
  hi2c1.Instance = I2C1;
 80008dc:	4b12      	ldr	r3, [pc, #72]	@ (8000928 <MX_I2C1_Init+0x50>)
 80008de:	4a13      	ldr	r2, [pc, #76]	@ (800092c <MX_I2C1_Init+0x54>)
 80008e0:	601a      	str	r2, [r3, #0]
  hi2c1.Init.ClockSpeed = 400000;
 80008e2:	4b11      	ldr	r3, [pc, #68]	@ (8000928 <MX_I2C1_Init+0x50>)
 80008e4:	4a12      	ldr	r2, [pc, #72]	@ (8000930 <MX_I2C1_Init+0x58>)
 80008e6:	605a      	str	r2, [r3, #4]
  hi2c1.Init.DutyCycle = I2C_DUTYCYCLE_2;
 80008e8:	4b0f      	ldr	r3, [pc, #60]	@ (8000928 <MX_I2C1_Init+0x50>)
 80008ea:	2200      	movs	r2, #0
 80008ec:	609a      	str	r2, [r3, #8]
  hi2c1.Init.OwnAddress1 = 0;
 80008ee:	4b0e      	ldr	r3, [pc, #56]	@ (8000928 <MX_I2C1_Init+0x50>)
 80008f0:	2200      	movs	r2, #0
 80008f2:	60da      	str	r2, [r3, #12]
  hi2c1.Init.AddressingMode = I2C_ADDRESSINGMODE_7BIT;
 80008f4:	4b0c      	ldr	r3, [pc, #48]	@ (8000928 <MX_I2C1_Init+0x50>)
 80008f6:	f44f 4280 	mov.w	r2, #16384	@ 0x4000
 80008fa:	611a      	str	r2, [r3, #16]
  hi2c1.Init.DualAddressMode = I2C_DUALADDRESS_DISABLE;
 80008fc:	4b0a      	ldr	r3, [pc, #40]	@ (8000928 <MX_I2C1_Init+0x50>)
 80008fe:	2200      	movs	r2, #0
 8000900:	615a      	str	r2, [r3, #20]
  hi2c1.Init.OwnAddress2 = 0;
 8000902:	4b09      	ldr	r3, [pc, #36]	@ (8000928 <MX_I2C1_Init+0x50>)
 8000904:	2200      	movs	r2, #0
 8000906:	619a      	str	r2, [r3, #24]
  hi2c1.Init.GeneralCallMode = I2C_GENERALCALL_DISABLE;
 8000908:	4b07      	ldr	r3, [pc, #28]	@ (8000928 <MX_I2C1_Init+0x50>)
 800090a:	2200      	movs	r2, #0
 800090c:	61da      	str	r2, [r3, #28]
  hi2c1.Init.NoStretchMode = I2C_NOSTRETCH_DISABLE;
 800090e:	4b06      	ldr	r3, [pc, #24]	@ (8000928 <MX_I2C1_Init+0x50>)
 8000910:	2200      	movs	r2, #0
 8000912:	621a      	str	r2, [r3, #32]
  if (HAL_I2C_Init(&hi2c1) != HAL_OK)
 8000914:	4804      	ldr	r0, [pc, #16]	@ (8000928 <MX_I2C1_Init+0x50>)
 8000916:	f004 f9e3 	bl	8004ce0 <HAL_I2C_Init>
 800091a:	4603      	mov	r3, r0
 800091c:	2b00      	cmp	r3, #0
 800091e:	d001      	beq.n	8000924 <MX_I2C1_Init+0x4c>
  {
    Error_Handler();
 8000920:	f000 f999 	bl	8000c56 <Error_Handler>
  }
  /* USER CODE BEGIN I2C1_Init 2 */

  /* USER CODE END I2C1_Init 2 */

}
 8000924:	bf00      	nop
 8000926:	bd80      	pop	{r7, pc}
 8000928:	20000090 	.word	0x20000090
 800092c:	40005400 	.word	0x40005400
 8000930:	00061a80 	.word	0x00061a80

08000934 <MX_I2C2_Init>:
/* I2C2 init function */
void MX_I2C2_Init(void)
{
 8000934:	b580      	push	{r7, lr}
 8000936:	af00      	add	r7, sp, #0
  /* USER CODE END I2C2_Init 0 */

  /* USER CODE BEGIN I2C2_Init 1 */

  /* USER CODE END I2C2_Init 1 */
  hi2c2.Instance = I2C2;
 8000938:	4b12      	ldr	r3, [pc, #72]	@ (8000984 <MX_I2C2_Init+0x50>)
 800093a:	4a13      	ldr	r2, [pc, #76]	@ (8000988 <MX_I2C2_Init+0x54>)
 800093c:	601a      	str	r2, [r3, #0]
  hi2c2.Init.ClockSpeed = 400000;
 800093e:	4b11      	ldr	r3, [pc, #68]	@ (8000984 <MX_I2C2_Init+0x50>)
 8000940:	4a12      	ldr	r2, [pc, #72]	@ (800098c <MX_I2C2_Init+0x58>)
 8000942:	605a      	str	r2, [r3, #4]
  hi2c2.Init.DutyCycle = I2C_DUTYCYCLE_2;
 8000944:	4b0f      	ldr	r3, [pc, #60]	@ (8000984 <MX_I2C2_Init+0x50>)
 8000946:	2200      	movs	r2, #0
 8000948:	609a      	str	r2, [r3, #8]
  hi2c2.Init.OwnAddress1 = 0;
 800094a:	4b0e      	ldr	r3, [pc, #56]	@ (8000984 <MX_I2C2_Init+0x50>)
 800094c:	2200      	movs	r2, #0
 800094e:	60da      	str	r2, [r3, #12]
  hi2c2.Init.AddressingMode = I2C_ADDRESSINGMODE_7BIT;
 8000950:	4b0c      	ldr	r3, [pc, #48]	@ (8000984 <MX_I2C2_Init+0x50>)
 8000952:	f44f 4280 	mov.w	r2, #16384	@ 0x4000
 8000956:	611a      	str	r2, [r3, #16]
  hi2c2.Init.DualAddressMode = I2C_DUALADDRESS_DISABLE;
 8000958:	4b0a      	ldr	r3, [pc, #40]	@ (8000984 <MX_I2C2_Init+0x50>)
 800095a:	2200      	movs	r2, #0
 800095c:	615a      	str	r2, [r3, #20]
  hi2c2.Init.OwnAddress2 = 0;
 800095e:	4b09      	ldr	r3, [pc, #36]	@ (8000984 <MX_I2C2_Init+0x50>)
 8000960:	2200      	movs	r2, #0
 8000962:	619a      	str	r2, [r3, #24]
  hi2c2.Init.GeneralCallMode = I2C_GENERALCALL_DISABLE;
 8000964:	4b07      	ldr	r3, [pc, #28]	@ (8000984 <MX_I2C2_Init+0x50>)
 8000966:	2200      	movs	r2, #0
 8000968:	61da      	str	r2, [r3, #28]
  hi2c2.Init.NoStretchMode = I2C_NOSTRETCH_DISABLE;
 800096a:	4b06      	ldr	r3, [pc, #24]	@ (8000984 <MX_I2C2_Init+0x50>)
 800096c:	2200      	movs	r2, #0
 800096e:	621a      	str	r2, [r3, #32]
  if (HAL_I2C_Init(&hi2c2) != HAL_OK)
 8000970:	4804      	ldr	r0, [pc, #16]	@ (8000984 <MX_I2C2_Init+0x50>)
 8000972:	f004 f9b5 	bl	8004ce0 <HAL_I2C_Init>
 8000976:	4603      	mov	r3, r0
 8000978:	2b00      	cmp	r3, #0
 800097a:	d001      	beq.n	8000980 <MX_I2C2_Init+0x4c>
  {
    Error_Handler();
 800097c:	f000 f96b 	bl	8000c56 <Error_Handler>
  }
  /* USER CODE BEGIN I2C2_Init 2 */

  /* USER CODE END I2C2_Init 2 */

}
 8000980:	bf00      	nop
 8000982:	bd80      	pop	{r7, pc}
 8000984:	200000e4 	.word	0x200000e4
 8000988:	40005800 	.word	0x40005800
 800098c:	00061a80 	.word	0x00061a80

08000990 <HAL_I2C_MspInit>:

void HAL_I2C_MspInit(I2C_HandleTypeDef* i2cHandle)
{
 8000990:	b580      	push	{r7, lr}
 8000992:	b08a      	sub	sp, #40	@ 0x28
 8000994:	af00      	add	r7, sp, #0
 8000996:	6078      	str	r0, [r7, #4]

  GPIO_InitTypeDef GPIO_InitStruct = {0};
 8000998:	f107 0318 	add.w	r3, r7, #24
 800099c:	2200      	movs	r2, #0
 800099e:	601a      	str	r2, [r3, #0]
 80009a0:	605a      	str	r2, [r3, #4]
 80009a2:	609a      	str	r2, [r3, #8]
 80009a4:	60da      	str	r2, [r3, #12]
  if(i2cHandle->Instance==I2C1)
 80009a6:	687b      	ldr	r3, [r7, #4]
 80009a8:	681b      	ldr	r3, [r3, #0]
 80009aa:	4a3e      	ldr	r2, [pc, #248]	@ (8000aa4 <HAL_I2C_MspInit+0x114>)
 80009ac:	4293      	cmp	r3, r2
 80009ae:	d14b      	bne.n	8000a48 <HAL_I2C_MspInit+0xb8>
  {
  /* USER CODE BEGIN I2C1_MspInit 0 */

  /* USER CODE END I2C1_MspInit 0 */

    __HAL_RCC_GPIOB_CLK_ENABLE();
 80009b0:	4b3d      	ldr	r3, [pc, #244]	@ (8000aa8 <HAL_I2C_MspInit+0x118>)
 80009b2:	699b      	ldr	r3, [r3, #24]
 80009b4:	4a3c      	ldr	r2, [pc, #240]	@ (8000aa8 <HAL_I2C_MspInit+0x118>)
 80009b6:	f043 0308 	orr.w	r3, r3, #8
 80009ba:	6193      	str	r3, [r2, #24]
 80009bc:	4b3a      	ldr	r3, [pc, #232]	@ (8000aa8 <HAL_I2C_MspInit+0x118>)
 80009be:	699b      	ldr	r3, [r3, #24]
 80009c0:	f003 0308 	and.w	r3, r3, #8
 80009c4:	617b      	str	r3, [r7, #20]
 80009c6:	697b      	ldr	r3, [r7, #20]
    /**I2C1 GPIO Configuration
    PB6     ------> I2C1_SCL
    PB7     ------> I2C1_SDA
    */
    GPIO_InitStruct.Pin = OLED_SCL_Pin|OLED_SDA_Pin;
 80009c8:	23c0      	movs	r3, #192	@ 0xc0
 80009ca:	61bb      	str	r3, [r7, #24]
    GPIO_InitStruct.Mode = GPIO_MODE_AF_OD;
 80009cc:	2312      	movs	r3, #18
 80009ce:	61fb      	str	r3, [r7, #28]
    GPIO_InitStruct.Speed = GPIO_SPEED_FREQ_HIGH;
 80009d0:	2303      	movs	r3, #3
 80009d2:	627b      	str	r3, [r7, #36]	@ 0x24
    HAL_GPIO_Init(GPIOB, &GPIO_InitStruct);
 80009d4:	f107 0318 	add.w	r3, r7, #24
 80009d8:	4619      	mov	r1, r3
 80009da:	4834      	ldr	r0, [pc, #208]	@ (8000aac <HAL_I2C_MspInit+0x11c>)
 80009dc:	f003 ffcc 	bl	8004978 <HAL_GPIO_Init>

    /* I2C1 clock enable */
    __HAL_RCC_I2C1_CLK_ENABLE();
 80009e0:	4b31      	ldr	r3, [pc, #196]	@ (8000aa8 <HAL_I2C_MspInit+0x118>)
 80009e2:	69db      	ldr	r3, [r3, #28]
 80009e4:	4a30      	ldr	r2, [pc, #192]	@ (8000aa8 <HAL_I2C_MspInit+0x118>)
 80009e6:	f443 1300 	orr.w	r3, r3, #2097152	@ 0x200000
 80009ea:	61d3      	str	r3, [r2, #28]
 80009ec:	4b2e      	ldr	r3, [pc, #184]	@ (8000aa8 <HAL_I2C_MspInit+0x118>)
 80009ee:	69db      	ldr	r3, [r3, #28]
 80009f0:	f403 1300 	and.w	r3, r3, #2097152	@ 0x200000
 80009f4:	613b      	str	r3, [r7, #16]
 80009f6:	693b      	ldr	r3, [r7, #16]

    /* I2C1 DMA Init */
    /* I2C1_TX Init */
    hdma_i2c1_tx.Instance = DMA1_Channel6;
 80009f8:	4b2d      	ldr	r3, [pc, #180]	@ (8000ab0 <HAL_I2C_MspInit+0x120>)
 80009fa:	4a2e      	ldr	r2, [pc, #184]	@ (8000ab4 <HAL_I2C_MspInit+0x124>)
 80009fc:	601a      	str	r2, [r3, #0]
    hdma_i2c1_tx.Init.Direction = DMA_MEMORY_TO_PERIPH;
 80009fe:	4b2c      	ldr	r3, [pc, #176]	@ (8000ab0 <HAL_I2C_MspInit+0x120>)
 8000a00:	2210      	movs	r2, #16
 8000a02:	605a      	str	r2, [r3, #4]
    hdma_i2c1_tx.Init.PeriphInc = DMA_PINC_DISABLE;
 8000a04:	4b2a      	ldr	r3, [pc, #168]	@ (8000ab0 <HAL_I2C_MspInit+0x120>)
 8000a06:	2200      	movs	r2, #0
 8000a08:	609a      	str	r2, [r3, #8]
    hdma_i2c1_tx.Init.MemInc = DMA_MINC_ENABLE;
 8000a0a:	4b29      	ldr	r3, [pc, #164]	@ (8000ab0 <HAL_I2C_MspInit+0x120>)
 8000a0c:	2280      	movs	r2, #128	@ 0x80
 8000a0e:	60da      	str	r2, [r3, #12]
    hdma_i2c1_tx.Init.PeriphDataAlignment = DMA_PDATAALIGN_BYTE;
 8000a10:	4b27      	ldr	r3, [pc, #156]	@ (8000ab0 <HAL_I2C_MspInit+0x120>)
 8000a12:	2200      	movs	r2, #0
 8000a14:	611a      	str	r2, [r3, #16]
    hdma_i2c1_tx.Init.MemDataAlignment = DMA_MDATAALIGN_BYTE;
 8000a16:	4b26      	ldr	r3, [pc, #152]	@ (8000ab0 <HAL_I2C_MspInit+0x120>)
 8000a18:	2200      	movs	r2, #0
 8000a1a:	615a      	str	r2, [r3, #20]
    hdma_i2c1_tx.Init.Mode = DMA_NORMAL;
 8000a1c:	4b24      	ldr	r3, [pc, #144]	@ (8000ab0 <HAL_I2C_MspInit+0x120>)
 8000a1e:	2200      	movs	r2, #0
 8000a20:	619a      	str	r2, [r3, #24]
    hdma_i2c1_tx.Init.Priority = DMA_PRIORITY_HIGH;
 8000a22:	4b23      	ldr	r3, [pc, #140]	@ (8000ab0 <HAL_I2C_MspInit+0x120>)
 8000a24:	f44f 5200 	mov.w	r2, #8192	@ 0x2000
 8000a28:	61da      	str	r2, [r3, #28]
    if (HAL_DMA_Init(&hdma_i2c1_tx) != HAL_OK)
 8000a2a:	4821      	ldr	r0, [pc, #132]	@ (8000ab0 <HAL_I2C_MspInit+0x120>)
 8000a2c:	f003 fe44 	bl	80046b8 <HAL_DMA_Init>
 8000a30:	4603      	mov	r3, r0
 8000a32:	2b00      	cmp	r3, #0
 8000a34:	d001      	beq.n	8000a3a <HAL_I2C_MspInit+0xaa>
    {
      Error_Handler();
 8000a36:	f000 f90e 	bl	8000c56 <Error_Handler>
    }

    __HAL_LINKDMA(i2cHandle,hdmatx,hdma_i2c1_tx);
 8000a3a:	687b      	ldr	r3, [r7, #4]
 8000a3c:	4a1c      	ldr	r2, [pc, #112]	@ (8000ab0 <HAL_I2C_MspInit+0x120>)
 8000a3e:	635a      	str	r2, [r3, #52]	@ 0x34
 8000a40:	4a1b      	ldr	r2, [pc, #108]	@ (8000ab0 <HAL_I2C_MspInit+0x120>)
 8000a42:	687b      	ldr	r3, [r7, #4]
 8000a44:	6253      	str	r3, [r2, #36]	@ 0x24
    __HAL_RCC_I2C2_CLK_ENABLE();
  /* USER CODE BEGIN I2C2_MspInit 1 */

  /* USER CODE END I2C2_MspInit 1 */
  }
}
 8000a46:	e029      	b.n	8000a9c <HAL_I2C_MspInit+0x10c>
  else if(i2cHandle->Instance==I2C2)
 8000a48:	687b      	ldr	r3, [r7, #4]
 8000a4a:	681b      	ldr	r3, [r3, #0]
 8000a4c:	4a1a      	ldr	r2, [pc, #104]	@ (8000ab8 <HAL_I2C_MspInit+0x128>)
 8000a4e:	4293      	cmp	r3, r2
 8000a50:	d124      	bne.n	8000a9c <HAL_I2C_MspInit+0x10c>
    __HAL_RCC_GPIOB_CLK_ENABLE();
 8000a52:	4b15      	ldr	r3, [pc, #84]	@ (8000aa8 <HAL_I2C_MspInit+0x118>)
 8000a54:	699b      	ldr	r3, [r3, #24]
 8000a56:	4a14      	ldr	r2, [pc, #80]	@ (8000aa8 <HAL_I2C_MspInit+0x118>)
 8000a58:	f043 0308 	orr.w	r3, r3, #8
 8000a5c:	6193      	str	r3, [r2, #24]
 8000a5e:	4b12      	ldr	r3, [pc, #72]	@ (8000aa8 <HAL_I2C_MspInit+0x118>)
 8000a60:	699b      	ldr	r3, [r3, #24]
 8000a62:	f003 0308 	and.w	r3, r3, #8
 8000a66:	60fb      	str	r3, [r7, #12]
 8000a68:	68fb      	ldr	r3, [r7, #12]
    GPIO_InitStruct.Pin = GYRO_SCL_Pin|GYRO_SDA_Pin;
 8000a6a:	f44f 6340 	mov.w	r3, #3072	@ 0xc00
 8000a6e:	61bb      	str	r3, [r7, #24]
    GPIO_InitStruct.Mode = GPIO_MODE_AF_OD;
 8000a70:	2312      	movs	r3, #18
 8000a72:	61fb      	str	r3, [r7, #28]
    GPIO_InitStruct.Speed = GPIO_SPEED_FREQ_HIGH;
 8000a74:	2303      	movs	r3, #3
 8000a76:	627b      	str	r3, [r7, #36]	@ 0x24
    HAL_GPIO_Init(GPIOB, &GPIO_InitStruct);
 8000a78:	f107 0318 	add.w	r3, r7, #24
 8000a7c:	4619      	mov	r1, r3
 8000a7e:	480b      	ldr	r0, [pc, #44]	@ (8000aac <HAL_I2C_MspInit+0x11c>)
 8000a80:	f003 ff7a 	bl	8004978 <HAL_GPIO_Init>
    __HAL_RCC_I2C2_CLK_ENABLE();
 8000a84:	4b08      	ldr	r3, [pc, #32]	@ (8000aa8 <HAL_I2C_MspInit+0x118>)
 8000a86:	69db      	ldr	r3, [r3, #28]
 8000a88:	4a07      	ldr	r2, [pc, #28]	@ (8000aa8 <HAL_I2C_MspInit+0x118>)
 8000a8a:	f443 0380 	orr.w	r3, r3, #4194304	@ 0x400000
 8000a8e:	61d3      	str	r3, [r2, #28]
 8000a90:	4b05      	ldr	r3, [pc, #20]	@ (8000aa8 <HAL_I2C_MspInit+0x118>)
 8000a92:	69db      	ldr	r3, [r3, #28]
 8000a94:	f403 0380 	and.w	r3, r3, #4194304	@ 0x400000
 8000a98:	60bb      	str	r3, [r7, #8]
 8000a9a:	68bb      	ldr	r3, [r7, #8]
}
 8000a9c:	bf00      	nop
 8000a9e:	3728      	adds	r7, #40	@ 0x28
 8000aa0:	46bd      	mov	sp, r7
 8000aa2:	bd80      	pop	{r7, pc}
 8000aa4:	40005400 	.word	0x40005400
 8000aa8:	40021000 	.word	0x40021000
 8000aac:	40010c00 	.word	0x40010c00
 8000ab0:	20000138 	.word	0x20000138
 8000ab4:	4002006c 	.word	0x4002006c
 8000ab8:	40005800 	.word	0x40005800

08000abc <main>:
/**
  * @brief  The application entry point.
  * @retval int
  */
int main(void)
{
 8000abc:	b580      	push	{r7, lr}
 8000abe:	af00      	add	r7, sp, #0
  /* USER CODE END 1 */

  /* MCU Configuration--------------------------------------------------------*/

  /* Reset of all peripherals, Initializes the Flash interface and the Systick. */
  HAL_Init();
 8000ac0:	f003 fc66 	bl	8004390 <HAL_Init>
  /* USER CODE BEGIN Init */

  /* USER CODE END Init */

  /* Configure the system clock */
  SystemClock_Config();
 8000ac4:	f000 f882 	bl	8000bcc <SystemClock_Config>
  /* USER CODE BEGIN SysInit */

  /* USER CODE END SysInit */

  /* Initialize all configured peripherals */
  MX_GPIO_Init();
 8000ac8:	f7ff fea0 	bl	800080c <MX_GPIO_Init>
  MX_DMA_Init();
 8000acc:	f7ff fe80 	bl	80007d0 <MX_DMA_Init>
  MX_I2C1_Init();
 8000ad0:	f7ff ff02 	bl	80008d8 <MX_I2C1_Init>
  MX_TIM1_Init();
 8000ad4:	f003 fa9c 	bl	8004010 <MX_TIM1_Init>
  MX_I2C2_Init();
 8000ad8:	f7ff ff2c 	bl	8000934 <MX_I2C2_Init>
  MX_TIM3_Init();
 8000adc:	f003 fb3a 	bl	8004154 <MX_TIM3_Init>
  /* USER CODE BEGIN 2 */
  OLED_Init(); // 初始化OLED
 8000ae0:	f000 fa9c 	bl	800101c <OLED_Init>
  OLED_InitBuffer(); // 初始化双缓冲
 8000ae4:	f000 f8be 	bl	8000c64 <OLED_InitBuffer>
  OLED_ClearBuffer(); // 清空缓冲区
 8000ae8:	f000 f8f0 	bl	8000ccc <OLED_ClearBuffer>
  
  OLED_EnableDiffMode(1);  // 启用差分更新
 8000aec:	2001      	movs	r0, #1
 8000aee:	f001 ffd7 	bl	8002aa0 <OLED_EnableDiffMode>
  OLED_EnableFastUpdate(1); // 启用快速更新
 8000af2:	2001      	movs	r0, #1
 8000af4:	f001 fff2 	bl	8002adc <OLED_EnableFastUpdate>

  
  // HAL_TIMEx_PWMN_Start(&htim1, TIM_CHANNEL_3); // 启动PWM
  // HAL_TIM_PWM_Start(&htim1, TIM_CHANNEL_3); // 启动PWM
  HAL_TIM_PWM_Start(&htim1, TIM_CHANNEL_2); // 启动PWM
 8000af8:	2104      	movs	r1, #4
 8000afa:	4829      	ldr	r0, [pc, #164]	@ (8000ba0 <main+0xe4>)
 8000afc:	f005 fa30 	bl	8005f60 <HAL_TIM_PWM_Start>
  HAL_TIM_Encoder_Start(&htim3, TIM_CHANNEL_1); // 启动编码器
 8000b00:	2100      	movs	r1, #0
 8000b02:	4828      	ldr	r0, [pc, #160]	@ (8000ba4 <main+0xe8>)
 8000b04:	f005 fb70 	bl	80061e8 <HAL_TIM_Encoder_Start>
  HAL_TIM_Encoder_Start(&htim3, TIM_CHANNEL_2); // 启动编码器
 8000b08:	2104      	movs	r1, #4
 8000b0a:	4826      	ldr	r0, [pc, #152]	@ (8000ba4 <main+0xe8>)
 8000b0c:	f005 fb6c 	bl	80061e8 <HAL_TIM_Encoder_Start>

  OLED_InitAnimationManager(&g_AnimationManager); // 初始化动画管理器
 8000b10:	4825      	ldr	r0, [pc, #148]	@ (8000ba8 <main+0xec>)
 8000b12:	f002 ffbf 	bl	8003a94 <OLED_InitAnimationManager>
  OLED_InitAnimationManager(&Menu_AnimationManager); // 初始化菜单动画管理器
 8000b16:	4825      	ldr	r0, [pc, #148]	@ (8000bac <main+0xf0>)
 8000b18:	f002 ffbc 	bl	8003a94 <OLED_InitAnimationManager>
  OLED_InitAnimationManager(&Games_AnimationManager); // 初始化游戏动画管理器
 8000b1c:	4824      	ldr	r0, [pc, #144]	@ (8000bb0 <main+0xf4>)
 8000b1e:	f002 ffb9 	bl	8003a94 <OLED_InitAnimationManager>
  OLED_InitAnimationManager(&Tools_AnimationManager); // 初始化工具动画管理器
 8000b22:	4824      	ldr	r0, [pc, #144]	@ (8000bb4 <main+0xf8>)
 8000b24:	f002 ffb6 	bl	8003a94 <OLED_InitAnimationManager>
  OLED_InitAnimationManager(&Settings_AnimationManager); // 初始化设置动画管理器
 8000b28:	4823      	ldr	r0, [pc, #140]	@ (8000bb8 <main+0xfc>)
 8000b2a:	f002 ffb3 	bl	8003a94 <OLED_InitAnimationManager>
  OLED_InitAnimationManager(&About_AnimationManager); // 初始化关于动画管理器
 8000b2e:	4823      	ldr	r0, [pc, #140]	@ (8000bbc <main+0x100>)
 8000b30:	f002 ffb0 	bl	8003a94 <OLED_InitAnimationManager>
  OLED_InitAnimationManager(&Status_AnimationManager); // 初始化状态动画管理器
 8000b34:	4822      	ldr	r0, [pc, #136]	@ (8000bc0 <main+0x104>)
 8000b36:	f002 ffad 	bl	8003a94 <OLED_InitAnimationManager>
  OLED_InitAnimationManager(&g_Title_AnimationManager); // 初始化标题动画管理器
 8000b3a:	4822      	ldr	r0, [pc, #136]	@ (8000bc4 <main+0x108>)
 8000b3c:	f002 ffaa 	bl	8003a94 <OLED_InitAnimationManager>
  __HAL_TIM_SET_COUNTER(&htim3, 32767);
 8000b40:	4b18      	ldr	r3, [pc, #96]	@ (8000ba4 <main+0xe8>)
 8000b42:	681b      	ldr	r3, [r3, #0]
 8000b44:	f647 72ff 	movw	r2, #32767	@ 0x7fff
 8000b48:	625a      	str	r2, [r3, #36]	@ 0x24
  /* Infinite loop */
  /* USER CODE BEGIN WHILE */
  while (1)
  {    
    #pragma region OLED_UI_SETTINGS // UI设置
    OLED_ClearBuffer();
 8000b4a:	f000 f8bf 	bl	8000ccc <OLED_ClearBuffer>
    
    System_UI_Loop(); // UI循环
 8000b4e:	f000 fd93 	bl	8001678 <System_UI_Loop>
    
    
    
    OLED_OptimizedDisplayFPS(80, 56); // 显示帧率
 8000b52:	2138      	movs	r1, #56	@ 0x38
 8000b54:	2050      	movs	r0, #80	@ 0x50
 8000b56:	f002 f86b 	bl	8002c30 <OLED_OptimizedDisplayFPS>
    count = __HAL_TIM_GET_COUNTER(&htim3); // 获取编码器计数值 1圈40
 8000b5a:	4b12      	ldr	r3, [pc, #72]	@ (8000ba4 <main+0xe8>)
 8000b5c:	681b      	ldr	r3, [r3, #0]
 8000b5e:	6a5b      	ldr	r3, [r3, #36]	@ 0x24
 8000b60:	b29a      	uxth	r2, r3
 8000b62:	4b19      	ldr	r3, [pc, #100]	@ (8000bc8 <main+0x10c>)
 8000b64:	801a      	strh	r2, [r3, #0]
    OLED_UpdateAnimationManager(&Menu_AnimationManager); // 更新菜单动画管理器
 8000b66:	4811      	ldr	r0, [pc, #68]	@ (8000bac <main+0xf0>)
 8000b68:	f003 f846 	bl	8003bf8 <OLED_UpdateAnimationManager>
    OLED_UpdateAnimationManager(&g_AnimationManager); // 更新动画管理器
 8000b6c:	480e      	ldr	r0, [pc, #56]	@ (8000ba8 <main+0xec>)
 8000b6e:	f003 f843 	bl	8003bf8 <OLED_UpdateAnimationManager>
    OLED_UpdateAnimationManager(&Games_AnimationManager); // 更新游戏动画管理器
 8000b72:	480f      	ldr	r0, [pc, #60]	@ (8000bb0 <main+0xf4>)
 8000b74:	f003 f840 	bl	8003bf8 <OLED_UpdateAnimationManager>
    OLED_UpdateAnimationManager(&Tools_AnimationManager); // 更新工具动画管理器
 8000b78:	480e      	ldr	r0, [pc, #56]	@ (8000bb4 <main+0xf8>)
 8000b7a:	f003 f83d 	bl	8003bf8 <OLED_UpdateAnimationManager>
    OLED_UpdateAnimationManager(&Settings_AnimationManager); // 更新设置动画管理器
 8000b7e:	480e      	ldr	r0, [pc, #56]	@ (8000bb8 <main+0xfc>)
 8000b80:	f003 f83a 	bl	8003bf8 <OLED_UpdateAnimationManager>
    OLED_UpdateAnimationManager(&About_AnimationManager); // 更新关于动画管理器
 8000b84:	480d      	ldr	r0, [pc, #52]	@ (8000bbc <main+0x100>)
 8000b86:	f003 f837 	bl	8003bf8 <OLED_UpdateAnimationManager>
    OLED_UpdateAnimationManager(&Status_AnimationManager); // 更新状态动画管理器
 8000b8a:	480d      	ldr	r0, [pc, #52]	@ (8000bc0 <main+0x104>)
 8000b8c:	f003 f834 	bl	8003bf8 <OLED_UpdateAnimationManager>
    OLED_UpdateAnimationManager(&g_Title_AnimationManager); // 更新标题动画管理器
 8000b90:	480c      	ldr	r0, [pc, #48]	@ (8000bc4 <main+0x108>)
 8000b92:	f003 f831 	bl	8003bf8 <OLED_UpdateAnimationManager>
    OLED_SmartUpdate(); // 智能更新显示
 8000b96:	f001 ffb1 	bl	8002afc <OLED_SmartUpdate>
    OLED_ClearBuffer();
 8000b9a:	bf00      	nop
 8000b9c:	e7d5      	b.n	8000b4a <main+0x8e>
 8000b9e:	bf00      	nop
 8000ba0:	20003d48 	.word	0x20003d48
 8000ba4:	20003d90 	.word	0x20003d90
 8000ba8:	20003750 	.word	0x20003750
 8000bac:	20000da4 	.word	0x20000da4
 8000bb0:	20001398 	.word	0x20001398
 8000bb4:	2000198c 	.word	0x2000198c
 8000bb8:	20001f80 	.word	0x20001f80
 8000bbc:	20002574 	.word	0x20002574
 8000bc0:	20002b68 	.word	0x20002b68
 8000bc4:	2000315c 	.word	0x2000315c
 8000bc8:	2000017c 	.word	0x2000017c

08000bcc <SystemClock_Config>:
/**
  * @brief System Clock Configuration
  * @retval None
  */
void SystemClock_Config(void)
{
 8000bcc:	b580      	push	{r7, lr}
 8000bce:	b090      	sub	sp, #64	@ 0x40
 8000bd0:	af00      	add	r7, sp, #0
  RCC_OscInitTypeDef RCC_OscInitStruct = {0};
 8000bd2:	f107 0318 	add.w	r3, r7, #24
 8000bd6:	2228      	movs	r2, #40	@ 0x28
 8000bd8:	2100      	movs	r1, #0
 8000bda:	4618      	mov	r0, r3
 8000bdc:	f006 f89e 	bl	8006d1c <memset>
  RCC_ClkInitTypeDef RCC_ClkInitStruct = {0};
 8000be0:	1d3b      	adds	r3, r7, #4
 8000be2:	2200      	movs	r2, #0
 8000be4:	601a      	str	r2, [r3, #0]
 8000be6:	605a      	str	r2, [r3, #4]
 8000be8:	609a      	str	r2, [r3, #8]
 8000bea:	60da      	str	r2, [r3, #12]
 8000bec:	611a      	str	r2, [r3, #16]

  /** Initializes the RCC Oscillators according to the specified parameters
  * in the RCC_OscInitTypeDef structure.
  */
  RCC_OscInitStruct.OscillatorType = RCC_OSCILLATORTYPE_HSE;
 8000bee:	2301      	movs	r3, #1
 8000bf0:	61bb      	str	r3, [r7, #24]
  RCC_OscInitStruct.HSEState = RCC_HSE_ON;
 8000bf2:	f44f 3380 	mov.w	r3, #65536	@ 0x10000
 8000bf6:	61fb      	str	r3, [r7, #28]
  RCC_OscInitStruct.HSEPredivValue = RCC_HSE_PREDIV_DIV1;
 8000bf8:	2300      	movs	r3, #0
 8000bfa:	623b      	str	r3, [r7, #32]
  RCC_OscInitStruct.HSIState = RCC_HSI_ON;
 8000bfc:	2301      	movs	r3, #1
 8000bfe:	62bb      	str	r3, [r7, #40]	@ 0x28
  RCC_OscInitStruct.PLL.PLLState = RCC_PLL_ON;
 8000c00:	2302      	movs	r3, #2
 8000c02:	637b      	str	r3, [r7, #52]	@ 0x34
  RCC_OscInitStruct.PLL.PLLSource = RCC_PLLSOURCE_HSE;
 8000c04:	f44f 3380 	mov.w	r3, #65536	@ 0x10000
 8000c08:	63bb      	str	r3, [r7, #56]	@ 0x38
  RCC_OscInitStruct.PLL.PLLMUL = RCC_PLL_MUL9;
 8000c0a:	f44f 13e0 	mov.w	r3, #1835008	@ 0x1c0000
 8000c0e:	63fb      	str	r3, [r7, #60]	@ 0x3c
  if (HAL_RCC_OscConfig(&RCC_OscInitStruct) != HAL_OK)
 8000c10:	f107 0318 	add.w	r3, r7, #24
 8000c14:	4618      	mov	r0, r3
 8000c16:	f004 fcff 	bl	8005618 <HAL_RCC_OscConfig>
 8000c1a:	4603      	mov	r3, r0
 8000c1c:	2b00      	cmp	r3, #0
 8000c1e:	d001      	beq.n	8000c24 <SystemClock_Config+0x58>
  {
    Error_Handler();
 8000c20:	f000 f819 	bl	8000c56 <Error_Handler>
  }

  /** Initializes the CPU, AHB and APB buses clocks
  */
  RCC_ClkInitStruct.ClockType = RCC_CLOCKTYPE_HCLK|RCC_CLOCKTYPE_SYSCLK
 8000c24:	230f      	movs	r3, #15
 8000c26:	607b      	str	r3, [r7, #4]
                              |RCC_CLOCKTYPE_PCLK1|RCC_CLOCKTYPE_PCLK2;
  RCC_ClkInitStruct.SYSCLKSource = RCC_SYSCLKSOURCE_PLLCLK;
 8000c28:	2302      	movs	r3, #2
 8000c2a:	60bb      	str	r3, [r7, #8]
  RCC_ClkInitStruct.AHBCLKDivider = RCC_SYSCLK_DIV1;
 8000c2c:	2300      	movs	r3, #0
 8000c2e:	60fb      	str	r3, [r7, #12]
  RCC_ClkInitStruct.APB1CLKDivider = RCC_HCLK_DIV2;
 8000c30:	f44f 6380 	mov.w	r3, #1024	@ 0x400
 8000c34:	613b      	str	r3, [r7, #16]
  RCC_ClkInitStruct.APB2CLKDivider = RCC_HCLK_DIV1;
 8000c36:	2300      	movs	r3, #0
 8000c38:	617b      	str	r3, [r7, #20]

  if (HAL_RCC_ClockConfig(&RCC_ClkInitStruct, FLASH_LATENCY_2) != HAL_OK)
 8000c3a:	1d3b      	adds	r3, r7, #4
 8000c3c:	2102      	movs	r1, #2
 8000c3e:	4618      	mov	r0, r3
 8000c40:	f004 ff6c 	bl	8005b1c <HAL_RCC_ClockConfig>
 8000c44:	4603      	mov	r3, r0
 8000c46:	2b00      	cmp	r3, #0
 8000c48:	d001      	beq.n	8000c4e <SystemClock_Config+0x82>
  {
    Error_Handler();
 8000c4a:	f000 f804 	bl	8000c56 <Error_Handler>
  }
}
 8000c4e:	bf00      	nop
 8000c50:	3740      	adds	r7, #64	@ 0x40
 8000c52:	46bd      	mov	sp, r7
 8000c54:	bd80      	pop	{r7, pc}

08000c56 <Error_Handler>:
/**
  * @brief  This function is executed in case of error occurrence.
  * @retval None
  */
void Error_Handler(void)
{
 8000c56:	b480      	push	{r7}
 8000c58:	af00      	add	r7, sp, #0
  \details Disables IRQ interrupts by setting the I-bit in the CPSR.
           Can only be executed in Privileged modes.
 */
__STATIC_FORCEINLINE void __disable_irq(void)
{
  __ASM volatile ("cpsid i" : : : "memory");
 8000c5a:	b672      	cpsid	i
}
 8000c5c:	bf00      	nop
  /* USER CODE BEGIN Error_Handler_Debug */
  /* User can add his own implementation to report the HAL error return state */
  __disable_irq();
  while (1)
 8000c5e:	bf00      	nop
 8000c60:	e7fd      	b.n	8000c5e <Error_Handler+0x8>
	...

08000c64 <OLED_InitBuffer>:
        0x22, 0x00, 0x07  // 页地址范围: 0-7
};

// 初始化缓冲区
void OLED_InitBuffer(void)
{
 8000c64:	b580      	push	{r7, lr}
 8000c66:	b082      	sub	sp, #8
 8000c68:	af00      	add	r7, sp, #0
    // 清空缓冲区
    memset(OLED_BackBuffer, 0, sizeof(OLED_BackBuffer));
 8000c6a:	f44f 6280 	mov.w	r2, #1024	@ 0x400
 8000c6e:	2100      	movs	r1, #0
 8000c70:	4811      	ldr	r0, [pc, #68]	@ (8000cb8 <OLED_InitBuffer+0x54>)
 8000c72:	f006 f853 	bl	8006d1c <memset>
    memset(OLED_FrontBuffer, 0, sizeof(OLED_FrontBuffer));
 8000c76:	f240 4201 	movw	r2, #1025	@ 0x401
 8000c7a:	2100      	movs	r1, #0
 8000c7c:	480f      	ldr	r0, [pc, #60]	@ (8000cbc <OLED_InitBuffer+0x58>)
 8000c7e:	f006 f84d 	bl	8006d1c <memset>

    // 初始化第一个字节为数据控制字节
    OLED_FrontBuffer[0] = 0x40; // 数据控制字节：Co=0, D/C#=1 (数据)
 8000c82:	4b0e      	ldr	r3, [pc, #56]	@ (8000cbc <OLED_InitBuffer+0x58>)
 8000c84:	2240      	movs	r2, #64	@ 0x40
 8000c86:	701a      	strb	r2, [r3, #0]

    // 初始化状态变量
    oled_update_flag = OLED_READY;
 8000c88:	4b0d      	ldr	r3, [pc, #52]	@ (8000cc0 <OLED_InitBuffer+0x5c>)
 8000c8a:	2200      	movs	r2, #0
 8000c8c:	701a      	strb	r2, [r3, #0]
    oled_dma_busy = OLED_READY;
 8000c8e:	4b0d      	ldr	r3, [pc, #52]	@ (8000cc4 <OLED_InitBuffer+0x60>)
 8000c90:	2200      	movs	r2, #0
 8000c92:	701a      	strb	r2, [r3, #0]

    // 将所有页面标记为脏（需要更新）
    for (uint8_t i = 0; i < OLED_PAGES; i++)
 8000c94:	2300      	movs	r3, #0
 8000c96:	71fb      	strb	r3, [r7, #7]
 8000c98:	e006      	b.n	8000ca8 <OLED_InitBuffer+0x44>
    {
        oled_dirty_pages[i] = 1;
 8000c9a:	79fb      	ldrb	r3, [r7, #7]
 8000c9c:	4a0a      	ldr	r2, [pc, #40]	@ (8000cc8 <OLED_InitBuffer+0x64>)
 8000c9e:	2101      	movs	r1, #1
 8000ca0:	54d1      	strb	r1, [r2, r3]
    for (uint8_t i = 0; i < OLED_PAGES; i++)
 8000ca2:	79fb      	ldrb	r3, [r7, #7]
 8000ca4:	3301      	adds	r3, #1
 8000ca6:	71fb      	strb	r3, [r7, #7]
 8000ca8:	79fb      	ldrb	r3, [r7, #7]
 8000caa:	2b07      	cmp	r3, #7
 8000cac:	d9f5      	bls.n	8000c9a <OLED_InitBuffer+0x36>
    }
}
 8000cae:	bf00      	nop
 8000cb0:	bf00      	nop
 8000cb2:	3708      	adds	r7, #8
 8000cb4:	46bd      	mov	sp, r7
 8000cb6:	bd80      	pop	{r7, pc}
 8000cb8:	20000190 	.word	0x20000190
 8000cbc:	20000590 	.word	0x20000590
 8000cc0:	20000184 	.word	0x20000184
 8000cc4:	20000185 	.word	0x20000185
 8000cc8:	20000188 	.word	0x20000188

08000ccc <OLED_ClearBuffer>:

// 清空缓冲区
void OLED_ClearBuffer(void)
{
 8000ccc:	b580      	push	{r7, lr}
 8000cce:	b082      	sub	sp, #8
 8000cd0:	af00      	add	r7, sp, #0
    // 重置缓冲区为全0 (全黑)
    memset(OLED_BackBuffer, 0, sizeof(OLED_BackBuffer));
 8000cd2:	f44f 6280 	mov.w	r2, #1024	@ 0x400
 8000cd6:	2100      	movs	r1, #0
 8000cd8:	480a      	ldr	r0, [pc, #40]	@ (8000d04 <OLED_ClearBuffer+0x38>)
 8000cda:	f006 f81f 	bl	8006d1c <memset>

    // 将所有页面标记为脏（需要更新）
    for (uint8_t i = 0; i < OLED_PAGES; i++)
 8000cde:	2300      	movs	r3, #0
 8000ce0:	71fb      	strb	r3, [r7, #7]
 8000ce2:	e006      	b.n	8000cf2 <OLED_ClearBuffer+0x26>
    {
        oled_dirty_pages[i] = 1;
 8000ce4:	79fb      	ldrb	r3, [r7, #7]
 8000ce6:	4a08      	ldr	r2, [pc, #32]	@ (8000d08 <OLED_ClearBuffer+0x3c>)
 8000ce8:	2101      	movs	r1, #1
 8000cea:	54d1      	strb	r1, [r2, r3]
    for (uint8_t i = 0; i < OLED_PAGES; i++)
 8000cec:	79fb      	ldrb	r3, [r7, #7]
 8000cee:	3301      	adds	r3, #1
 8000cf0:	71fb      	strb	r3, [r7, #7]
 8000cf2:	79fb      	ldrb	r3, [r7, #7]
 8000cf4:	2b07      	cmp	r3, #7
 8000cf6:	d9f5      	bls.n	8000ce4 <OLED_ClearBuffer+0x18>
    }
}
 8000cf8:	bf00      	nop
 8000cfa:	bf00      	nop
 8000cfc:	3708      	adds	r7, #8
 8000cfe:	46bd      	mov	sp, r7
 8000d00:	bd80      	pop	{r7, pc}
 8000d02:	bf00      	nop
 8000d04:	20000190 	.word	0x20000190
 8000d08:	20000188 	.word	0x20000188

08000d0c <OLED_IsBusy>:

uint8_t OLED_IsBusy(void)
{
 8000d0c:	b580      	push	{r7, lr}
 8000d0e:	b082      	sub	sp, #8
 8000d10:	af00      	add	r7, sp, #0
    // 如果标记为忙，检查是否已经过了足够时间
    if (oled_update_flag)
 8000d12:	4b0f      	ldr	r3, [pc, #60]	@ (8000d50 <OLED_IsBusy+0x44>)
 8000d14:	781b      	ldrb	r3, [r3, #0]
 8000d16:	b2db      	uxtb	r3, r3
 8000d18:	2b00      	cmp	r3, #0
 8000d1a:	d007      	beq.n	8000d2c <OLED_IsBusy+0x20>
    {
        // SSD1315/SSD1306 典型帧率约为60Hz，每帧约16.7ms
        // 可以根据需要调整刷新率，减小此值可以提高帧率
        uint32_t current_time = HAL_GetTick();
 8000d1c:	f003 fb90 	bl	8004440 <HAL_GetTick>
 8000d20:	6078      	str	r0, [r7, #4]
        if (current_time - oled_last_update_time >= 0)
 8000d22:	4b0c      	ldr	r3, [pc, #48]	@ (8000d54 <OLED_IsBusy+0x48>)
 8000d24:	681b      	ldr	r3, [r3, #0]
        {
            oled_update_flag = OLED_READY; // 已经过了足够时间，不再忙
 8000d26:	4b0a      	ldr	r3, [pc, #40]	@ (8000d50 <OLED_IsBusy+0x44>)
 8000d28:	2200      	movs	r2, #0
 8000d2a:	701a      	strb	r2, [r3, #0]
        }
    }

    // 如果DMA传输正在进行，也视为忙
    return (oled_update_flag || oled_dma_busy);
 8000d2c:	4b08      	ldr	r3, [pc, #32]	@ (8000d50 <OLED_IsBusy+0x44>)
 8000d2e:	781b      	ldrb	r3, [r3, #0]
 8000d30:	b2db      	uxtb	r3, r3
 8000d32:	2b00      	cmp	r3, #0
 8000d34:	d104      	bne.n	8000d40 <OLED_IsBusy+0x34>
 8000d36:	4b08      	ldr	r3, [pc, #32]	@ (8000d58 <OLED_IsBusy+0x4c>)
 8000d38:	781b      	ldrb	r3, [r3, #0]
 8000d3a:	b2db      	uxtb	r3, r3
 8000d3c:	2b00      	cmp	r3, #0
 8000d3e:	d001      	beq.n	8000d44 <OLED_IsBusy+0x38>
 8000d40:	2301      	movs	r3, #1
 8000d42:	e000      	b.n	8000d46 <OLED_IsBusy+0x3a>
 8000d44:	2300      	movs	r3, #0
 8000d46:	b2db      	uxtb	r3, r3
}
 8000d48:	4618      	mov	r0, r3
 8000d4a:	3708      	adds	r7, #8
 8000d4c:	46bd      	mov	sp, r7
 8000d4e:	bd80      	pop	{r7, pc}
 8000d50:	20000184 	.word	0x20000184
 8000d54:	20000180 	.word	0x20000180
 8000d58:	20000185 	.word	0x20000185

08000d5c <OLED_UpdateDisplayVSync>:

void OLED_UpdateDisplayVSync(void)
{
 8000d5c:	b580      	push	{r7, lr}
 8000d5e:	b084      	sub	sp, #16
 8000d60:	af02      	add	r7, sp, #8
    // 等待上一次更新完成
    while (OLED_IsBusy())
 8000d62:	bf00      	nop
 8000d64:	f7ff ffd2 	bl	8000d0c <OLED_IsBusy>
 8000d68:	4603      	mov	r3, r0
 8000d6a:	2b00      	cmp	r3, #0
 8000d6c:	d1fa      	bne.n	8000d64 <OLED_UpdateDisplayVSync+0x8>
    {
        // 可以加入短暂延时或者让出CPU，但通常不会停留很久
    }

    oled_update_flag = OLED_BUSY;
 8000d6e:	4b1f      	ldr	r3, [pc, #124]	@ (8000dec <OLED_UpdateDisplayVSync+0x90>)
 8000d70:	2201      	movs	r2, #1
 8000d72:	701a      	strb	r2, [r3, #0]
    oled_last_update_time = HAL_GetTick();
 8000d74:	f003 fb64 	bl	8004440 <HAL_GetTick>
 8000d78:	4603      	mov	r3, r0
 8000d7a:	4a1d      	ldr	r2, [pc, #116]	@ (8000df0 <OLED_UpdateDisplayVSync+0x94>)
 8000d7c:	6013      	str	r3, [r2, #0]

    OLED_FrontBuffer[0] = 0x40;                                             // 数据控制字节：Co=0, D/C#=1 (数据)
 8000d7e:	4b1d      	ldr	r3, [pc, #116]	@ (8000df4 <OLED_UpdateDisplayVSync+0x98>)
 8000d80:	2240      	movs	r2, #64	@ 0x40
 8000d82:	701a      	strb	r2, [r3, #0]
    memcpy(OLED_FrontBuffer + 1, OLED_BackBuffer, OLED_WIDTH * OLED_PAGES); // 复制当前缓冲区到前缓冲区
 8000d84:	4a1c      	ldr	r2, [pc, #112]	@ (8000df8 <OLED_UpdateDisplayVSync+0x9c>)
 8000d86:	4b1d      	ldr	r3, [pc, #116]	@ (8000dfc <OLED_UpdateDisplayVSync+0xa0>)
 8000d88:	4610      	mov	r0, r2
 8000d8a:	4619      	mov	r1, r3
 8000d8c:	f44f 6380 	mov.w	r3, #1024	@ 0x400
 8000d90:	461a      	mov	r2, r3
 8000d92:	f006 f80b 	bl	8006dac <memcpy>

    // 一次性发送所有命令
    for (uint8_t i = 0; i < sizeof(cmds); i++)
 8000d96:	2300      	movs	r3, #0
 8000d98:	71fb      	strb	r3, [r7, #7]
 8000d9a:	e008      	b.n	8000dae <OLED_UpdateDisplayVSync+0x52>
    {
        OLED_SendCommand(cmds[i]);
 8000d9c:	79fb      	ldrb	r3, [r7, #7]
 8000d9e:	4a18      	ldr	r2, [pc, #96]	@ (8000e00 <OLED_UpdateDisplayVSync+0xa4>)
 8000da0:	5cd3      	ldrb	r3, [r2, r3]
 8000da2:	4618      	mov	r0, r3
 8000da4:	f000 f920 	bl	8000fe8 <OLED_SendCommand>
    for (uint8_t i = 0; i < sizeof(cmds); i++)
 8000da8:	79fb      	ldrb	r3, [r7, #7]
 8000daa:	3301      	adds	r3, #1
 8000dac:	71fb      	strb	r3, [r7, #7]
 8000dae:	79fb      	ldrb	r3, [r7, #7]
 8000db0:	2b07      	cmp	r3, #7
 8000db2:	d9f3      	bls.n	8000d9c <OLED_UpdateDisplayVSync+0x40>
    }


    HAL_I2C_Master_Transmit(&hi2c1, OLED_ADDR << 1, OLED_FrontBuffer, OLED_WIDTH * OLED_PAGES + 1, HAL_MAX_DELAY);
 8000db4:	f04f 33ff 	mov.w	r3, #4294967295
 8000db8:	9300      	str	r3, [sp, #0]
 8000dba:	f240 4301 	movw	r3, #1025	@ 0x401
 8000dbe:	4a0d      	ldr	r2, [pc, #52]	@ (8000df4 <OLED_UpdateDisplayVSync+0x98>)
 8000dc0:	2178      	movs	r1, #120	@ 0x78
 8000dc2:	4810      	ldr	r0, [pc, #64]	@ (8000e04 <OLED_UpdateDisplayVSync+0xa8>)
 8000dc4:	f004 f8d0 	bl	8004f68 <HAL_I2C_Master_Transmit>

    // 重置所有脏页标记
    for (uint8_t i = 0; i < OLED_PAGES; i++)
 8000dc8:	2300      	movs	r3, #0
 8000dca:	71bb      	strb	r3, [r7, #6]
 8000dcc:	e006      	b.n	8000ddc <OLED_UpdateDisplayVSync+0x80>
    {
        oled_dirty_pages[i] = 0;
 8000dce:	79bb      	ldrb	r3, [r7, #6]
 8000dd0:	4a0d      	ldr	r2, [pc, #52]	@ (8000e08 <OLED_UpdateDisplayVSync+0xac>)
 8000dd2:	2100      	movs	r1, #0
 8000dd4:	54d1      	strb	r1, [r2, r3]
    for (uint8_t i = 0; i < OLED_PAGES; i++)
 8000dd6:	79bb      	ldrb	r3, [r7, #6]
 8000dd8:	3301      	adds	r3, #1
 8000dda:	71bb      	strb	r3, [r7, #6]
 8000ddc:	79bb      	ldrb	r3, [r7, #6]
 8000dde:	2b07      	cmp	r3, #7
 8000de0:	d9f5      	bls.n	8000dce <OLED_UpdateDisplayVSync+0x72>
    }
}
 8000de2:	bf00      	nop
 8000de4:	bf00      	nop
 8000de6:	3708      	adds	r7, #8
 8000de8:	46bd      	mov	sp, r7
 8000dea:	bd80      	pop	{r7, pc}
 8000dec:	20000184 	.word	0x20000184
 8000df0:	20000180 	.word	0x20000180
 8000df4:	20000590 	.word	0x20000590
 8000df8:	20000591 	.word	0x20000591
 8000dfc:	20000190 	.word	0x20000190
 8000e00:	08008f04 	.word	0x08008f04
 8000e04:	20000090 	.word	0x20000090
 8000e08:	20000188 	.word	0x20000188

08000e0c <OLED_UpdateDisplayPartial>:
    }
}

// 局部更新显示函数
void OLED_UpdateDisplayPartial(uint8_t startPage, uint8_t endPage)
{
 8000e0c:	b580      	push	{r7, lr}
 8000e0e:	b086      	sub	sp, #24
 8000e10:	af02      	add	r7, sp, #8
 8000e12:	4603      	mov	r3, r0
 8000e14:	460a      	mov	r2, r1
 8000e16:	71fb      	strb	r3, [r7, #7]
 8000e18:	4613      	mov	r3, r2
 8000e1a:	71bb      	strb	r3, [r7, #6]
    // 边界检查
    if (startPage >= OLED_PAGES || endPage >= OLED_PAGES || startPage > endPage)
 8000e1c:	79fb      	ldrb	r3, [r7, #7]
 8000e1e:	2b07      	cmp	r3, #7
 8000e20:	d85c      	bhi.n	8000edc <OLED_UpdateDisplayPartial+0xd0>
 8000e22:	79bb      	ldrb	r3, [r7, #6]
 8000e24:	2b07      	cmp	r3, #7
 8000e26:	d859      	bhi.n	8000edc <OLED_UpdateDisplayPartial+0xd0>
 8000e28:	79fa      	ldrb	r2, [r7, #7]
 8000e2a:	79bb      	ldrb	r3, [r7, #6]
 8000e2c:	429a      	cmp	r2, r3
 8000e2e:	d855      	bhi.n	8000edc <OLED_UpdateDisplayPartial+0xd0>
        return;

    // 等待上一次更新完成
    while (OLED_IsBusy())
 8000e30:	bf00      	nop
 8000e32:	f7ff ff6b 	bl	8000d0c <OLED_IsBusy>
 8000e36:	4603      	mov	r3, r0
 8000e38:	2b00      	cmp	r3, #0
 8000e3a:	d1fa      	bne.n	8000e32 <OLED_UpdateDisplayPartial+0x26>
    {
        // 可以加入短暂延时或者让出CPU
    }

    oled_update_flag = OLED_BUSY;
 8000e3c:	4b29      	ldr	r3, [pc, #164]	@ (8000ee4 <OLED_UpdateDisplayPartial+0xd8>)
 8000e3e:	2201      	movs	r2, #1
 8000e40:	701a      	strb	r2, [r3, #0]
    oled_last_update_time = HAL_GetTick();
 8000e42:	f003 fafd 	bl	8004440 <HAL_GetTick>
 8000e46:	4603      	mov	r3, r0
 8000e48:	4a27      	ldr	r2, [pc, #156]	@ (8000ee8 <OLED_UpdateDisplayPartial+0xdc>)
 8000e4a:	6013      	str	r3, [r2, #0]

    // 设置页地址范围
    OLED_SendCommand(0x22);      // 页地址设置命令
 8000e4c:	2022      	movs	r0, #34	@ 0x22
 8000e4e:	f000 f8cb 	bl	8000fe8 <OLED_SendCommand>
    OLED_SendCommand(startPage); // 起始页
 8000e52:	79fb      	ldrb	r3, [r7, #7]
 8000e54:	4618      	mov	r0, r3
 8000e56:	f000 f8c7 	bl	8000fe8 <OLED_SendCommand>
    OLED_SendCommand(endPage);   // 结束页
 8000e5a:	79bb      	ldrb	r3, [r7, #6]
 8000e5c:	4618      	mov	r0, r3
 8000e5e:	f000 f8c3 	bl	8000fe8 <OLED_SendCommand>

    // 设置列地址范围（总是更新整行）
    OLED_SendCommand(0x21); // 列地址设置命令
 8000e62:	2021      	movs	r0, #33	@ 0x21
 8000e64:	f000 f8c0 	bl	8000fe8 <OLED_SendCommand>
    OLED_SendCommand(0x00); // 起始列
 8000e68:	2000      	movs	r0, #0
 8000e6a:	f000 f8bd 	bl	8000fe8 <OLED_SendCommand>
    OLED_SendCommand(0x7F); // 结束列 (127)
 8000e6e:	207f      	movs	r0, #127	@ 0x7f
 8000e70:	f000 f8ba 	bl	8000fe8 <OLED_SendCommand>

    // 计算需要传输的数据长度
    uint16_t dataLen = OLED_WIDTH * (endPage - startPage + 1);
 8000e74:	79ba      	ldrb	r2, [r7, #6]
 8000e76:	79fb      	ldrb	r3, [r7, #7]
 8000e78:	1ad3      	subs	r3, r2, r3
 8000e7a:	3301      	adds	r3, #1
 8000e7c:	b29b      	uxth	r3, r3
 8000e7e:	01db      	lsls	r3, r3, #7
 8000e80:	81bb      	strh	r3, [r7, #12]

    // 前缓冲区的第一个字节设为数据控制字节
    OLED_FrontBuffer[0] = 0x40; // 数据控制字节：Co=0, D/C#=1 (数据)
 8000e82:	4b1a      	ldr	r3, [pc, #104]	@ (8000eec <OLED_UpdateDisplayPartial+0xe0>)
 8000e84:	2240      	movs	r2, #64	@ 0x40
 8000e86:	701a      	strb	r2, [r3, #0]

    // 只复制需要更新的页
    for (uint8_t page = startPage; page <= endPage; page++)
 8000e88:	79fb      	ldrb	r3, [r7, #7]
 8000e8a:	73fb      	strb	r3, [r7, #15]
 8000e8c:	e016      	b.n	8000ebc <OLED_UpdateDisplayPartial+0xb0>
    {
        memcpy(
            OLED_FrontBuffer + 1 + (page - startPage) * OLED_WIDTH,
 8000e8e:	7bfa      	ldrb	r2, [r7, #15]
 8000e90:	79fb      	ldrb	r3, [r7, #7]
 8000e92:	1ad3      	subs	r3, r2, r3
 8000e94:	01db      	lsls	r3, r3, #7
 8000e96:	3301      	adds	r3, #1
        memcpy(
 8000e98:	4a14      	ldr	r2, [pc, #80]	@ (8000eec <OLED_UpdateDisplayPartial+0xe0>)
 8000e9a:	1898      	adds	r0, r3, r2
            OLED_BackBuffer + page * OLED_WIDTH,
 8000e9c:	7bfb      	ldrb	r3, [r7, #15]
 8000e9e:	01db      	lsls	r3, r3, #7
 8000ea0:	461a      	mov	r2, r3
        memcpy(
 8000ea2:	4b13      	ldr	r3, [pc, #76]	@ (8000ef0 <OLED_UpdateDisplayPartial+0xe4>)
 8000ea4:	4413      	add	r3, r2
 8000ea6:	2280      	movs	r2, #128	@ 0x80
 8000ea8:	4619      	mov	r1, r3
 8000eaa:	f005 ff7f 	bl	8006dac <memcpy>
            OLED_WIDTH);
        oled_dirty_pages[page] = 0; // 重置脏页标记
 8000eae:	7bfb      	ldrb	r3, [r7, #15]
 8000eb0:	4a10      	ldr	r2, [pc, #64]	@ (8000ef4 <OLED_UpdateDisplayPartial+0xe8>)
 8000eb2:	2100      	movs	r1, #0
 8000eb4:	54d1      	strb	r1, [r2, r3]
    for (uint8_t page = startPage; page <= endPage; page++)
 8000eb6:	7bfb      	ldrb	r3, [r7, #15]
 8000eb8:	3301      	adds	r3, #1
 8000eba:	73fb      	strb	r3, [r7, #15]
 8000ebc:	7bfa      	ldrb	r2, [r7, #15]
 8000ebe:	79bb      	ldrb	r3, [r7, #6]
 8000ec0:	429a      	cmp	r2, r3
 8000ec2:	d9e4      	bls.n	8000e8e <OLED_UpdateDisplayPartial+0x82>
    }

    // 发送数据
    HAL_I2C_Master_Transmit(&hi2c1, OLED_ADDR << 1, OLED_FrontBuffer, dataLen + 1, HAL_MAX_DELAY);
 8000ec4:	89bb      	ldrh	r3, [r7, #12]
 8000ec6:	3301      	adds	r3, #1
 8000ec8:	b29b      	uxth	r3, r3
 8000eca:	f04f 32ff 	mov.w	r2, #4294967295
 8000ece:	9200      	str	r2, [sp, #0]
 8000ed0:	4a06      	ldr	r2, [pc, #24]	@ (8000eec <OLED_UpdateDisplayPartial+0xe0>)
 8000ed2:	2178      	movs	r1, #120	@ 0x78
 8000ed4:	4808      	ldr	r0, [pc, #32]	@ (8000ef8 <OLED_UpdateDisplayPartial+0xec>)
 8000ed6:	f004 f847 	bl	8004f68 <HAL_I2C_Master_Transmit>
 8000eda:	e000      	b.n	8000ede <OLED_UpdateDisplayPartial+0xd2>
        return;
 8000edc:	bf00      	nop
}
 8000ede:	3710      	adds	r7, #16
 8000ee0:	46bd      	mov	sp, r7
 8000ee2:	bd80      	pop	{r7, pc}
 8000ee4:	20000184 	.word	0x20000184
 8000ee8:	20000180 	.word	0x20000180
 8000eec:	20000590 	.word	0x20000590
 8000ef0:	20000190 	.word	0x20000190
 8000ef4:	20000188 	.word	0x20000188
 8000ef8:	20000090 	.word	0x20000090

08000efc <OLED_WritePixel>:

void OLED_WritePixel(int16_t x, int16_t y, uint8_t color)
{
 8000efc:	b480      	push	{r7}
 8000efe:	b085      	sub	sp, #20
 8000f00:	af00      	add	r7, sp, #0
 8000f02:	4603      	mov	r3, r0
 8000f04:	80fb      	strh	r3, [r7, #6]
 8000f06:	460b      	mov	r3, r1
 8000f08:	80bb      	strh	r3, [r7, #4]
 8000f0a:	4613      	mov	r3, r2
 8000f0c:	70fb      	strb	r3, [r7, #3]
    // 边界检查
    if (x >= OLED_WIDTH || x < 0 || y >= OLED_HEIGHT || y < 0)
 8000f0e:	f9b7 3006 	ldrsh.w	r3, [r7, #6]
 8000f12:	2b7f      	cmp	r3, #127	@ 0x7f
 8000f14:	dc5e      	bgt.n	8000fd4 <OLED_WritePixel+0xd8>
 8000f16:	f9b7 3006 	ldrsh.w	r3, [r7, #6]
 8000f1a:	2b00      	cmp	r3, #0
 8000f1c:	db5a      	blt.n	8000fd4 <OLED_WritePixel+0xd8>
 8000f1e:	f9b7 3004 	ldrsh.w	r3, [r7, #4]
 8000f22:	2b3f      	cmp	r3, #63	@ 0x3f
 8000f24:	dc56      	bgt.n	8000fd4 <OLED_WritePixel+0xd8>
 8000f26:	f9b7 3004 	ldrsh.w	r3, [r7, #4]
 8000f2a:	2b00      	cmp	r3, #0
 8000f2c:	db52      	blt.n	8000fd4 <OLED_WritePixel+0xd8>
        return;

    // 计算像素所在的字节位置
    uint16_t byte_index = x + (y / 8) * OLED_WIDTH;
 8000f2e:	f9b7 3004 	ldrsh.w	r3, [r7, #4]
 8000f32:	2b00      	cmp	r3, #0
 8000f34:	da00      	bge.n	8000f38 <OLED_WritePixel+0x3c>
 8000f36:	3307      	adds	r3, #7
 8000f38:	10db      	asrs	r3, r3, #3
 8000f3a:	b21b      	sxth	r3, r3
 8000f3c:	b29b      	uxth	r3, r3
 8000f3e:	01db      	lsls	r3, r3, #7
 8000f40:	b29a      	uxth	r2, r3
 8000f42:	88fb      	ldrh	r3, [r7, #6]
 8000f44:	4413      	add	r3, r2
 8000f46:	81fb      	strh	r3, [r7, #14]
    uint8_t bit_position = y % 8;
 8000f48:	f9b7 3004 	ldrsh.w	r3, [r7, #4]
 8000f4c:	425a      	negs	r2, r3
 8000f4e:	f003 0307 	and.w	r3, r3, #7
 8000f52:	f002 0207 	and.w	r2, r2, #7
 8000f56:	bf58      	it	pl
 8000f58:	4253      	negpl	r3, r2
 8000f5a:	b21b      	sxth	r3, r3
 8000f5c:	737b      	strb	r3, [r7, #13]
    uint8_t page = y / 8; // 计算所在页
 8000f5e:	f9b7 3004 	ldrsh.w	r3, [r7, #4]
 8000f62:	2b00      	cmp	r3, #0
 8000f64:	da00      	bge.n	8000f68 <OLED_WritePixel+0x6c>
 8000f66:	3307      	adds	r3, #7
 8000f68:	10db      	asrs	r3, r3, #3
 8000f6a:	b21b      	sxth	r3, r3
 8000f6c:	733b      	strb	r3, [r7, #12]

    // 记录当前像素值
    uint8_t old_value = OLED_BackBuffer[byte_index];
 8000f6e:	89fb      	ldrh	r3, [r7, #14]
 8000f70:	4a1b      	ldr	r2, [pc, #108]	@ (8000fe0 <OLED_WritePixel+0xe4>)
 8000f72:	5cd3      	ldrb	r3, [r2, r3]
 8000f74:	72fb      	strb	r3, [r7, #11]

    if (color) // 如果需要点亮像素
 8000f76:	78fb      	ldrb	r3, [r7, #3]
 8000f78:	2b00      	cmp	r3, #0
 8000f7a:	d00f      	beq.n	8000f9c <OLED_WritePixel+0xa0>
        OLED_BackBuffer[byte_index] |= (1 << bit_position);
 8000f7c:	89fb      	ldrh	r3, [r7, #14]
 8000f7e:	4a18      	ldr	r2, [pc, #96]	@ (8000fe0 <OLED_WritePixel+0xe4>)
 8000f80:	5cd3      	ldrb	r3, [r2, r3]
 8000f82:	b25a      	sxtb	r2, r3
 8000f84:	7b7b      	ldrb	r3, [r7, #13]
 8000f86:	2101      	movs	r1, #1
 8000f88:	fa01 f303 	lsl.w	r3, r1, r3
 8000f8c:	b25b      	sxtb	r3, r3
 8000f8e:	4313      	orrs	r3, r2
 8000f90:	b25a      	sxtb	r2, r3
 8000f92:	89fb      	ldrh	r3, [r7, #14]
 8000f94:	b2d1      	uxtb	r1, r2
 8000f96:	4a12      	ldr	r2, [pc, #72]	@ (8000fe0 <OLED_WritePixel+0xe4>)
 8000f98:	54d1      	strb	r1, [r2, r3]
 8000f9a:	e010      	b.n	8000fbe <OLED_WritePixel+0xc2>
    else // 如果需要熄灭像素
        OLED_BackBuffer[byte_index] &= ~(1 << bit_position);
 8000f9c:	89fb      	ldrh	r3, [r7, #14]
 8000f9e:	4a10      	ldr	r2, [pc, #64]	@ (8000fe0 <OLED_WritePixel+0xe4>)
 8000fa0:	5cd3      	ldrb	r3, [r2, r3]
 8000fa2:	b25a      	sxtb	r2, r3
 8000fa4:	7b7b      	ldrb	r3, [r7, #13]
 8000fa6:	2101      	movs	r1, #1
 8000fa8:	fa01 f303 	lsl.w	r3, r1, r3
 8000fac:	b25b      	sxtb	r3, r3
 8000fae:	43db      	mvns	r3, r3
 8000fb0:	b25b      	sxtb	r3, r3
 8000fb2:	4013      	ands	r3, r2
 8000fb4:	b25a      	sxtb	r2, r3
 8000fb6:	89fb      	ldrh	r3, [r7, #14]
 8000fb8:	b2d1      	uxtb	r1, r2
 8000fba:	4a09      	ldr	r2, [pc, #36]	@ (8000fe0 <OLED_WritePixel+0xe4>)
 8000fbc:	54d1      	strb	r1, [r2, r3]

    // 如果像素值发生变化，标记该页为脏
    if (old_value != OLED_BackBuffer[byte_index])
 8000fbe:	89fb      	ldrh	r3, [r7, #14]
 8000fc0:	4a07      	ldr	r2, [pc, #28]	@ (8000fe0 <OLED_WritePixel+0xe4>)
 8000fc2:	5cd3      	ldrb	r3, [r2, r3]
 8000fc4:	7afa      	ldrb	r2, [r7, #11]
 8000fc6:	429a      	cmp	r2, r3
 8000fc8:	d005      	beq.n	8000fd6 <OLED_WritePixel+0xda>
    {
        oled_dirty_pages[page] = 1;
 8000fca:	7b3b      	ldrb	r3, [r7, #12]
 8000fcc:	4a05      	ldr	r2, [pc, #20]	@ (8000fe4 <OLED_WritePixel+0xe8>)
 8000fce:	2101      	movs	r1, #1
 8000fd0:	54d1      	strb	r1, [r2, r3]
 8000fd2:	e000      	b.n	8000fd6 <OLED_WritePixel+0xda>
        return;
 8000fd4:	bf00      	nop
    }
}
 8000fd6:	3714      	adds	r7, #20
 8000fd8:	46bd      	mov	sp, r7
 8000fda:	bc80      	pop	{r7}
 8000fdc:	4770      	bx	lr
 8000fde:	bf00      	nop
 8000fe0:	20000190 	.word	0x20000190
 8000fe4:	20000188 	.word	0x20000188

08000fe8 <OLED_SendCommand>:

void OLED_SendCommand(uint8_t command)
{
 8000fe8:	b580      	push	{r7, lr}
 8000fea:	b086      	sub	sp, #24
 8000fec:	af02      	add	r7, sp, #8
 8000fee:	4603      	mov	r3, r0
 8000ff0:	71fb      	strb	r3, [r7, #7]
    uint8_t data[2];
    data[0] = 0x00; // Co = 0, D/C# = 0
 8000ff2:	2300      	movs	r3, #0
 8000ff4:	733b      	strb	r3, [r7, #12]
    data[1] = command;
 8000ff6:	79fb      	ldrb	r3, [r7, #7]
 8000ff8:	737b      	strb	r3, [r7, #13]
    HAL_I2C_Master_Transmit(&hi2c1, OLED_ADDR << 1, data, 2, HAL_MAX_DELAY);
 8000ffa:	f107 020c 	add.w	r2, r7, #12
 8000ffe:	f04f 33ff 	mov.w	r3, #4294967295
 8001002:	9300      	str	r3, [sp, #0]
 8001004:	2302      	movs	r3, #2
 8001006:	2178      	movs	r1, #120	@ 0x78
 8001008:	4803      	ldr	r0, [pc, #12]	@ (8001018 <OLED_SendCommand+0x30>)
 800100a:	f003 ffad 	bl	8004f68 <HAL_I2C_Master_Transmit>
}
 800100e:	bf00      	nop
 8001010:	3710      	adds	r7, #16
 8001012:	46bd      	mov	sp, r7
 8001014:	bd80      	pop	{r7, pc}
 8001016:	bf00      	nop
 8001018:	20000090 	.word	0x20000090

0800101c <OLED_Init>:
    OLED_UpdateDisplayVSync();
}

// 更新OLED初始化函数来使用双缓冲
void OLED_Init()
{
 800101c:	b580      	push	{r7, lr}
 800101e:	af00      	add	r7, sp, #0
    HAL_Delay(100); // 等待OLED上电稳定
 8001020:	2064      	movs	r0, #100	@ 0x64
 8001022:	f003 fa17 	bl	8004454 <HAL_Delay>

    // 初始化命令序列
    OLED_SendCommand(0xAE); // 关闭显示
 8001026:	20ae      	movs	r0, #174	@ 0xae
 8001028:	f7ff ffde 	bl	8000fe8 <OLED_SendCommand>
    OLED_SendCommand(0xD5); // 设置显示时钟分频比/振荡器频率
 800102c:	20d5      	movs	r0, #213	@ 0xd5
 800102e:	f7ff ffdb 	bl	8000fe8 <OLED_SendCommand>
    OLED_SendCommand(0x80); // 推荐值
 8001032:	2080      	movs	r0, #128	@ 0x80
 8001034:	f7ff ffd8 	bl	8000fe8 <OLED_SendCommand>
    OLED_SendCommand(0xA8); // 设置多路复用比
 8001038:	20a8      	movs	r0, #168	@ 0xa8
 800103a:	f7ff ffd5 	bl	8000fe8 <OLED_SendCommand>
    OLED_SendCommand(0x3F); // 默认 0x3F (1/64 duty)
 800103e:	203f      	movs	r0, #63	@ 0x3f
 8001040:	f7ff ffd2 	bl	8000fe8 <OLED_SendCommand>
    OLED_SendCommand(0xD3); // 设置显示偏移
 8001044:	20d3      	movs	r0, #211	@ 0xd3
 8001046:	f7ff ffcf 	bl	8000fe8 <OLED_SendCommand>
    OLED_SendCommand(0x00); // 无偏移
 800104a:	2000      	movs	r0, #0
 800104c:	f7ff ffcc 	bl	8000fe8 <OLED_SendCommand>
    OLED_SendCommand(0x40); // 设置显示开始行 (0x40-0x7F)
 8001050:	2040      	movs	r0, #64	@ 0x40
 8001052:	f7ff ffc9 	bl	8000fe8 <OLED_SendCommand>
    OLED_SendCommand(0x8D); // 电荷泵设置
 8001056:	208d      	movs	r0, #141	@ 0x8d
 8001058:	f7ff ffc6 	bl	8000fe8 <OLED_SendCommand>
    OLED_SendCommand(0x14); // 启用电荷泵
 800105c:	2014      	movs	r0, #20
 800105e:	f7ff ffc3 	bl	8000fe8 <OLED_SendCommand>
    OLED_SendCommand(0x20); // 设置内存寻址模式
 8001062:	2020      	movs	r0, #32
 8001064:	f7ff ffc0 	bl	8000fe8 <OLED_SendCommand>
    OLED_SendCommand(0x00); // 水平寻址模式
 8001068:	2000      	movs	r0, #0
 800106a:	f7ff ffbd 	bl	8000fe8 <OLED_SendCommand>
    OLED_SendCommand(0xA1); // 段重映射，列地址127映射到SEG0
 800106e:	20a1      	movs	r0, #161	@ 0xa1
 8001070:	f7ff ffba 	bl	8000fe8 <OLED_SendCommand>
    OLED_SendCommand(0xC8); // COM输出扫描方向，从COM[N-1]到COM0
 8001074:	20c8      	movs	r0, #200	@ 0xc8
 8001076:	f7ff ffb7 	bl	8000fe8 <OLED_SendCommand>
    OLED_SendCommand(0xDA); // COM硬件配置
 800107a:	20da      	movs	r0, #218	@ 0xda
 800107c:	f7ff ffb4 	bl	8000fe8 <OLED_SendCommand>
    OLED_SendCommand(0x12); // 交替COM配置，使能COM左/右重映射
 8001080:	2012      	movs	r0, #18
 8001082:	f7ff ffb1 	bl	8000fe8 <OLED_SendCommand>
    OLED_SendCommand(0x81); // 设置对比度控制
 8001086:	2081      	movs	r0, #129	@ 0x81
 8001088:	f7ff ffae 	bl	8000fe8 <OLED_SendCommand>
    OLED_SendCommand(0xCF); // 对比度值(0-255)
 800108c:	20cf      	movs	r0, #207	@ 0xcf
 800108e:	f7ff ffab 	bl	8000fe8 <OLED_SendCommand>
    OLED_SendCommand(0xD9); // 设置预充电周期
 8001092:	20d9      	movs	r0, #217	@ 0xd9
 8001094:	f7ff ffa8 	bl	8000fe8 <OLED_SendCommand>
    OLED_SendCommand(0xF1); // 第1和第2阶段的预充电周期
 8001098:	20f1      	movs	r0, #241	@ 0xf1
 800109a:	f7ff ffa5 	bl	8000fe8 <OLED_SendCommand>
    OLED_SendCommand(0xDB); // 设置VCOMH解除选择电平
 800109e:	20db      	movs	r0, #219	@ 0xdb
 80010a0:	f7ff ffa2 	bl	8000fe8 <OLED_SendCommand>
    OLED_SendCommand(0x30); // 约0.83xVcc
 80010a4:	2030      	movs	r0, #48	@ 0x30
 80010a6:	f7ff ff9f 	bl	8000fe8 <OLED_SendCommand>
    OLED_SendCommand(0xA4); // 显示RAM内容
 80010aa:	20a4      	movs	r0, #164	@ 0xa4
 80010ac:	f7ff ff9c 	bl	8000fe8 <OLED_SendCommand>
    OLED_SendCommand(0xA6); // 正常显示(非反显)
 80010b0:	20a6      	movs	r0, #166	@ 0xa6
 80010b2:	f7ff ff99 	bl	8000fe8 <OLED_SendCommand>
    OLED_SendCommand(0x2E); // 禁用滚动
 80010b6:	202e      	movs	r0, #46	@ 0x2e
 80010b8:	f7ff ff96 	bl	8000fe8 <OLED_SendCommand>

    // 初始化缓冲区
    OLED_InitBuffer();
 80010bc:	f7ff fdd2 	bl	8000c64 <OLED_InitBuffer>

    // 清屏
    OLED_ClearBuffer();
 80010c0:	f7ff fe04 	bl	8000ccc <OLED_ClearBuffer>

    // 开启显示
    OLED_SendCommand(0xAF);
 80010c4:	20af      	movs	r0, #175	@ 0xaf
 80010c6:	f7ff ff8f 	bl	8000fe8 <OLED_SendCommand>
}
 80010ca:	bf00      	nop
 80010cc:	bd80      	pop	{r7, pc}
	...

080010d0 <OLED_InvertArea>:

// 区域反色功能 - 将指定矩形区域内的像素颜色反转 //! UPDATEDISPLAY REQUIRED
void OLED_InvertArea(int16_t x, int16_t y, uint8_t width, uint8_t height)
{
 80010d0:	b490      	push	{r4, r7}
 80010d2:	b088      	sub	sp, #32
 80010d4:	af00      	add	r7, sp, #0
 80010d6:	4604      	mov	r4, r0
 80010d8:	4608      	mov	r0, r1
 80010da:	4611      	mov	r1, r2
 80010dc:	461a      	mov	r2, r3
 80010de:	4623      	mov	r3, r4
 80010e0:	80fb      	strh	r3, [r7, #6]
 80010e2:	4603      	mov	r3, r0
 80010e4:	80bb      	strh	r3, [r7, #4]
 80010e6:	460b      	mov	r3, r1
 80010e8:	70fb      	strb	r3, [r7, #3]
 80010ea:	4613      	mov	r3, r2
 80010ec:	70bb      	strb	r3, [r7, #2]
    if (width == 0 || height == 0)
 80010ee:	78fb      	ldrb	r3, [r7, #3]
 80010f0:	2b00      	cmp	r3, #0
 80010f2:	f000 809d 	beq.w	8001230 <OLED_InvertArea+0x160>
 80010f6:	78bb      	ldrb	r3, [r7, #2]
 80010f8:	2b00      	cmp	r3, #0
 80010fa:	f000 8099 	beq.w	8001230 <OLED_InvertArea+0x160>
        return;

    int16_t x_start_on_screen = x;
 80010fe:	88fb      	ldrh	r3, [r7, #6]
 8001100:	83fb      	strh	r3, [r7, #30]
    int16_t y_start_on_screen = y;
 8001102:	88bb      	ldrh	r3, [r7, #4]
 8001104:	83bb      	strh	r3, [r7, #28]
    int16_t x_end_on_screen = x + width - 1;
 8001106:	78fb      	ldrb	r3, [r7, #3]
 8001108:	b29a      	uxth	r2, r3
 800110a:	88fb      	ldrh	r3, [r7, #6]
 800110c:	4413      	add	r3, r2
 800110e:	b29b      	uxth	r3, r3
 8001110:	3b01      	subs	r3, #1
 8001112:	b29b      	uxth	r3, r3
 8001114:	837b      	strh	r3, [r7, #26]
    int16_t y_end_on_screen = y + height - 1;
 8001116:	78bb      	ldrb	r3, [r7, #2]
 8001118:	b29a      	uxth	r2, r3
 800111a:	88bb      	ldrh	r3, [r7, #4]
 800111c:	4413      	add	r3, r2
 800111e:	b29b      	uxth	r3, r3
 8001120:	3b01      	subs	r3, #1
 8001122:	b29b      	uxth	r3, r3
 8001124:	833b      	strh	r3, [r7, #24]

    // Clip to screen boundaries
    if (x_start_on_screen < 0)
 8001126:	f9b7 301e 	ldrsh.w	r3, [r7, #30]
 800112a:	2b00      	cmp	r3, #0
 800112c:	da01      	bge.n	8001132 <OLED_InvertArea+0x62>
        x_start_on_screen = 0;
 800112e:	2300      	movs	r3, #0
 8001130:	83fb      	strh	r3, [r7, #30]
    if (y_start_on_screen < 0)
 8001132:	f9b7 301c 	ldrsh.w	r3, [r7, #28]
 8001136:	2b00      	cmp	r3, #0
 8001138:	da01      	bge.n	800113e <OLED_InvertArea+0x6e>
        y_start_on_screen = 0;
 800113a:	2300      	movs	r3, #0
 800113c:	83bb      	strh	r3, [r7, #28]
    if (x_end_on_screen >= OLED_WIDTH)
 800113e:	f9b7 301a 	ldrsh.w	r3, [r7, #26]
 8001142:	2b7f      	cmp	r3, #127	@ 0x7f
 8001144:	dd01      	ble.n	800114a <OLED_InvertArea+0x7a>
        x_end_on_screen = OLED_WIDTH - 1;
 8001146:	237f      	movs	r3, #127	@ 0x7f
 8001148:	837b      	strh	r3, [r7, #26]
    if (y_end_on_screen >= OLED_HEIGHT)
 800114a:	f9b7 3018 	ldrsh.w	r3, [r7, #24]
 800114e:	2b3f      	cmp	r3, #63	@ 0x3f
 8001150:	dd01      	ble.n	8001156 <OLED_InvertArea+0x86>
        y_end_on_screen = OLED_HEIGHT - 1;
 8001152:	233f      	movs	r3, #63	@ 0x3f
 8001154:	833b      	strh	r3, [r7, #24]

    // If clipped area is invalid (e.g., entirely off-screen after clipping)
    if (x_start_on_screen > x_end_on_screen || y_start_on_screen > y_end_on_screen)
 8001156:	f9b7 201e 	ldrsh.w	r2, [r7, #30]
 800115a:	f9b7 301a 	ldrsh.w	r3, [r7, #26]
 800115e:	429a      	cmp	r2, r3
 8001160:	dc68      	bgt.n	8001234 <OLED_InvertArea+0x164>
 8001162:	f9b7 201c 	ldrsh.w	r2, [r7, #28]
 8001166:	f9b7 3018 	ldrsh.w	r3, [r7, #24]
 800116a:	429a      	cmp	r2, r3
 800116c:	dc62      	bgt.n	8001234 <OLED_InvertArea+0x164>
        return;

    // 计算涉及的页范围
    uint8_t start_page = y_start_on_screen / 8;
 800116e:	f9b7 301c 	ldrsh.w	r3, [r7, #28]
 8001172:	2b00      	cmp	r3, #0
 8001174:	da00      	bge.n	8001178 <OLED_InvertArea+0xa8>
 8001176:	3307      	adds	r3, #7
 8001178:	10db      	asrs	r3, r3, #3
 800117a:	b21b      	sxth	r3, r3
 800117c:	747b      	strb	r3, [r7, #17]
    uint8_t end_page = y_end_on_screen / 8;
 800117e:	f9b7 3018 	ldrsh.w	r3, [r7, #24]
 8001182:	2b00      	cmp	r3, #0
 8001184:	da00      	bge.n	8001188 <OLED_InvertArea+0xb8>
 8001186:	3307      	adds	r3, #7
 8001188:	10db      	asrs	r3, r3, #3
 800118a:	b21b      	sxth	r3, r3
 800118c:	743b      	strb	r3, [r7, #16]

    // 标记受影响的页为脏页
    extern volatile uint8_t oled_dirty_pages[];
    for (uint8_t page = start_page; page <= end_page; page++)
 800118e:	7c7b      	ldrb	r3, [r7, #17]
 8001190:	75fb      	strb	r3, [r7, #23]
 8001192:	e006      	b.n	80011a2 <OLED_InvertArea+0xd2>
    {
        oled_dirty_pages[page] = 1;
 8001194:	7dfb      	ldrb	r3, [r7, #23]
 8001196:	4a2a      	ldr	r2, [pc, #168]	@ (8001240 <OLED_InvertArea+0x170>)
 8001198:	2101      	movs	r1, #1
 800119a:	54d1      	strb	r1, [r2, r3]
    for (uint8_t page = start_page; page <= end_page; page++)
 800119c:	7dfb      	ldrb	r3, [r7, #23]
 800119e:	3301      	adds	r3, #1
 80011a0:	75fb      	strb	r3, [r7, #23]
 80011a2:	7dfa      	ldrb	r2, [r7, #23]
 80011a4:	7c3b      	ldrb	r3, [r7, #16]
 80011a6:	429a      	cmp	r2, r3
 80011a8:	d9f4      	bls.n	8001194 <OLED_InvertArea+0xc4>
    }

    // 优化的像素更新逻辑 - 按行处理以提高缓存命中率
    for (int16_t j = y_start_on_screen; j <= y_end_on_screen; j++)
 80011aa:	8bbb      	ldrh	r3, [r7, #28]
 80011ac:	82bb      	strh	r3, [r7, #20]
 80011ae:	e038      	b.n	8001222 <OLED_InvertArea+0x152>
    {
        uint8_t page = (uint8_t)j / 8;
 80011b0:	8abb      	ldrh	r3, [r7, #20]
 80011b2:	b2db      	uxtb	r3, r3
 80011b4:	08db      	lsrs	r3, r3, #3
 80011b6:	73fb      	strb	r3, [r7, #15]
        uint8_t bit_position = (uint8_t)j % 8;
 80011b8:	8abb      	ldrh	r3, [r7, #20]
 80011ba:	b2db      	uxtb	r3, r3
 80011bc:	f003 0307 	and.w	r3, r3, #7
 80011c0:	73bb      	strb	r3, [r7, #14]
        uint16_t byte_index_base = page * OLED_WIDTH;
 80011c2:	7bfb      	ldrb	r3, [r7, #15]
 80011c4:	b29b      	uxth	r3, r3
 80011c6:	01db      	lsls	r3, r3, #7
 80011c8:	81bb      	strh	r3, [r7, #12]

        // 处理当前行上的所有像素
        for (int16_t i = x_start_on_screen; i <= x_end_on_screen; i++)
 80011ca:	8bfb      	ldrh	r3, [r7, #30]
 80011cc:	827b      	strh	r3, [r7, #18]
 80011ce:	e01c      	b.n	800120a <OLED_InvertArea+0x13a>
        {
            uint16_t byte_index = byte_index_base + i;
 80011d0:	8a7a      	ldrh	r2, [r7, #18]
 80011d2:	89bb      	ldrh	r3, [r7, #12]
 80011d4:	4413      	add	r3, r2
 80011d6:	817b      	strh	r3, [r7, #10]

            // 反转位
            if (byte_index < sizeof(OLED_BackBuffer))
 80011d8:	897b      	ldrh	r3, [r7, #10]
 80011da:	f5b3 6f80 	cmp.w	r3, #1024	@ 0x400
 80011de:	d20e      	bcs.n	80011fe <OLED_InvertArea+0x12e>
            {
                OLED_BackBuffer[byte_index] ^= (1 << bit_position);
 80011e0:	897b      	ldrh	r3, [r7, #10]
 80011e2:	4a18      	ldr	r2, [pc, #96]	@ (8001244 <OLED_InvertArea+0x174>)
 80011e4:	5cd3      	ldrb	r3, [r2, r3]
 80011e6:	b25a      	sxtb	r2, r3
 80011e8:	7bbb      	ldrb	r3, [r7, #14]
 80011ea:	2101      	movs	r1, #1
 80011ec:	fa01 f303 	lsl.w	r3, r1, r3
 80011f0:	b25b      	sxtb	r3, r3
 80011f2:	4053      	eors	r3, r2
 80011f4:	b25a      	sxtb	r2, r3
 80011f6:	897b      	ldrh	r3, [r7, #10]
 80011f8:	b2d1      	uxtb	r1, r2
 80011fa:	4a12      	ldr	r2, [pc, #72]	@ (8001244 <OLED_InvertArea+0x174>)
 80011fc:	54d1      	strb	r1, [r2, r3]
        for (int16_t i = x_start_on_screen; i <= x_end_on_screen; i++)
 80011fe:	f9b7 3012 	ldrsh.w	r3, [r7, #18]
 8001202:	b29b      	uxth	r3, r3
 8001204:	3301      	adds	r3, #1
 8001206:	b29b      	uxth	r3, r3
 8001208:	827b      	strh	r3, [r7, #18]
 800120a:	f9b7 2012 	ldrsh.w	r2, [r7, #18]
 800120e:	f9b7 301a 	ldrsh.w	r3, [r7, #26]
 8001212:	429a      	cmp	r2, r3
 8001214:	dddc      	ble.n	80011d0 <OLED_InvertArea+0x100>
    for (int16_t j = y_start_on_screen; j <= y_end_on_screen; j++)
 8001216:	f9b7 3014 	ldrsh.w	r3, [r7, #20]
 800121a:	b29b      	uxth	r3, r3
 800121c:	3301      	adds	r3, #1
 800121e:	b29b      	uxth	r3, r3
 8001220:	82bb      	strh	r3, [r7, #20]
 8001222:	f9b7 2014 	ldrsh.w	r2, [r7, #20]
 8001226:	f9b7 3018 	ldrsh.w	r3, [r7, #24]
 800122a:	429a      	cmp	r2, r3
 800122c:	ddc0      	ble.n	80011b0 <OLED_InvertArea+0xe0>
 800122e:	e002      	b.n	8001236 <OLED_InvertArea+0x166>
        return;
 8001230:	bf00      	nop
 8001232:	e000      	b.n	8001236 <OLED_InvertArea+0x166>
        return;
 8001234:	bf00      	nop
            }
        }
    }
}
 8001236:	3720      	adds	r7, #32
 8001238:	46bd      	mov	sp, r7
 800123a:	bc90      	pop	{r4, r7}
 800123c:	4770      	bx	lr
 800123e:	bf00      	nop
 8001240:	20000188 	.word	0x20000188
 8001244:	20000190 	.word	0x20000190

08001248 <OLED_DisplayChar>:
    OLED_SendCommand(0x00 + (x & 0x0F));        // 设置低4位列地址
    OLED_SendCommand(0x10 + ((x >> 4) & 0x0F)); // 设置高4位列地址
}

void OLED_DisplayChar(int16_t x, int16_t y, char ch) //! UPDATEDISPLAY REQUIRED
{
 8001248:	b480      	push	{r7}
 800124a:	b089      	sub	sp, #36	@ 0x24
 800124c:	af00      	add	r7, sp, #0
 800124e:	4603      	mov	r3, r0
 8001250:	80fb      	strh	r3, [r7, #6]
 8001252:	460b      	mov	r3, r1
 8001254:	80bb      	strh	r3, [r7, #4]
 8001256:	4613      	mov	r3, r2
 8001258:	70fb      	strb	r3, [r7, #3]
    const uint8_t font_width = 6;
 800125a:	2306      	movs	r3, #6
 800125c:	773b      	strb	r3, [r7, #28]
    const uint8_t font_height = 8;
 800125e:	2308      	movs	r3, #8
 8001260:	76fb      	strb	r3, [r7, #27]

    if (ch < 32)
 8001262:	78fb      	ldrb	r3, [r7, #3]
 8001264:	2b1f      	cmp	r3, #31
 8001266:	f240 80aa 	bls.w	80013be <OLED_DisplayChar+0x176>
        return;

    uint8_t c = ch - 32;
 800126a:	78fb      	ldrb	r3, [r7, #3]
 800126c:	3b20      	subs	r3, #32
 800126e:	76bb      	strb	r3, [r7, #26]

    uint8_t start_page = (y >= 0) ? (y / 8) : 0;
 8001270:	f9b7 3004 	ldrsh.w	r3, [r7, #4]
 8001274:	2b00      	cmp	r3, #0
 8001276:	db08      	blt.n	800128a <OLED_DisplayChar+0x42>
 8001278:	f9b7 3004 	ldrsh.w	r3, [r7, #4]
 800127c:	2b00      	cmp	r3, #0
 800127e:	da00      	bge.n	8001282 <OLED_DisplayChar+0x3a>
 8001280:	3307      	adds	r3, #7
 8001282:	10db      	asrs	r3, r3, #3
 8001284:	b21b      	sxth	r3, r3
 8001286:	b2db      	uxtb	r3, r3
 8001288:	e000      	b.n	800128c <OLED_DisplayChar+0x44>
 800128a:	2300      	movs	r3, #0
 800128c:	767b      	strb	r3, [r7, #25]
    uint8_t end_page = ((y + font_height - 1) < OLED_HEIGHT) ? ((y + font_height - 1) / 8) : (OLED_HEIGHT / 8 - 1);
 800128e:	f9b7 2004 	ldrsh.w	r2, [r7, #4]
 8001292:	7efb      	ldrb	r3, [r7, #27]
 8001294:	4413      	add	r3, r2
 8001296:	2b40      	cmp	r3, #64	@ 0x40
 8001298:	dc0a      	bgt.n	80012b0 <OLED_DisplayChar+0x68>
 800129a:	f9b7 2004 	ldrsh.w	r2, [r7, #4]
 800129e:	7efb      	ldrb	r3, [r7, #27]
 80012a0:	4413      	add	r3, r2
 80012a2:	3b01      	subs	r3, #1
 80012a4:	2b00      	cmp	r3, #0
 80012a6:	da00      	bge.n	80012aa <OLED_DisplayChar+0x62>
 80012a8:	3307      	adds	r3, #7
 80012aa:	10db      	asrs	r3, r3, #3
 80012ac:	b2db      	uxtb	r3, r3
 80012ae:	e000      	b.n	80012b2 <OLED_DisplayChar+0x6a>
 80012b0:	2307      	movs	r3, #7
 80012b2:	763b      	strb	r3, [r7, #24]

    extern volatile uint8_t oled_dirty_pages[];
    for (uint8_t page = start_page; page <= end_page && page < OLED_PAGES; page++)
 80012b4:	7e7b      	ldrb	r3, [r7, #25]
 80012b6:	77fb      	strb	r3, [r7, #31]
 80012b8:	e006      	b.n	80012c8 <OLED_DisplayChar+0x80>
    {
        oled_dirty_pages[page] = 1;
 80012ba:	7ffb      	ldrb	r3, [r7, #31]
 80012bc:	4a43      	ldr	r2, [pc, #268]	@ (80013cc <OLED_DisplayChar+0x184>)
 80012be:	2101      	movs	r1, #1
 80012c0:	54d1      	strb	r1, [r2, r3]
    for (uint8_t page = start_page; page <= end_page && page < OLED_PAGES; page++)
 80012c2:	7ffb      	ldrb	r3, [r7, #31]
 80012c4:	3301      	adds	r3, #1
 80012c6:	77fb      	strb	r3, [r7, #31]
 80012c8:	7ffa      	ldrb	r2, [r7, #31]
 80012ca:	7e3b      	ldrb	r3, [r7, #24]
 80012cc:	429a      	cmp	r2, r3
 80012ce:	d802      	bhi.n	80012d6 <OLED_DisplayChar+0x8e>
 80012d0:	7ffb      	ldrb	r3, [r7, #31]
 80012d2:	2b07      	cmp	r3, #7
 80012d4:	d9f1      	bls.n	80012ba <OLED_DisplayChar+0x72>
    }
    // 按列渲染
    for (uint8_t char_col = 0; char_col < font_width; char_col++)
 80012d6:	2300      	movs	r3, #0
 80012d8:	77bb      	strb	r3, [r7, #30]
 80012da:	e06b      	b.n	80013b4 <OLED_DisplayChar+0x16c>
    {
        int16_t screen_x = x + char_col;
 80012dc:	7fbb      	ldrb	r3, [r7, #30]
 80012de:	b29a      	uxth	r2, r3
 80012e0:	88fb      	ldrh	r3, [r7, #6]
 80012e2:	4413      	add	r3, r2
 80012e4:	b29b      	uxth	r3, r3
 80012e6:	82fb      	strh	r3, [r7, #22]
        if (screen_x < 0 || screen_x >= OLED_WIDTH)
 80012e8:	f9b7 3016 	ldrsh.w	r3, [r7, #22]
 80012ec:	2b00      	cmp	r3, #0
 80012ee:	db5d      	blt.n	80013ac <OLED_DisplayChar+0x164>
 80012f0:	f9b7 3016 	ldrsh.w	r3, [r7, #22]
 80012f4:	2b7f      	cmp	r3, #127	@ 0x7f
 80012f6:	dc59      	bgt.n	80013ac <OLED_DisplayChar+0x164>
            continue;

        if ((c * font_width + char_col) >= sizeof(OLED_FONT_6x8))
 80012f8:	7ebb      	ldrb	r3, [r7, #26]
 80012fa:	7f3a      	ldrb	r2, [r7, #28]
 80012fc:	fb03 f202 	mul.w	r2, r3, r2
 8001300:	7fbb      	ldrb	r3, [r7, #30]
 8001302:	4413      	add	r3, r2
 8001304:	461a      	mov	r2, r3
 8001306:	f240 2321 	movw	r3, #545	@ 0x221
 800130a:	429a      	cmp	r2, r3
 800130c:	d859      	bhi.n	80013c2 <OLED_DisplayChar+0x17a>
            break;
        uint8_t font_data_col = OLED_FONT_6x8[c * font_width + char_col];
 800130e:	7ebb      	ldrb	r3, [r7, #26]
 8001310:	7f3a      	ldrb	r2, [r7, #28]
 8001312:	fb03 f202 	mul.w	r2, r3, r2
 8001316:	7fbb      	ldrb	r3, [r7, #30]
 8001318:	4413      	add	r3, r2
 800131a:	4a2d      	ldr	r2, [pc, #180]	@ (80013d0 <OLED_DisplayChar+0x188>)
 800131c:	5cd3      	ldrb	r3, [r2, r3]
 800131e:	757b      	strb	r3, [r7, #21]

        for (uint8_t char_row_bit = 0; char_row_bit < font_height; char_row_bit++)
 8001320:	2300      	movs	r3, #0
 8001322:	777b      	strb	r3, [r7, #29]
 8001324:	e03d      	b.n	80013a2 <OLED_DisplayChar+0x15a>
        {
            int16_t screen_y = y + char_row_bit;
 8001326:	7f7b      	ldrb	r3, [r7, #29]
 8001328:	b29a      	uxth	r2, r3
 800132a:	88bb      	ldrh	r3, [r7, #4]
 800132c:	4413      	add	r3, r2
 800132e:	b29b      	uxth	r3, r3
 8001330:	827b      	strh	r3, [r7, #18]
            if (screen_y < 0 || screen_y >= OLED_HEIGHT)
 8001332:	f9b7 3012 	ldrsh.w	r3, [r7, #18]
 8001336:	2b00      	cmp	r3, #0
 8001338:	db2f      	blt.n	800139a <OLED_DisplayChar+0x152>
 800133a:	f9b7 3012 	ldrsh.w	r3, [r7, #18]
 800133e:	2b3f      	cmp	r3, #63	@ 0x3f
 8001340:	dc2b      	bgt.n	800139a <OLED_DisplayChar+0x152>
                continue;

            if ((font_data_col >> char_row_bit) & 0x01)
 8001342:	7d7a      	ldrb	r2, [r7, #21]
 8001344:	7f7b      	ldrb	r3, [r7, #29]
 8001346:	fa42 f303 	asr.w	r3, r2, r3
 800134a:	f003 0301 	and.w	r3, r3, #1
 800134e:	2b00      	cmp	r3, #0
 8001350:	d024      	beq.n	800139c <OLED_DisplayChar+0x154>
            {
                uint8_t page = (uint8_t)screen_y / 8;
 8001352:	8a7b      	ldrh	r3, [r7, #18]
 8001354:	b2db      	uxtb	r3, r3
 8001356:	08db      	lsrs	r3, r3, #3
 8001358:	747b      	strb	r3, [r7, #17]
                uint8_t bit_offset_in_page = (uint8_t)screen_y % 8;
 800135a:	8a7b      	ldrh	r3, [r7, #18]
 800135c:	b2db      	uxtb	r3, r3
 800135e:	f003 0307 	and.w	r3, r3, #7
 8001362:	743b      	strb	r3, [r7, #16]
                uint16_t buffer_index = (uint16_t)screen_x + page * OLED_WIDTH;
 8001364:	7c7b      	ldrb	r3, [r7, #17]
 8001366:	b29b      	uxth	r3, r3
 8001368:	01db      	lsls	r3, r3, #7
 800136a:	b29a      	uxth	r2, r3
 800136c:	8afb      	ldrh	r3, [r7, #22]
 800136e:	4413      	add	r3, r2
 8001370:	81fb      	strh	r3, [r7, #14]

                if (buffer_index < sizeof(OLED_BackBuffer))
 8001372:	89fb      	ldrh	r3, [r7, #14]
 8001374:	f5b3 6f80 	cmp.w	r3, #1024	@ 0x400
 8001378:	d210      	bcs.n	800139c <OLED_DisplayChar+0x154>
                {
                    OLED_BackBuffer[buffer_index] |= (1 << bit_offset_in_page);
 800137a:	89fb      	ldrh	r3, [r7, #14]
 800137c:	4a15      	ldr	r2, [pc, #84]	@ (80013d4 <OLED_DisplayChar+0x18c>)
 800137e:	5cd3      	ldrb	r3, [r2, r3]
 8001380:	b25a      	sxtb	r2, r3
 8001382:	7c3b      	ldrb	r3, [r7, #16]
 8001384:	2101      	movs	r1, #1
 8001386:	fa01 f303 	lsl.w	r3, r1, r3
 800138a:	b25b      	sxtb	r3, r3
 800138c:	4313      	orrs	r3, r2
 800138e:	b25a      	sxtb	r2, r3
 8001390:	89fb      	ldrh	r3, [r7, #14]
 8001392:	b2d1      	uxtb	r1, r2
 8001394:	4a0f      	ldr	r2, [pc, #60]	@ (80013d4 <OLED_DisplayChar+0x18c>)
 8001396:	54d1      	strb	r1, [r2, r3]
 8001398:	e000      	b.n	800139c <OLED_DisplayChar+0x154>
                continue;
 800139a:	bf00      	nop
        for (uint8_t char_row_bit = 0; char_row_bit < font_height; char_row_bit++)
 800139c:	7f7b      	ldrb	r3, [r7, #29]
 800139e:	3301      	adds	r3, #1
 80013a0:	777b      	strb	r3, [r7, #29]
 80013a2:	7f7a      	ldrb	r2, [r7, #29]
 80013a4:	7efb      	ldrb	r3, [r7, #27]
 80013a6:	429a      	cmp	r2, r3
 80013a8:	d3bd      	bcc.n	8001326 <OLED_DisplayChar+0xde>
 80013aa:	e000      	b.n	80013ae <OLED_DisplayChar+0x166>
            continue;
 80013ac:	bf00      	nop
    for (uint8_t char_col = 0; char_col < font_width; char_col++)
 80013ae:	7fbb      	ldrb	r3, [r7, #30]
 80013b0:	3301      	adds	r3, #1
 80013b2:	77bb      	strb	r3, [r7, #30]
 80013b4:	7fba      	ldrb	r2, [r7, #30]
 80013b6:	7f3b      	ldrb	r3, [r7, #28]
 80013b8:	429a      	cmp	r2, r3
 80013ba:	d38f      	bcc.n	80012dc <OLED_DisplayChar+0x94>
 80013bc:	e002      	b.n	80013c4 <OLED_DisplayChar+0x17c>
        return;
 80013be:	bf00      	nop
 80013c0:	e000      	b.n	80013c4 <OLED_DisplayChar+0x17c>
            break;
 80013c2:	bf00      	nop
                }
            }
        }
    }
}
 80013c4:	3724      	adds	r7, #36	@ 0x24
 80013c6:	46bd      	mov	sp, r7
 80013c8:	bc80      	pop	{r7}
 80013ca:	4770      	bx	lr
 80013cc:	20000188 	.word	0x20000188
 80013d0:	08008ce0 	.word	0x08008ce0
 80013d4:	20000190 	.word	0x20000190

080013d8 <OLED_DisplayCharInverted>:

void OLED_DisplayCharInverted(int16_t x, int16_t y, char ch, uint8_t inverted) //! UPDATEDISPLAY REQUIRED
{
 80013d8:	b490      	push	{r4, r7}
 80013da:	b086      	sub	sp, #24
 80013dc:	af00      	add	r7, sp, #0
 80013de:	4604      	mov	r4, r0
 80013e0:	4608      	mov	r0, r1
 80013e2:	4611      	mov	r1, r2
 80013e4:	461a      	mov	r2, r3
 80013e6:	4623      	mov	r3, r4
 80013e8:	80fb      	strh	r3, [r7, #6]
 80013ea:	4603      	mov	r3, r0
 80013ec:	80bb      	strh	r3, [r7, #4]
 80013ee:	460b      	mov	r3, r1
 80013f0:	70fb      	strb	r3, [r7, #3]
 80013f2:	4613      	mov	r3, r2
 80013f4:	70bb      	strb	r3, [r7, #2]
    const uint8_t font_width = 6;
 80013f6:	2306      	movs	r3, #6
 80013f8:	753b      	strb	r3, [r7, #20]
    const uint8_t font_height = 8;
 80013fa:	2308      	movs	r3, #8
 80013fc:	74fb      	strb	r3, [r7, #19]

    if (ch < 32)
 80013fe:	78fb      	ldrb	r3, [r7, #3]
 8001400:	2b1f      	cmp	r3, #31
 8001402:	f240 8090 	bls.w	8001526 <OLED_DisplayCharInverted+0x14e>
        return;

    uint8_t c = ch - 32;
 8001406:	78fb      	ldrb	r3, [r7, #3]
 8001408:	3b20      	subs	r3, #32
 800140a:	74bb      	strb	r3, [r7, #18]

    for (uint8_t char_col = 0; char_col < font_width; char_col++)
 800140c:	2300      	movs	r3, #0
 800140e:	75fb      	strb	r3, [r7, #23]
 8001410:	e083      	b.n	800151a <OLED_DisplayCharInverted+0x142>
    {
        int16_t screen_x = x + char_col;
 8001412:	7dfb      	ldrb	r3, [r7, #23]
 8001414:	b29a      	uxth	r2, r3
 8001416:	88fb      	ldrh	r3, [r7, #6]
 8001418:	4413      	add	r3, r2
 800141a:	b29b      	uxth	r3, r3
 800141c:	823b      	strh	r3, [r7, #16]
        if (screen_x < 0 || screen_x >= OLED_WIDTH)
 800141e:	f9b7 3010 	ldrsh.w	r3, [r7, #16]
 8001422:	2b00      	cmp	r3, #0
 8001424:	db75      	blt.n	8001512 <OLED_DisplayCharInverted+0x13a>
 8001426:	f9b7 3010 	ldrsh.w	r3, [r7, #16]
 800142a:	2b7f      	cmp	r3, #127	@ 0x7f
 800142c:	dc71      	bgt.n	8001512 <OLED_DisplayCharInverted+0x13a>
            continue;

        if ((c * font_width + char_col) >= sizeof(OLED_FONT_6x8))
 800142e:	7cbb      	ldrb	r3, [r7, #18]
 8001430:	7d3a      	ldrb	r2, [r7, #20]
 8001432:	fb03 f202 	mul.w	r2, r3, r2
 8001436:	7dfb      	ldrb	r3, [r7, #23]
 8001438:	4413      	add	r3, r2
 800143a:	461a      	mov	r2, r3
 800143c:	f240 2321 	movw	r3, #545	@ 0x221
 8001440:	429a      	cmp	r2, r3
 8001442:	d872      	bhi.n	800152a <OLED_DisplayCharInverted+0x152>
            break;
        uint8_t font_data_col = OLED_FONT_6x8[c * font_width + char_col];
 8001444:	7cbb      	ldrb	r3, [r7, #18]
 8001446:	7d3a      	ldrb	r2, [r7, #20]
 8001448:	fb03 f202 	mul.w	r2, r3, r2
 800144c:	7dfb      	ldrb	r3, [r7, #23]
 800144e:	4413      	add	r3, r2
 8001450:	4a38      	ldr	r2, [pc, #224]	@ (8001534 <OLED_DisplayCharInverted+0x15c>)
 8001452:	5cd3      	ldrb	r3, [r2, r3]
 8001454:	75bb      	strb	r3, [r7, #22]

        if (inverted)
 8001456:	78bb      	ldrb	r3, [r7, #2]
 8001458:	2b00      	cmp	r3, #0
 800145a:	d002      	beq.n	8001462 <OLED_DisplayCharInverted+0x8a>
        {
            font_data_col = ~font_data_col;
 800145c:	7dbb      	ldrb	r3, [r7, #22]
 800145e:	43db      	mvns	r3, r3
 8001460:	75bb      	strb	r3, [r7, #22]
        }

        for (uint8_t char_row_bit = 0; char_row_bit < font_height; char_row_bit++)
 8001462:	2300      	movs	r3, #0
 8001464:	757b      	strb	r3, [r7, #21]
 8001466:	e04f      	b.n	8001508 <OLED_DisplayCharInverted+0x130>
        {
            int16_t screen_y = y + char_row_bit;
 8001468:	7d7b      	ldrb	r3, [r7, #21]
 800146a:	b29a      	uxth	r2, r3
 800146c:	88bb      	ldrh	r3, [r7, #4]
 800146e:	4413      	add	r3, r2
 8001470:	b29b      	uxth	r3, r3
 8001472:	81fb      	strh	r3, [r7, #14]
            if (screen_y < 0 || screen_y >= OLED_HEIGHT)
 8001474:	f9b7 300e 	ldrsh.w	r3, [r7, #14]
 8001478:	2b00      	cmp	r3, #0
 800147a:	db41      	blt.n	8001500 <OLED_DisplayCharInverted+0x128>
 800147c:	f9b7 300e 	ldrsh.w	r3, [r7, #14]
 8001480:	2b3f      	cmp	r3, #63	@ 0x3f
 8001482:	dc3d      	bgt.n	8001500 <OLED_DisplayCharInverted+0x128>
                continue;

            uint8_t page = (uint8_t)screen_y / 8;
 8001484:	89fb      	ldrh	r3, [r7, #14]
 8001486:	b2db      	uxtb	r3, r3
 8001488:	08db      	lsrs	r3, r3, #3
 800148a:	737b      	strb	r3, [r7, #13]
            uint8_t bit_offset_in_page = (uint8_t)screen_y % 8;
 800148c:	89fb      	ldrh	r3, [r7, #14]
 800148e:	b2db      	uxtb	r3, r3
 8001490:	f003 0307 	and.w	r3, r3, #7
 8001494:	733b      	strb	r3, [r7, #12]
            uint16_t buffer_index = (uint16_t)screen_x + page * OLED_WIDTH;
 8001496:	7b7b      	ldrb	r3, [r7, #13]
 8001498:	b29b      	uxth	r3, r3
 800149a:	01db      	lsls	r3, r3, #7
 800149c:	b29a      	uxth	r2, r3
 800149e:	8a3b      	ldrh	r3, [r7, #16]
 80014a0:	4413      	add	r3, r2
 80014a2:	817b      	strh	r3, [r7, #10]

            if (buffer_index < sizeof(OLED_BackBuffer))
 80014a4:	897b      	ldrh	r3, [r7, #10]
 80014a6:	f5b3 6f80 	cmp.w	r3, #1024	@ 0x400
 80014aa:	d22a      	bcs.n	8001502 <OLED_DisplayCharInverted+0x12a>
            {
                if ((font_data_col >> char_row_bit) & 0x01)
 80014ac:	7dba      	ldrb	r2, [r7, #22]
 80014ae:	7d7b      	ldrb	r3, [r7, #21]
 80014b0:	fa42 f303 	asr.w	r3, r2, r3
 80014b4:	f003 0301 	and.w	r3, r3, #1
 80014b8:	2b00      	cmp	r3, #0
 80014ba:	d00f      	beq.n	80014dc <OLED_DisplayCharInverted+0x104>
                {
                    OLED_BackBuffer[buffer_index] |= (1 << bit_offset_in_page);
 80014bc:	897b      	ldrh	r3, [r7, #10]
 80014be:	4a1e      	ldr	r2, [pc, #120]	@ (8001538 <OLED_DisplayCharInverted+0x160>)
 80014c0:	5cd3      	ldrb	r3, [r2, r3]
 80014c2:	b25a      	sxtb	r2, r3
 80014c4:	7b3b      	ldrb	r3, [r7, #12]
 80014c6:	2101      	movs	r1, #1
 80014c8:	fa01 f303 	lsl.w	r3, r1, r3
 80014cc:	b25b      	sxtb	r3, r3
 80014ce:	4313      	orrs	r3, r2
 80014d0:	b25a      	sxtb	r2, r3
 80014d2:	897b      	ldrh	r3, [r7, #10]
 80014d4:	b2d1      	uxtb	r1, r2
 80014d6:	4a18      	ldr	r2, [pc, #96]	@ (8001538 <OLED_DisplayCharInverted+0x160>)
 80014d8:	54d1      	strb	r1, [r2, r3]
 80014da:	e012      	b.n	8001502 <OLED_DisplayCharInverted+0x12a>
                }
                else
                {
                    OLED_BackBuffer[buffer_index] &= ~(1 << bit_offset_in_page);
 80014dc:	897b      	ldrh	r3, [r7, #10]
 80014de:	4a16      	ldr	r2, [pc, #88]	@ (8001538 <OLED_DisplayCharInverted+0x160>)
 80014e0:	5cd3      	ldrb	r3, [r2, r3]
 80014e2:	b25a      	sxtb	r2, r3
 80014e4:	7b3b      	ldrb	r3, [r7, #12]
 80014e6:	2101      	movs	r1, #1
 80014e8:	fa01 f303 	lsl.w	r3, r1, r3
 80014ec:	b25b      	sxtb	r3, r3
 80014ee:	43db      	mvns	r3, r3
 80014f0:	b25b      	sxtb	r3, r3
 80014f2:	4013      	ands	r3, r2
 80014f4:	b25a      	sxtb	r2, r3
 80014f6:	897b      	ldrh	r3, [r7, #10]
 80014f8:	b2d1      	uxtb	r1, r2
 80014fa:	4a0f      	ldr	r2, [pc, #60]	@ (8001538 <OLED_DisplayCharInverted+0x160>)
 80014fc:	54d1      	strb	r1, [r2, r3]
 80014fe:	e000      	b.n	8001502 <OLED_DisplayCharInverted+0x12a>
                continue;
 8001500:	bf00      	nop
        for (uint8_t char_row_bit = 0; char_row_bit < font_height; char_row_bit++)
 8001502:	7d7b      	ldrb	r3, [r7, #21]
 8001504:	3301      	adds	r3, #1
 8001506:	757b      	strb	r3, [r7, #21]
 8001508:	7d7a      	ldrb	r2, [r7, #21]
 800150a:	7cfb      	ldrb	r3, [r7, #19]
 800150c:	429a      	cmp	r2, r3
 800150e:	d3ab      	bcc.n	8001468 <OLED_DisplayCharInverted+0x90>
 8001510:	e000      	b.n	8001514 <OLED_DisplayCharInverted+0x13c>
            continue;
 8001512:	bf00      	nop
    for (uint8_t char_col = 0; char_col < font_width; char_col++)
 8001514:	7dfb      	ldrb	r3, [r7, #23]
 8001516:	3301      	adds	r3, #1
 8001518:	75fb      	strb	r3, [r7, #23]
 800151a:	7dfa      	ldrb	r2, [r7, #23]
 800151c:	7d3b      	ldrb	r3, [r7, #20]
 800151e:	429a      	cmp	r2, r3
 8001520:	f4ff af77 	bcc.w	8001412 <OLED_DisplayCharInverted+0x3a>
 8001524:	e002      	b.n	800152c <OLED_DisplayCharInverted+0x154>
        return;
 8001526:	bf00      	nop
 8001528:	e000      	b.n	800152c <OLED_DisplayCharInverted+0x154>
            break;
 800152a:	bf00      	nop
                }
            }
        }
    }
}
 800152c:	3718      	adds	r7, #24
 800152e:	46bd      	mov	sp, r7
 8001530:	bc90      	pop	{r4, r7}
 8001532:	4770      	bx	lr
 8001534:	08008ce0 	.word	0x08008ce0
 8001538:	20000190 	.word	0x20000190

0800153c <OLED_DisplayString>:

void OLED_DisplayString(int16_t x, int16_t y, char *str) //! UPDATEDISPLAY REQUIRED
{
 800153c:	b580      	push	{r7, lr}
 800153e:	b084      	sub	sp, #16
 8001540:	af00      	add	r7, sp, #0
 8001542:	4603      	mov	r3, r0
 8001544:	603a      	str	r2, [r7, #0]
 8001546:	80fb      	strh	r3, [r7, #6]
 8001548:	460b      	mov	r3, r1
 800154a:	80bb      	strh	r3, [r7, #4]
    uint8_t j = 0;
 800154c:	2300      	movs	r3, #0
 800154e:	73fb      	strb	r3, [r7, #15]
    const uint8_t font_width = 6;
 8001550:	2306      	movs	r3, #6
 8001552:	73bb      	strb	r3, [r7, #14]
    const uint8_t font_height = 8;
 8001554:	2308      	movs	r3, #8
 8001556:	737b      	strb	r3, [r7, #13]

    if (y >= OLED_HEIGHT || (y + font_height - 1) < 0)
 8001558:	f9b7 3004 	ldrsh.w	r3, [r7, #4]
 800155c:	2b3f      	cmp	r3, #63	@ 0x3f
 800155e:	dc34      	bgt.n	80015ca <OLED_DisplayString+0x8e>
 8001560:	f9b7 2004 	ldrsh.w	r2, [r7, #4]
 8001564:	7b7b      	ldrb	r3, [r7, #13]
 8001566:	4413      	add	r3, r2
 8001568:	2b00      	cmp	r3, #0
 800156a:	dd2e      	ble.n	80015ca <OLED_DisplayString+0x8e>
    {
        return;
    }

    int16_t current_char_x;
    while (str[j] != '\0')
 800156c:	e026      	b.n	80015bc <OLED_DisplayString+0x80>
    {
        current_char_x = x + (j * font_width);
 800156e:	7bfb      	ldrb	r3, [r7, #15]
 8001570:	b29b      	uxth	r3, r3
 8001572:	7bba      	ldrb	r2, [r7, #14]
 8001574:	b292      	uxth	r2, r2
 8001576:	fb02 f303 	mul.w	r3, r2, r3
 800157a:	b29a      	uxth	r2, r3
 800157c:	88fb      	ldrh	r3, [r7, #6]
 800157e:	4413      	add	r3, r2
 8001580:	b29b      	uxth	r3, r3
 8001582:	817b      	strh	r3, [r7, #10]
        if (current_char_x >= OLED_WIDTH)
 8001584:	f9b7 300a 	ldrsh.w	r3, [r7, #10]
 8001588:	2b7f      	cmp	r3, #127	@ 0x7f
 800158a:	dc20      	bgt.n	80015ce <OLED_DisplayString+0x92>
        {
            break;
        }
        if ((current_char_x + font_width - 1) < 0)
 800158c:	f9b7 200a 	ldrsh.w	r2, [r7, #10]
 8001590:	7bbb      	ldrb	r3, [r7, #14]
 8001592:	4413      	add	r3, r2
 8001594:	2b00      	cmp	r3, #0
 8001596:	dc03      	bgt.n	80015a0 <OLED_DisplayString+0x64>
        {
            j++;
 8001598:	7bfb      	ldrb	r3, [r7, #15]
 800159a:	3301      	adds	r3, #1
 800159c:	73fb      	strb	r3, [r7, #15]
            continue;
 800159e:	e00d      	b.n	80015bc <OLED_DisplayString+0x80>
        }
        OLED_DisplayChar(current_char_x, y, str[j]);
 80015a0:	7bfb      	ldrb	r3, [r7, #15]
 80015a2:	683a      	ldr	r2, [r7, #0]
 80015a4:	4413      	add	r3, r2
 80015a6:	781a      	ldrb	r2, [r3, #0]
 80015a8:	f9b7 1004 	ldrsh.w	r1, [r7, #4]
 80015ac:	f9b7 300a 	ldrsh.w	r3, [r7, #10]
 80015b0:	4618      	mov	r0, r3
 80015b2:	f7ff fe49 	bl	8001248 <OLED_DisplayChar>
        j++;
 80015b6:	7bfb      	ldrb	r3, [r7, #15]
 80015b8:	3301      	adds	r3, #1
 80015ba:	73fb      	strb	r3, [r7, #15]
    while (str[j] != '\0')
 80015bc:	7bfb      	ldrb	r3, [r7, #15]
 80015be:	683a      	ldr	r2, [r7, #0]
 80015c0:	4413      	add	r3, r2
 80015c2:	781b      	ldrb	r3, [r3, #0]
 80015c4:	2b00      	cmp	r3, #0
 80015c6:	d1d2      	bne.n	800156e <OLED_DisplayString+0x32>
 80015c8:	e002      	b.n	80015d0 <OLED_DisplayString+0x94>
        return;
 80015ca:	bf00      	nop
 80015cc:	e000      	b.n	80015d0 <OLED_DisplayString+0x94>
            break;
 80015ce:	bf00      	nop
    }
}
 80015d0:	3710      	adds	r7, #16
 80015d2:	46bd      	mov	sp, r7
 80015d4:	bd80      	pop	{r7, pc}

080015d6 <OLED_DisplayStringInverted>:

void OLED_DisplayStringInverted(int16_t x, int16_t y, char *str, uint8_t inverted) //! UPDATEDISPLAY REQUIRED
{
 80015d6:	b580      	push	{r7, lr}
 80015d8:	b086      	sub	sp, #24
 80015da:	af00      	add	r7, sp, #0
 80015dc:	60ba      	str	r2, [r7, #8]
 80015de:	461a      	mov	r2, r3
 80015e0:	4603      	mov	r3, r0
 80015e2:	81fb      	strh	r3, [r7, #14]
 80015e4:	460b      	mov	r3, r1
 80015e6:	81bb      	strh	r3, [r7, #12]
 80015e8:	4613      	mov	r3, r2
 80015ea:	71fb      	strb	r3, [r7, #7]
    uint8_t j = 0;
 80015ec:	2300      	movs	r3, #0
 80015ee:	75fb      	strb	r3, [r7, #23]
    const uint8_t font_width = 6;
 80015f0:	2306      	movs	r3, #6
 80015f2:	75bb      	strb	r3, [r7, #22]
    const uint8_t font_height = 8;
 80015f4:	2308      	movs	r3, #8
 80015f6:	757b      	strb	r3, [r7, #21]

    if (y >= OLED_HEIGHT || (y + font_height - 1) < 0)
 80015f8:	f9b7 300c 	ldrsh.w	r3, [r7, #12]
 80015fc:	2b3f      	cmp	r3, #63	@ 0x3f
 80015fe:	dc34      	bgt.n	800166a <OLED_DisplayStringInverted+0x94>
 8001600:	f9b7 200c 	ldrsh.w	r2, [r7, #12]
 8001604:	7d7b      	ldrb	r3, [r7, #21]
 8001606:	4413      	add	r3, r2
 8001608:	2b00      	cmp	r3, #0
 800160a:	dd2e      	ble.n	800166a <OLED_DisplayStringInverted+0x94>
    {
        return;
    }

    int16_t current_char_x;
    while (str[j] != '\0')
 800160c:	e026      	b.n	800165c <OLED_DisplayStringInverted+0x86>
    {
        current_char_x = x + (j * font_width);
 800160e:	7dfb      	ldrb	r3, [r7, #23]
 8001610:	b29b      	uxth	r3, r3
 8001612:	7dba      	ldrb	r2, [r7, #22]
 8001614:	b292      	uxth	r2, r2
 8001616:	fb02 f303 	mul.w	r3, r2, r3
 800161a:	b29a      	uxth	r2, r3
 800161c:	89fb      	ldrh	r3, [r7, #14]
 800161e:	4413      	add	r3, r2
 8001620:	b29b      	uxth	r3, r3
 8001622:	827b      	strh	r3, [r7, #18]
        if (current_char_x >= OLED_WIDTH)
 8001624:	f9b7 3012 	ldrsh.w	r3, [r7, #18]
 8001628:	2b7f      	cmp	r3, #127	@ 0x7f
 800162a:	dc20      	bgt.n	800166e <OLED_DisplayStringInverted+0x98>
        {
            break;
        }
        if ((current_char_x + font_width - 1) < 0)
 800162c:	f9b7 2012 	ldrsh.w	r2, [r7, #18]
 8001630:	7dbb      	ldrb	r3, [r7, #22]
 8001632:	4413      	add	r3, r2
 8001634:	2b00      	cmp	r3, #0
 8001636:	dc03      	bgt.n	8001640 <OLED_DisplayStringInverted+0x6a>
        {
            j++;
 8001638:	7dfb      	ldrb	r3, [r7, #23]
 800163a:	3301      	adds	r3, #1
 800163c:	75fb      	strb	r3, [r7, #23]
            continue;
 800163e:	e00d      	b.n	800165c <OLED_DisplayStringInverted+0x86>
        }
        OLED_DisplayCharInverted(current_char_x, y, str[j], inverted);
 8001640:	7dfb      	ldrb	r3, [r7, #23]
 8001642:	68ba      	ldr	r2, [r7, #8]
 8001644:	4413      	add	r3, r2
 8001646:	781a      	ldrb	r2, [r3, #0]
 8001648:	79fb      	ldrb	r3, [r7, #7]
 800164a:	f9b7 100c 	ldrsh.w	r1, [r7, #12]
 800164e:	f9b7 0012 	ldrsh.w	r0, [r7, #18]
 8001652:	f7ff fec1 	bl	80013d8 <OLED_DisplayCharInverted>
        j++;
 8001656:	7dfb      	ldrb	r3, [r7, #23]
 8001658:	3301      	adds	r3, #1
 800165a:	75fb      	strb	r3, [r7, #23]
    while (str[j] != '\0')
 800165c:	7dfb      	ldrb	r3, [r7, #23]
 800165e:	68ba      	ldr	r2, [r7, #8]
 8001660:	4413      	add	r3, r2
 8001662:	781b      	ldrb	r3, [r3, #0]
 8001664:	2b00      	cmp	r3, #0
 8001666:	d1d2      	bne.n	800160e <OLED_DisplayStringInverted+0x38>
 8001668:	e002      	b.n	8001670 <OLED_DisplayStringInverted+0x9a>
        return;
 800166a:	bf00      	nop
 800166c:	e000      	b.n	8001670 <OLED_DisplayStringInverted+0x9a>
            break;
 800166e:	bf00      	nop
    }
}
 8001670:	3718      	adds	r7, #24
 8001672:	46bd      	mov	sp, r7
 8001674:	bd80      	pop	{r7, pc}
	...

08001678 <System_UI_Loop>:
#define OLED_TITLE_End_Y 0
#define StartTweenTime 2500
#define TweenStyle EASE_INOUT_ELASTIC

void System_UI_Loop()
{
 8001678:	b5f0      	push	{r4, r5, r6, r7, lr}
 800167a:	b08b      	sub	sp, #44	@ 0x2c
 800167c:	af04      	add	r7, sp, #16
    static bool isFirstRun = true;  
    float x, y, x1, y1;
    uint16_t preMenuSelection;
    if (isFirstRun)
 800167e:	4ba2      	ldr	r3, [pc, #648]	@ (8001908 <System_UI_Loop+0x290>)
 8001680:	781b      	ldrb	r3, [r3, #0]
 8001682:	2b00      	cmp	r3, #0
 8001684:	f000 8194 	beq.w	80019b0 <System_UI_Loop+0x338>
    {
        #pragma region 标题栏
        OLED_MoveObject(&g_Title_AnimationManager, "TitleGames", (OLED_WIDTH - strlen("Epicful Games") * 6), OLED_TITLE_Start_Y, (OLED_WIDTH - strlen("Epicful Games") * 6), OLED_TITLE_End_Y, StartTweenTime, TweenStyle);
 8001688:	230f      	movs	r3, #15
 800168a:	9303      	str	r3, [sp, #12]
 800168c:	f640 13c4 	movw	r3, #2500	@ 0x9c4
 8001690:	9302      	str	r3, [sp, #8]
 8001692:	f04f 0300 	mov.w	r3, #0
 8001696:	9301      	str	r3, [sp, #4]
 8001698:	4b9c      	ldr	r3, [pc, #624]	@ (800190c <System_UI_Loop+0x294>)
 800169a:	9300      	str	r3, [sp, #0]
 800169c:	4b9c      	ldr	r3, [pc, #624]	@ (8001910 <System_UI_Loop+0x298>)
 800169e:	4a9b      	ldr	r2, [pc, #620]	@ (800190c <System_UI_Loop+0x294>)
 80016a0:	499c      	ldr	r1, [pc, #624]	@ (8001914 <System_UI_Loop+0x29c>)
 80016a2:	489d      	ldr	r0, [pc, #628]	@ (8001918 <System_UI_Loop+0x2a0>)
 80016a4:	f002 fa57 	bl	8003b56 <OLED_MoveObject>
        OLED_MoveObject(&g_Title_AnimationManager, "TitleTools", (OLED_WIDTH - strlen("Tools For You") * 6), OLED_TITLE_Start_Y, (OLED_WIDTH - strlen("Tools For You") * 6), OLED_TITLE_Start_Y, StartTweenTime, TweenStyle);
 80016a8:	230f      	movs	r3, #15
 80016aa:	9303      	str	r3, [sp, #12]
 80016ac:	f640 13c4 	movw	r3, #2500	@ 0x9c4
 80016b0:	9302      	str	r3, [sp, #8]
 80016b2:	4b97      	ldr	r3, [pc, #604]	@ (8001910 <System_UI_Loop+0x298>)
 80016b4:	9301      	str	r3, [sp, #4]
 80016b6:	4b95      	ldr	r3, [pc, #596]	@ (800190c <System_UI_Loop+0x294>)
 80016b8:	9300      	str	r3, [sp, #0]
 80016ba:	4b95      	ldr	r3, [pc, #596]	@ (8001910 <System_UI_Loop+0x298>)
 80016bc:	4a93      	ldr	r2, [pc, #588]	@ (800190c <System_UI_Loop+0x294>)
 80016be:	4997      	ldr	r1, [pc, #604]	@ (800191c <System_UI_Loop+0x2a4>)
 80016c0:	4895      	ldr	r0, [pc, #596]	@ (8001918 <System_UI_Loop+0x2a0>)
 80016c2:	f002 fa48 	bl	8003b56 <OLED_MoveObject>
        OLED_MoveObject(&g_Title_AnimationManager, "TitleStatus", (OLED_WIDTH - strlen("Machine States") * 6), OLED_TITLE_Start_Y, (OLED_WIDTH - strlen("Machine States") * 6), OLED_TITLE_Start_Y, StartTweenTime, TweenStyle);
 80016c6:	230f      	movs	r3, #15
 80016c8:	9303      	str	r3, [sp, #12]
 80016ca:	f640 13c4 	movw	r3, #2500	@ 0x9c4
 80016ce:	9302      	str	r3, [sp, #8]
 80016d0:	4b8f      	ldr	r3, [pc, #572]	@ (8001910 <System_UI_Loop+0x298>)
 80016d2:	9301      	str	r3, [sp, #4]
 80016d4:	4b92      	ldr	r3, [pc, #584]	@ (8001920 <System_UI_Loop+0x2a8>)
 80016d6:	9300      	str	r3, [sp, #0]
 80016d8:	4b8d      	ldr	r3, [pc, #564]	@ (8001910 <System_UI_Loop+0x298>)
 80016da:	4a91      	ldr	r2, [pc, #580]	@ (8001920 <System_UI_Loop+0x2a8>)
 80016dc:	4991      	ldr	r1, [pc, #580]	@ (8001924 <System_UI_Loop+0x2ac>)
 80016de:	488e      	ldr	r0, [pc, #568]	@ (8001918 <System_UI_Loop+0x2a0>)
 80016e0:	f002 fa39 	bl	8003b56 <OLED_MoveObject>
        OLED_MoveObject(&g_Title_AnimationManager, "TitleSettings", (OLED_WIDTH - strlen("STM Settings") * 6), OLED_TITLE_Start_Y, (OLED_WIDTH - strlen("STM Settings") * 6), OLED_TITLE_Start_Y, StartTweenTime, TweenStyle);
 80016e4:	230f      	movs	r3, #15
 80016e6:	9303      	str	r3, [sp, #12]
 80016e8:	f640 13c4 	movw	r3, #2500	@ 0x9c4
 80016ec:	9302      	str	r3, [sp, #8]
 80016ee:	4b88      	ldr	r3, [pc, #544]	@ (8001910 <System_UI_Loop+0x298>)
 80016f0:	9301      	str	r3, [sp, #4]
 80016f2:	4b8d      	ldr	r3, [pc, #564]	@ (8001928 <System_UI_Loop+0x2b0>)
 80016f4:	9300      	str	r3, [sp, #0]
 80016f6:	4b86      	ldr	r3, [pc, #536]	@ (8001910 <System_UI_Loop+0x298>)
 80016f8:	4a8b      	ldr	r2, [pc, #556]	@ (8001928 <System_UI_Loop+0x2b0>)
 80016fa:	498c      	ldr	r1, [pc, #560]	@ (800192c <System_UI_Loop+0x2b4>)
 80016fc:	4886      	ldr	r0, [pc, #536]	@ (8001918 <System_UI_Loop+0x2a0>)
 80016fe:	f002 fa2a 	bl	8003b56 <OLED_MoveObject>
        OLED_MoveObject(&g_Title_AnimationManager, "TitleAbout", (OLED_WIDTH - strlen("Developer") * 6), OLED_TITLE_Start_Y, (OLED_WIDTH - strlen("Developer") * 6), OLED_TITLE_Start_Y, StartTweenTime, TweenStyle);
 8001702:	230f      	movs	r3, #15
 8001704:	9303      	str	r3, [sp, #12]
 8001706:	f640 13c4 	movw	r3, #2500	@ 0x9c4
 800170a:	9302      	str	r3, [sp, #8]
 800170c:	4b80      	ldr	r3, [pc, #512]	@ (8001910 <System_UI_Loop+0x298>)
 800170e:	9301      	str	r3, [sp, #4]
 8001710:	4b87      	ldr	r3, [pc, #540]	@ (8001930 <System_UI_Loop+0x2b8>)
 8001712:	9300      	str	r3, [sp, #0]
 8001714:	4b7e      	ldr	r3, [pc, #504]	@ (8001910 <System_UI_Loop+0x298>)
 8001716:	4a86      	ldr	r2, [pc, #536]	@ (8001930 <System_UI_Loop+0x2b8>)
 8001718:	4986      	ldr	r1, [pc, #536]	@ (8001934 <System_UI_Loop+0x2bc>)
 800171a:	487f      	ldr	r0, [pc, #508]	@ (8001918 <System_UI_Loop+0x2a0>)
 800171c:	f002 fa1b 	bl	8003b56 <OLED_MoveObject>
        
        OLED_MoveObject(&g_Title_AnimationManager, "SnakeTitle", (OLED_WIDTH - strlen("Greedy Snake") * 6), OLED_TITLE_Start_Y, (OLED_WIDTH - strlen("Greedy Snake") * 6), OLED_TITLE_Start_Y, StartTweenTime, TweenStyle);
 8001720:	230f      	movs	r3, #15
 8001722:	9303      	str	r3, [sp, #12]
 8001724:	f640 13c4 	movw	r3, #2500	@ 0x9c4
 8001728:	9302      	str	r3, [sp, #8]
 800172a:	4b79      	ldr	r3, [pc, #484]	@ (8001910 <System_UI_Loop+0x298>)
 800172c:	9301      	str	r3, [sp, #4]
 800172e:	4b7e      	ldr	r3, [pc, #504]	@ (8001928 <System_UI_Loop+0x2b0>)
 8001730:	9300      	str	r3, [sp, #0]
 8001732:	4b77      	ldr	r3, [pc, #476]	@ (8001910 <System_UI_Loop+0x298>)
 8001734:	4a7c      	ldr	r2, [pc, #496]	@ (8001928 <System_UI_Loop+0x2b0>)
 8001736:	4980      	ldr	r1, [pc, #512]	@ (8001938 <System_UI_Loop+0x2c0>)
 8001738:	4877      	ldr	r0, [pc, #476]	@ (8001918 <System_UI_Loop+0x2a0>)
 800173a:	f002 fa0c 	bl	8003b56 <OLED_MoveObject>
        OLED_MoveObject(&g_Title_AnimationManager, "Title2048", (OLED_WIDTH - strlen("Here is 2048!") * 6), OLED_TITLE_Start_Y, (OLED_WIDTH - strlen("Here is 2048!") * 6), OLED_TITLE_Start_Y, StartTweenTime, TweenStyle);
 800173e:	230f      	movs	r3, #15
 8001740:	9303      	str	r3, [sp, #12]
 8001742:	f640 13c4 	movw	r3, #2500	@ 0x9c4
 8001746:	9302      	str	r3, [sp, #8]
 8001748:	4b71      	ldr	r3, [pc, #452]	@ (8001910 <System_UI_Loop+0x298>)
 800174a:	9301      	str	r3, [sp, #4]
 800174c:	4b6f      	ldr	r3, [pc, #444]	@ (800190c <System_UI_Loop+0x294>)
 800174e:	9300      	str	r3, [sp, #0]
 8001750:	4b6f      	ldr	r3, [pc, #444]	@ (8001910 <System_UI_Loop+0x298>)
 8001752:	4a6e      	ldr	r2, [pc, #440]	@ (800190c <System_UI_Loop+0x294>)
 8001754:	4979      	ldr	r1, [pc, #484]	@ (800193c <System_UI_Loop+0x2c4>)
 8001756:	4870      	ldr	r0, [pc, #448]	@ (8001918 <System_UI_Loop+0x2a0>)
 8001758:	f002 f9fd 	bl	8003b56 <OLED_MoveObject>
        OLED_MoveObject(&g_Title_AnimationManager, "TitleBack", (OLED_WIDTH - strlen("Back To Menu") * 6) , OLED_TITLE_Start_Y, (OLED_WIDTH - strlen("Back To Menu") * 6), OLED_TITLE_Start_Y, StartTweenTime, TweenStyle);
 800175c:	230f      	movs	r3, #15
 800175e:	9303      	str	r3, [sp, #12]
 8001760:	f640 13c4 	movw	r3, #2500	@ 0x9c4
 8001764:	9302      	str	r3, [sp, #8]
 8001766:	4b6a      	ldr	r3, [pc, #424]	@ (8001910 <System_UI_Loop+0x298>)
 8001768:	9301      	str	r3, [sp, #4]
 800176a:	4b6f      	ldr	r3, [pc, #444]	@ (8001928 <System_UI_Loop+0x2b0>)
 800176c:	9300      	str	r3, [sp, #0]
 800176e:	4b68      	ldr	r3, [pc, #416]	@ (8001910 <System_UI_Loop+0x298>)
 8001770:	4a6d      	ldr	r2, [pc, #436]	@ (8001928 <System_UI_Loop+0x2b0>)
 8001772:	4973      	ldr	r1, [pc, #460]	@ (8001940 <System_UI_Loop+0x2c8>)
 8001774:	4868      	ldr	r0, [pc, #416]	@ (8001918 <System_UI_Loop+0x2a0>)
 8001776:	f002 f9ee 	bl	8003b56 <OLED_MoveObject>
        #pragma endregion 标题栏

        OLED_MoveObject(&Games_AnimationManager, "Snake", OLED_UI_START_X, OLED_UI_START_Y + OLED_UI_GAP_Y * 1, OLED_UI_START_X, OLED_UI_START_Y + OLED_UI_GAP_Y * 1, 1, TweenStyle);
 800177a:	230f      	movs	r3, #15
 800177c:	9303      	str	r3, [sp, #12]
 800177e:	2301      	movs	r3, #1
 8001780:	9302      	str	r3, [sp, #8]
 8001782:	f04f 4383 	mov.w	r3, #1098907648	@ 0x41800000
 8001786:	9301      	str	r3, [sp, #4]
 8001788:	4b6e      	ldr	r3, [pc, #440]	@ (8001944 <System_UI_Loop+0x2cc>)
 800178a:	9300      	str	r3, [sp, #0]
 800178c:	f04f 4383 	mov.w	r3, #1098907648	@ 0x41800000
 8001790:	4a6c      	ldr	r2, [pc, #432]	@ (8001944 <System_UI_Loop+0x2cc>)
 8001792:	496d      	ldr	r1, [pc, #436]	@ (8001948 <System_UI_Loop+0x2d0>)
 8001794:	486d      	ldr	r0, [pc, #436]	@ (800194c <System_UI_Loop+0x2d4>)
 8001796:	f002 f9de 	bl	8003b56 <OLED_MoveObject>
        OLED_MoveObject(&Games_AnimationManager, "2048", OLED_UI_START_X, OLED_UI_START_Y + OLED_UI_GAP_Y * 2, OLED_UI_START_X, OLED_UI_START_Y + OLED_UI_GAP_Y * 2, 1, TweenStyle);
 800179a:	230f      	movs	r3, #15
 800179c:	9303      	str	r3, [sp, #12]
 800179e:	2301      	movs	r3, #1
 80017a0:	9302      	str	r3, [sp, #8]
 80017a2:	4b6b      	ldr	r3, [pc, #428]	@ (8001950 <System_UI_Loop+0x2d8>)
 80017a4:	9301      	str	r3, [sp, #4]
 80017a6:	4b67      	ldr	r3, [pc, #412]	@ (8001944 <System_UI_Loop+0x2cc>)
 80017a8:	9300      	str	r3, [sp, #0]
 80017aa:	4b69      	ldr	r3, [pc, #420]	@ (8001950 <System_UI_Loop+0x2d8>)
 80017ac:	4a65      	ldr	r2, [pc, #404]	@ (8001944 <System_UI_Loop+0x2cc>)
 80017ae:	4969      	ldr	r1, [pc, #420]	@ (8001954 <System_UI_Loop+0x2dc>)
 80017b0:	4866      	ldr	r0, [pc, #408]	@ (800194c <System_UI_Loop+0x2d4>)
 80017b2:	f002 f9d0 	bl	8003b56 <OLED_MoveObject>
        OLED_MoveObject(&g_AnimationManager, "BackButton", OLED_UI_START_X, OLED_UI_START_Y + OLED_UI_GAP_Y * 3, OLED_UI_START_X, OLED_UI_START_Y + OLED_UI_GAP_Y * 3, 1, TweenStyle);
 80017b6:	230f      	movs	r3, #15
 80017b8:	9303      	str	r3, [sp, #12]
 80017ba:	2301      	movs	r3, #1
 80017bc:	9302      	str	r3, [sp, #8]
 80017be:	4b66      	ldr	r3, [pc, #408]	@ (8001958 <System_UI_Loop+0x2e0>)
 80017c0:	9301      	str	r3, [sp, #4]
 80017c2:	4b60      	ldr	r3, [pc, #384]	@ (8001944 <System_UI_Loop+0x2cc>)
 80017c4:	9300      	str	r3, [sp, #0]
 80017c6:	4b64      	ldr	r3, [pc, #400]	@ (8001958 <System_UI_Loop+0x2e0>)
 80017c8:	4a5e      	ldr	r2, [pc, #376]	@ (8001944 <System_UI_Loop+0x2cc>)
 80017ca:	4964      	ldr	r1, [pc, #400]	@ (800195c <System_UI_Loop+0x2e4>)
 80017cc:	4864      	ldr	r0, [pc, #400]	@ (8001960 <System_UI_Loop+0x2e8>)
 80017ce:	f002 f9c2 	bl	8003b56 <OLED_MoveObject>

        #pragma region 主菜单动画
        OLED_MoveObject(&g_AnimationManager, "TitleBGScale", 0, 8, strlen("Epicful Games")*6+3, 8, StartTweenTime, EASE_INOUT_CUBIC);
 80017d2:	2306      	movs	r3, #6
 80017d4:	9303      	str	r3, [sp, #12]
 80017d6:	f640 13c4 	movw	r3, #2500	@ 0x9c4
 80017da:	9302      	str	r3, [sp, #8]
 80017dc:	f04f 4382 	mov.w	r3, #1090519040	@ 0x41000000
 80017e0:	9301      	str	r3, [sp, #4]
 80017e2:	4b60      	ldr	r3, [pc, #384]	@ (8001964 <System_UI_Loop+0x2ec>)
 80017e4:	9300      	str	r3, [sp, #0]
 80017e6:	f04f 4382 	mov.w	r3, #1090519040	@ 0x41000000
 80017ea:	f04f 0200 	mov.w	r2, #0
 80017ee:	495e      	ldr	r1, [pc, #376]	@ (8001968 <System_UI_Loop+0x2f0>)
 80017f0:	485b      	ldr	r0, [pc, #364]	@ (8001960 <System_UI_Loop+0x2e8>)
 80017f2:	f002 f9b0 	bl	8003b56 <OLED_MoveObject>
        OLED_MoveObject(&g_AnimationManager, "Cursor", OLED_UI_START_X, OLED_UI_START_Y + OLED_UI_GAP_Y * menuSelection, OLED_UI_END_X, OLED_UI_START_Y + OLED_UI_GAP_Y * menuSelection, StartTweenTime, TweenStyle);
 80017f6:	4b5d      	ldr	r3, [pc, #372]	@ (800196c <System_UI_Loop+0x2f4>)
 80017f8:	781b      	ldrb	r3, [r3, #0]
 80017fa:	461a      	mov	r2, r3
 80017fc:	4613      	mov	r3, r2
 80017fe:	005b      	lsls	r3, r3, #1
 8001800:	4413      	add	r3, r2
 8001802:	009b      	lsls	r3, r3, #2
 8001804:	4413      	add	r3, r2
 8001806:	3303      	adds	r3, #3
 8001808:	4618      	mov	r0, r3
 800180a:	f7fe fd6b 	bl	80002e4 <__aeabi_i2f>
 800180e:	4604      	mov	r4, r0
 8001810:	4b56      	ldr	r3, [pc, #344]	@ (800196c <System_UI_Loop+0x2f4>)
 8001812:	781b      	ldrb	r3, [r3, #0]
 8001814:	461a      	mov	r2, r3
 8001816:	4613      	mov	r3, r2
 8001818:	005b      	lsls	r3, r3, #1
 800181a:	4413      	add	r3, r2
 800181c:	009b      	lsls	r3, r3, #2
 800181e:	4413      	add	r3, r2
 8001820:	3303      	adds	r3, #3
 8001822:	4618      	mov	r0, r3
 8001824:	f7fe fd5e 	bl	80002e4 <__aeabi_i2f>
 8001828:	4603      	mov	r3, r0
 800182a:	220f      	movs	r2, #15
 800182c:	9203      	str	r2, [sp, #12]
 800182e:	f640 12c4 	movw	r2, #2500	@ 0x9c4
 8001832:	9202      	str	r2, [sp, #8]
 8001834:	9301      	str	r3, [sp, #4]
 8001836:	f04f 4380 	mov.w	r3, #1073741824	@ 0x40000000
 800183a:	9300      	str	r3, [sp, #0]
 800183c:	4623      	mov	r3, r4
 800183e:	4a41      	ldr	r2, [pc, #260]	@ (8001944 <System_UI_Loop+0x2cc>)
 8001840:	494b      	ldr	r1, [pc, #300]	@ (8001970 <System_UI_Loop+0x2f8>)
 8001842:	4847      	ldr	r0, [pc, #284]	@ (8001960 <System_UI_Loop+0x2e8>)
 8001844:	f002 f987 	bl	8003b56 <OLED_MoveObject>
        OLED_MoveObject(&g_AnimationManager, "CursorScale",  0, 10, strlen("Games")*6+ 3, 10 , StartTweenTime, TweenStyle);
 8001848:	230f      	movs	r3, #15
 800184a:	9303      	str	r3, [sp, #12]
 800184c:	f640 13c4 	movw	r3, #2500	@ 0x9c4
 8001850:	9302      	str	r3, [sp, #8]
 8001852:	4b48      	ldr	r3, [pc, #288]	@ (8001974 <System_UI_Loop+0x2fc>)
 8001854:	9301      	str	r3, [sp, #4]
 8001856:	4b48      	ldr	r3, [pc, #288]	@ (8001978 <System_UI_Loop+0x300>)
 8001858:	9300      	str	r3, [sp, #0]
 800185a:	4b46      	ldr	r3, [pc, #280]	@ (8001974 <System_UI_Loop+0x2fc>)
 800185c:	f04f 0200 	mov.w	r2, #0
 8001860:	4946      	ldr	r1, [pc, #280]	@ (800197c <System_UI_Loop+0x304>)
 8001862:	483f      	ldr	r0, [pc, #252]	@ (8001960 <System_UI_Loop+0x2e8>)
 8001864:	f002 f977 	bl	8003b56 <OLED_MoveObject>
        OLED_MoveObject(&Menu_AnimationManager, "GamesButton", OLED_UI_START_X, OLED_UI_START_Y + OLED_UI_GAP_Y * 1, OLED_UI_END_X, OLED_UI_START_Y + OLED_UI_GAP_Y * 1, StartTweenTime, TweenStyle);
 8001868:	230f      	movs	r3, #15
 800186a:	9303      	str	r3, [sp, #12]
 800186c:	f640 13c4 	movw	r3, #2500	@ 0x9c4
 8001870:	9302      	str	r3, [sp, #8]
 8001872:	f04f 4383 	mov.w	r3, #1098907648	@ 0x41800000
 8001876:	9301      	str	r3, [sp, #4]
 8001878:	f04f 4380 	mov.w	r3, #1073741824	@ 0x40000000
 800187c:	9300      	str	r3, [sp, #0]
 800187e:	f04f 4383 	mov.w	r3, #1098907648	@ 0x41800000
 8001882:	4a30      	ldr	r2, [pc, #192]	@ (8001944 <System_UI_Loop+0x2cc>)
 8001884:	493e      	ldr	r1, [pc, #248]	@ (8001980 <System_UI_Loop+0x308>)
 8001886:	483f      	ldr	r0, [pc, #252]	@ (8001984 <System_UI_Loop+0x30c>)
 8001888:	f002 f965 	bl	8003b56 <OLED_MoveObject>
        // HAL_Delay(100);
        OLED_MoveObject(&Menu_AnimationManager, "ToolsButton", OLED_UI_START_X, OLED_UI_START_Y + OLED_UI_GAP_Y * 2, OLED_UI_END_X, OLED_UI_START_Y + OLED_UI_GAP_Y * 2, StartTweenTime, TweenStyle);
 800188c:	230f      	movs	r3, #15
 800188e:	9303      	str	r3, [sp, #12]
 8001890:	f640 13c4 	movw	r3, #2500	@ 0x9c4
 8001894:	9302      	str	r3, [sp, #8]
 8001896:	4b2e      	ldr	r3, [pc, #184]	@ (8001950 <System_UI_Loop+0x2d8>)
 8001898:	9301      	str	r3, [sp, #4]
 800189a:	f04f 4380 	mov.w	r3, #1073741824	@ 0x40000000
 800189e:	9300      	str	r3, [sp, #0]
 80018a0:	4b2b      	ldr	r3, [pc, #172]	@ (8001950 <System_UI_Loop+0x2d8>)
 80018a2:	4a28      	ldr	r2, [pc, #160]	@ (8001944 <System_UI_Loop+0x2cc>)
 80018a4:	4938      	ldr	r1, [pc, #224]	@ (8001988 <System_UI_Loop+0x310>)
 80018a6:	4837      	ldr	r0, [pc, #220]	@ (8001984 <System_UI_Loop+0x30c>)
 80018a8:	f002 f955 	bl	8003b56 <OLED_MoveObject>
        // HAL_Delay(100);
        OLED_MoveObject(&Menu_AnimationManager, "StatusButton", OLED_UI_START_X, OLED_UI_START_Y + OLED_UI_GAP_Y * 3, OLED_UI_END_X, OLED_UI_START_Y + OLED_UI_GAP_Y * 3, StartTweenTime, TweenStyle);
 80018ac:	230f      	movs	r3, #15
 80018ae:	9303      	str	r3, [sp, #12]
 80018b0:	f640 13c4 	movw	r3, #2500	@ 0x9c4
 80018b4:	9302      	str	r3, [sp, #8]
 80018b6:	4b28      	ldr	r3, [pc, #160]	@ (8001958 <System_UI_Loop+0x2e0>)
 80018b8:	9301      	str	r3, [sp, #4]
 80018ba:	f04f 4380 	mov.w	r3, #1073741824	@ 0x40000000
 80018be:	9300      	str	r3, [sp, #0]
 80018c0:	4b25      	ldr	r3, [pc, #148]	@ (8001958 <System_UI_Loop+0x2e0>)
 80018c2:	4a20      	ldr	r2, [pc, #128]	@ (8001944 <System_UI_Loop+0x2cc>)
 80018c4:	4931      	ldr	r1, [pc, #196]	@ (800198c <System_UI_Loop+0x314>)
 80018c6:	482f      	ldr	r0, [pc, #188]	@ (8001984 <System_UI_Loop+0x30c>)
 80018c8:	f002 f945 	bl	8003b56 <OLED_MoveObject>
        // HAL_Delay(100);
        OLED_MoveObject(&Menu_AnimationManager, "SettingsButton", OLED_UI_START_X, OLED_UI_START_Y + OLED_UI_GAP_Y * 4, OLED_UI_END_X, OLED_UI_START_Y + OLED_UI_GAP_Y * 4, StartTweenTime, TweenStyle);
 80018cc:	230f      	movs	r3, #15
 80018ce:	9303      	str	r3, [sp, #12]
 80018d0:	f640 13c4 	movw	r3, #2500	@ 0x9c4
 80018d4:	9302      	str	r3, [sp, #8]
 80018d6:	4b2e      	ldr	r3, [pc, #184]	@ (8001990 <System_UI_Loop+0x318>)
 80018d8:	9301      	str	r3, [sp, #4]
 80018da:	f04f 4380 	mov.w	r3, #1073741824	@ 0x40000000
 80018de:	9300      	str	r3, [sp, #0]
 80018e0:	4b2b      	ldr	r3, [pc, #172]	@ (8001990 <System_UI_Loop+0x318>)
 80018e2:	4a18      	ldr	r2, [pc, #96]	@ (8001944 <System_UI_Loop+0x2cc>)
 80018e4:	492b      	ldr	r1, [pc, #172]	@ (8001994 <System_UI_Loop+0x31c>)
 80018e6:	4827      	ldr	r0, [pc, #156]	@ (8001984 <System_UI_Loop+0x30c>)
 80018e8:	f002 f935 	bl	8003b56 <OLED_MoveObject>
        // HAL_Delay(100);
        OLED_MoveObject(&Menu_AnimationManager, "AboutButton", OLED_UI_START_X, OLED_UI_START_Y + OLED_UI_GAP_Y * 5, OLED_UI_END_X, OLED_UI_START_Y + OLED_UI_GAP_Y * 5, StartTweenTime, TweenStyle);
 80018ec:	230f      	movs	r3, #15
 80018ee:	9303      	str	r3, [sp, #12]
 80018f0:	f640 13c4 	movw	r3, #2500	@ 0x9c4
 80018f4:	9302      	str	r3, [sp, #8]
 80018f6:	4b28      	ldr	r3, [pc, #160]	@ (8001998 <System_UI_Loop+0x320>)
 80018f8:	9301      	str	r3, [sp, #4]
 80018fa:	f04f 4380 	mov.w	r3, #1073741824	@ 0x40000000
 80018fe:	9300      	str	r3, [sp, #0]
 8001900:	4b25      	ldr	r3, [pc, #148]	@ (8001998 <System_UI_Loop+0x320>)
 8001902:	4a10      	ldr	r2, [pc, #64]	@ (8001944 <System_UI_Loop+0x2cc>)
 8001904:	4925      	ldr	r1, [pc, #148]	@ (800199c <System_UI_Loop+0x324>)
 8001906:	e04b      	b.n	80019a0 <System_UI_Loop+0x328>
 8001908:	20000002 	.word	0x20000002
 800190c:	42480000 	.word	0x42480000
 8001910:	c1200000 	.word	0xc1200000
 8001914:	08008b30 	.word	0x08008b30
 8001918:	2000315c 	.word	0x2000315c
 800191c:	08008b3c 	.word	0x08008b3c
 8001920:	42300000 	.word	0x42300000
 8001924:	08008b48 	.word	0x08008b48
 8001928:	42600000 	.word	0x42600000
 800192c:	08008b54 	.word	0x08008b54
 8001930:	42940000 	.word	0x42940000
 8001934:	08008b64 	.word	0x08008b64
 8001938:	08008b70 	.word	0x08008b70
 800193c:	08008b7c 	.word	0x08008b7c
 8001940:	08008b88 	.word	0x08008b88
 8001944:	c2b40000 	.word	0xc2b40000
 8001948:	08008b94 	.word	0x08008b94
 800194c:	20001398 	.word	0x20001398
 8001950:	41e80000 	.word	0x41e80000
 8001954:	08008b9c 	.word	0x08008b9c
 8001958:	42280000 	.word	0x42280000
 800195c:	08008ba4 	.word	0x08008ba4
 8001960:	20003750 	.word	0x20003750
 8001964:	42a20000 	.word	0x42a20000
 8001968:	08008bb0 	.word	0x08008bb0
 800196c:	20000001 	.word	0x20000001
 8001970:	08008bc0 	.word	0x08008bc0
 8001974:	41200000 	.word	0x41200000
 8001978:	42040000 	.word	0x42040000
 800197c:	08008bc8 	.word	0x08008bc8
 8001980:	08008bd4 	.word	0x08008bd4
 8001984:	20000da4 	.word	0x20000da4
 8001988:	08008be0 	.word	0x08008be0
 800198c:	08008bec 	.word	0x08008bec
 8001990:	425c0000 	.word	0x425c0000
 8001994:	08008bfc 	.word	0x08008bfc
 8001998:	42880000 	.word	0x42880000
 800199c:	08008c0c 	.word	0x08008c0c
 80019a0:	4873      	ldr	r0, [pc, #460]	@ (8001b70 <System_UI_Loop+0x4f8>)
 80019a2:	f002 f8d8 	bl	8003b56 <OLED_MoveObject>
        #pragma endregion 主菜单动画
        
        preMenuSelection = menuSelection;
 80019a6:	4b73      	ldr	r3, [pc, #460]	@ (8001b74 <System_UI_Loop+0x4fc>)
 80019a8:	781b      	ldrb	r3, [r3, #0]
 80019aa:	82fb      	strh	r3, [r7, #22]
        OLED_UpdateDisplayVSync();
 80019ac:	f7ff f9d6 	bl	8000d5c <OLED_UpdateDisplayVSync>
    }

    #pragma region pager

    if (menuRank == 1)
 80019b0:	4b71      	ldr	r3, [pc, #452]	@ (8001b78 <System_UI_Loop+0x500>)
 80019b2:	781b      	ldrb	r3, [r3, #0]
 80019b4:	2b01      	cmp	r3, #1
 80019b6:	f040 8083 	bne.w	8001ac0 <System_UI_Loop+0x448>
    {
        OLED_DoTweenObject(&Menu_AnimationManager, "GamesButton",    OLED_UI_END_X, OLED_UI_START_Y + OLED_UI_GAP_Y * (2 - menuSelection), 200, EASE_IN_CIRC, true);
 80019ba:	4b6e      	ldr	r3, [pc, #440]	@ (8001b74 <System_UI_Loop+0x4fc>)
 80019bc:	781b      	ldrb	r3, [r3, #0]
 80019be:	f1c3 0202 	rsb	r2, r3, #2
 80019c2:	4613      	mov	r3, r2
 80019c4:	005b      	lsls	r3, r3, #1
 80019c6:	4413      	add	r3, r2
 80019c8:	009b      	lsls	r3, r3, #2
 80019ca:	4413      	add	r3, r2
 80019cc:	3303      	adds	r3, #3
 80019ce:	4618      	mov	r0, r3
 80019d0:	f7fe fc88 	bl	80002e4 <__aeabi_i2f>
 80019d4:	4603      	mov	r3, r0
 80019d6:	2201      	movs	r2, #1
 80019d8:	9202      	str	r2, [sp, #8]
 80019da:	220a      	movs	r2, #10
 80019dc:	9201      	str	r2, [sp, #4]
 80019de:	22c8      	movs	r2, #200	@ 0xc8
 80019e0:	9200      	str	r2, [sp, #0]
 80019e2:	f04f 4280 	mov.w	r2, #1073741824	@ 0x40000000
 80019e6:	4965      	ldr	r1, [pc, #404]	@ (8001b7c <System_UI_Loop+0x504>)
 80019e8:	4861      	ldr	r0, [pc, #388]	@ (8001b70 <System_UI_Loop+0x4f8>)
 80019ea:	f002 f955 	bl	8003c98 <OLED_DoTweenObject>
        OLED_DoTweenObject(&Menu_AnimationManager, "ToolsButton",    OLED_UI_END_X, OLED_UI_START_Y + OLED_UI_GAP_Y * (3 - menuSelection), 200, EASE_IN_CIRC, true);
 80019ee:	4b61      	ldr	r3, [pc, #388]	@ (8001b74 <System_UI_Loop+0x4fc>)
 80019f0:	781b      	ldrb	r3, [r3, #0]
 80019f2:	f1c3 0203 	rsb	r2, r3, #3
 80019f6:	4613      	mov	r3, r2
 80019f8:	005b      	lsls	r3, r3, #1
 80019fa:	4413      	add	r3, r2
 80019fc:	009b      	lsls	r3, r3, #2
 80019fe:	4413      	add	r3, r2
 8001a00:	3303      	adds	r3, #3
 8001a02:	4618      	mov	r0, r3
 8001a04:	f7fe fc6e 	bl	80002e4 <__aeabi_i2f>
 8001a08:	4603      	mov	r3, r0
 8001a0a:	2201      	movs	r2, #1
 8001a0c:	9202      	str	r2, [sp, #8]
 8001a0e:	220a      	movs	r2, #10
 8001a10:	9201      	str	r2, [sp, #4]
 8001a12:	22c8      	movs	r2, #200	@ 0xc8
 8001a14:	9200      	str	r2, [sp, #0]
 8001a16:	f04f 4280 	mov.w	r2, #1073741824	@ 0x40000000
 8001a1a:	4959      	ldr	r1, [pc, #356]	@ (8001b80 <System_UI_Loop+0x508>)
 8001a1c:	4854      	ldr	r0, [pc, #336]	@ (8001b70 <System_UI_Loop+0x4f8>)
 8001a1e:	f002 f93b 	bl	8003c98 <OLED_DoTweenObject>
        OLED_DoTweenObject(&Menu_AnimationManager, "StatusButton",   OLED_UI_END_X, OLED_UI_START_Y + OLED_UI_GAP_Y * (4 - menuSelection), 200, EASE_IN_CIRC, true);
 8001a22:	4b54      	ldr	r3, [pc, #336]	@ (8001b74 <System_UI_Loop+0x4fc>)
 8001a24:	781b      	ldrb	r3, [r3, #0]
 8001a26:	f1c3 0204 	rsb	r2, r3, #4
 8001a2a:	4613      	mov	r3, r2
 8001a2c:	005b      	lsls	r3, r3, #1
 8001a2e:	4413      	add	r3, r2
 8001a30:	009b      	lsls	r3, r3, #2
 8001a32:	4413      	add	r3, r2
 8001a34:	3303      	adds	r3, #3
 8001a36:	4618      	mov	r0, r3
 8001a38:	f7fe fc54 	bl	80002e4 <__aeabi_i2f>
 8001a3c:	4603      	mov	r3, r0
 8001a3e:	2201      	movs	r2, #1
 8001a40:	9202      	str	r2, [sp, #8]
 8001a42:	220a      	movs	r2, #10
 8001a44:	9201      	str	r2, [sp, #4]
 8001a46:	22c8      	movs	r2, #200	@ 0xc8
 8001a48:	9200      	str	r2, [sp, #0]
 8001a4a:	f04f 4280 	mov.w	r2, #1073741824	@ 0x40000000
 8001a4e:	494d      	ldr	r1, [pc, #308]	@ (8001b84 <System_UI_Loop+0x50c>)
 8001a50:	4847      	ldr	r0, [pc, #284]	@ (8001b70 <System_UI_Loop+0x4f8>)
 8001a52:	f002 f921 	bl	8003c98 <OLED_DoTweenObject>
        OLED_DoTweenObject(&Menu_AnimationManager, "SettingsButton", OLED_UI_END_X, OLED_UI_START_Y + OLED_UI_GAP_Y * (5 - menuSelection), 200, EASE_IN_CIRC, true);
 8001a56:	4b47      	ldr	r3, [pc, #284]	@ (8001b74 <System_UI_Loop+0x4fc>)
 8001a58:	781b      	ldrb	r3, [r3, #0]
 8001a5a:	f1c3 0205 	rsb	r2, r3, #5
 8001a5e:	4613      	mov	r3, r2
 8001a60:	005b      	lsls	r3, r3, #1
 8001a62:	4413      	add	r3, r2
 8001a64:	009b      	lsls	r3, r3, #2
 8001a66:	4413      	add	r3, r2
 8001a68:	3303      	adds	r3, #3
 8001a6a:	4618      	mov	r0, r3
 8001a6c:	f7fe fc3a 	bl	80002e4 <__aeabi_i2f>
 8001a70:	4603      	mov	r3, r0
 8001a72:	2201      	movs	r2, #1
 8001a74:	9202      	str	r2, [sp, #8]
 8001a76:	220a      	movs	r2, #10
 8001a78:	9201      	str	r2, [sp, #4]
 8001a7a:	22c8      	movs	r2, #200	@ 0xc8
 8001a7c:	9200      	str	r2, [sp, #0]
 8001a7e:	f04f 4280 	mov.w	r2, #1073741824	@ 0x40000000
 8001a82:	4941      	ldr	r1, [pc, #260]	@ (8001b88 <System_UI_Loop+0x510>)
 8001a84:	483a      	ldr	r0, [pc, #232]	@ (8001b70 <System_UI_Loop+0x4f8>)
 8001a86:	f002 f907 	bl	8003c98 <OLED_DoTweenObject>
        OLED_DoTweenObject(&Menu_AnimationManager, "AboutButton",    OLED_UI_END_X, OLED_UI_START_Y + OLED_UI_GAP_Y * (6 - menuSelection), 200, EASE_IN_CIRC, true);
 8001a8a:	4b3a      	ldr	r3, [pc, #232]	@ (8001b74 <System_UI_Loop+0x4fc>)
 8001a8c:	781b      	ldrb	r3, [r3, #0]
 8001a8e:	f1c3 0206 	rsb	r2, r3, #6
 8001a92:	4613      	mov	r3, r2
 8001a94:	005b      	lsls	r3, r3, #1
 8001a96:	4413      	add	r3, r2
 8001a98:	009b      	lsls	r3, r3, #2
 8001a9a:	4413      	add	r3, r2
 8001a9c:	3303      	adds	r3, #3
 8001a9e:	4618      	mov	r0, r3
 8001aa0:	f7fe fc20 	bl	80002e4 <__aeabi_i2f>
 8001aa4:	4603      	mov	r3, r0
 8001aa6:	2201      	movs	r2, #1
 8001aa8:	9202      	str	r2, [sp, #8]
 8001aaa:	220a      	movs	r2, #10
 8001aac:	9201      	str	r2, [sp, #4]
 8001aae:	22c8      	movs	r2, #200	@ 0xc8
 8001ab0:	9200      	str	r2, [sp, #0]
 8001ab2:	f04f 4280 	mov.w	r2, #1073741824	@ 0x40000000
 8001ab6:	4935      	ldr	r1, [pc, #212]	@ (8001b8c <System_UI_Loop+0x514>)
 8001ab8:	482d      	ldr	r0, [pc, #180]	@ (8001b70 <System_UI_Loop+0x4f8>)
 8001aba:	f002 f8ed 	bl	8003c98 <OLED_DoTweenObject>
 8001abe:	e08e      	b.n	8001bde <System_UI_Loop+0x566>
    }
    else if (menuRank == 2 && currentPage == UI_PAGE_GAMES)
 8001ac0:	4b2d      	ldr	r3, [pc, #180]	@ (8001b78 <System_UI_Loop+0x500>)
 8001ac2:	781b      	ldrb	r3, [r3, #0]
 8001ac4:	2b02      	cmp	r3, #2
 8001ac6:	f040 808a 	bne.w	8001bde <System_UI_Loop+0x566>
 8001aca:	4b31      	ldr	r3, [pc, #196]	@ (8001b90 <System_UI_Loop+0x518>)
 8001acc:	781b      	ldrb	r3, [r3, #0]
 8001ace:	2b05      	cmp	r3, #5
 8001ad0:	d16a      	bne.n	8001ba8 <System_UI_Loop+0x530>
    {
        OLED_DoTweenObject(&Games_AnimationManager, "Snake", OLED_UI_END_X, OLED_UI_START_Y + OLED_UI_GAP_Y * (2 - menuSelection), 200, EASE_IN_CIRC, true);
 8001ad2:	4b28      	ldr	r3, [pc, #160]	@ (8001b74 <System_UI_Loop+0x4fc>)
 8001ad4:	781b      	ldrb	r3, [r3, #0]
 8001ad6:	f1c3 0202 	rsb	r2, r3, #2
 8001ada:	4613      	mov	r3, r2
 8001adc:	005b      	lsls	r3, r3, #1
 8001ade:	4413      	add	r3, r2
 8001ae0:	009b      	lsls	r3, r3, #2
 8001ae2:	4413      	add	r3, r2
 8001ae4:	3303      	adds	r3, #3
 8001ae6:	4618      	mov	r0, r3
 8001ae8:	f7fe fbfc 	bl	80002e4 <__aeabi_i2f>
 8001aec:	4603      	mov	r3, r0
 8001aee:	2201      	movs	r2, #1
 8001af0:	9202      	str	r2, [sp, #8]
 8001af2:	220a      	movs	r2, #10
 8001af4:	9201      	str	r2, [sp, #4]
 8001af6:	22c8      	movs	r2, #200	@ 0xc8
 8001af8:	9200      	str	r2, [sp, #0]
 8001afa:	f04f 4280 	mov.w	r2, #1073741824	@ 0x40000000
 8001afe:	4925      	ldr	r1, [pc, #148]	@ (8001b94 <System_UI_Loop+0x51c>)
 8001b00:	4825      	ldr	r0, [pc, #148]	@ (8001b98 <System_UI_Loop+0x520>)
 8001b02:	f002 f8c9 	bl	8003c98 <OLED_DoTweenObject>
        OLED_DoTweenObject(&Games_AnimationManager, "2048", OLED_UI_END_X, OLED_UI_START_Y + OLED_UI_GAP_Y * (3 - menuSelection), 200, EASE_IN_CIRC, true);
 8001b06:	4b1b      	ldr	r3, [pc, #108]	@ (8001b74 <System_UI_Loop+0x4fc>)
 8001b08:	781b      	ldrb	r3, [r3, #0]
 8001b0a:	f1c3 0203 	rsb	r2, r3, #3
 8001b0e:	4613      	mov	r3, r2
 8001b10:	005b      	lsls	r3, r3, #1
 8001b12:	4413      	add	r3, r2
 8001b14:	009b      	lsls	r3, r3, #2
 8001b16:	4413      	add	r3, r2
 8001b18:	3303      	adds	r3, #3
 8001b1a:	4618      	mov	r0, r3
 8001b1c:	f7fe fbe2 	bl	80002e4 <__aeabi_i2f>
 8001b20:	4603      	mov	r3, r0
 8001b22:	2201      	movs	r2, #1
 8001b24:	9202      	str	r2, [sp, #8]
 8001b26:	220a      	movs	r2, #10
 8001b28:	9201      	str	r2, [sp, #4]
 8001b2a:	22c8      	movs	r2, #200	@ 0xc8
 8001b2c:	9200      	str	r2, [sp, #0]
 8001b2e:	f04f 4280 	mov.w	r2, #1073741824	@ 0x40000000
 8001b32:	491a      	ldr	r1, [pc, #104]	@ (8001b9c <System_UI_Loop+0x524>)
 8001b34:	4818      	ldr	r0, [pc, #96]	@ (8001b98 <System_UI_Loop+0x520>)
 8001b36:	f002 f8af 	bl	8003c98 <OLED_DoTweenObject>
        OLED_DoTweenObject(&g_AnimationManager, "BackButton", OLED_UI_END_X, OLED_UI_START_Y + OLED_UI_GAP_Y * (4 - menuSelection), 200, EASE_IN_CIRC, true);
 8001b3a:	4b0e      	ldr	r3, [pc, #56]	@ (8001b74 <System_UI_Loop+0x4fc>)
 8001b3c:	781b      	ldrb	r3, [r3, #0]
 8001b3e:	f1c3 0204 	rsb	r2, r3, #4
 8001b42:	4613      	mov	r3, r2
 8001b44:	005b      	lsls	r3, r3, #1
 8001b46:	4413      	add	r3, r2
 8001b48:	009b      	lsls	r3, r3, #2
 8001b4a:	4413      	add	r3, r2
 8001b4c:	3303      	adds	r3, #3
 8001b4e:	4618      	mov	r0, r3
 8001b50:	f7fe fbc8 	bl	80002e4 <__aeabi_i2f>
 8001b54:	4603      	mov	r3, r0
 8001b56:	2201      	movs	r2, #1
 8001b58:	9202      	str	r2, [sp, #8]
 8001b5a:	220a      	movs	r2, #10
 8001b5c:	9201      	str	r2, [sp, #4]
 8001b5e:	22c8      	movs	r2, #200	@ 0xc8
 8001b60:	9200      	str	r2, [sp, #0]
 8001b62:	f04f 4280 	mov.w	r2, #1073741824	@ 0x40000000
 8001b66:	490e      	ldr	r1, [pc, #56]	@ (8001ba0 <System_UI_Loop+0x528>)
 8001b68:	480e      	ldr	r0, [pc, #56]	@ (8001ba4 <System_UI_Loop+0x52c>)
 8001b6a:	f002 f895 	bl	8003c98 <OLED_DoTweenObject>
 8001b6e:	e036      	b.n	8001bde <System_UI_Loop+0x566>
 8001b70:	20000da4 	.word	0x20000da4
 8001b74:	20000001 	.word	0x20000001
 8001b78:	20000000 	.word	0x20000000
 8001b7c:	08008bd4 	.word	0x08008bd4
 8001b80:	08008be0 	.word	0x08008be0
 8001b84:	08008bec 	.word	0x08008bec
 8001b88:	08008bfc 	.word	0x08008bfc
 8001b8c:	08008c0c 	.word	0x08008c0c
 8001b90:	20000991 	.word	0x20000991
 8001b94:	08008b94 	.word	0x08008b94
 8001b98:	20001398 	.word	0x20001398
 8001b9c:	08008b9c 	.word	0x08008b9c
 8001ba0:	08008ba4 	.word	0x08008ba4
 8001ba4:	20003750 	.word	0x20003750
    }
    else if (menuRank == 2 && currentPage == UI_PAGE_SETTINGS)
 8001ba8:	4bb4      	ldr	r3, [pc, #720]	@ (8001e7c <System_UI_Loop+0x804>)
 8001baa:	781b      	ldrb	r3, [r3, #0]
 8001bac:	2b02      	cmp	r3, #2
 8001bae:	d116      	bne.n	8001bde <System_UI_Loop+0x566>
 8001bb0:	4bb3      	ldr	r3, [pc, #716]	@ (8001e80 <System_UI_Loop+0x808>)
 8001bb2:	781b      	ldrb	r3, [r3, #0]
 8001bb4:	2b01      	cmp	r3, #1
 8001bb6:	d012      	beq.n	8001bde <System_UI_Loop+0x566>
    {
        /* code */
    }
    else if (menuRank == 2 && currentPage == UI_PAGE_STATUS)
 8001bb8:	4bb0      	ldr	r3, [pc, #704]	@ (8001e7c <System_UI_Loop+0x804>)
 8001bba:	781b      	ldrb	r3, [r3, #0]
 8001bbc:	2b02      	cmp	r3, #2
 8001bbe:	d10e      	bne.n	8001bde <System_UI_Loop+0x566>
 8001bc0:	4baf      	ldr	r3, [pc, #700]	@ (8001e80 <System_UI_Loop+0x808>)
 8001bc2:	781b      	ldrb	r3, [r3, #0]
 8001bc4:	2b02      	cmp	r3, #2
 8001bc6:	d00a      	beq.n	8001bde <System_UI_Loop+0x566>
    {
        /* code */
    }
    else if (menuRank == 2 && currentPage == UI_PAGE_ABOUT)
 8001bc8:	4bac      	ldr	r3, [pc, #688]	@ (8001e7c <System_UI_Loop+0x804>)
 8001bca:	781b      	ldrb	r3, [r3, #0]
 8001bcc:	2b02      	cmp	r3, #2
 8001bce:	d106      	bne.n	8001bde <System_UI_Loop+0x566>
 8001bd0:	4bab      	ldr	r3, [pc, #684]	@ (8001e80 <System_UI_Loop+0x808>)
 8001bd2:	781b      	ldrb	r3, [r3, #0]
 8001bd4:	2b03      	cmp	r3, #3
 8001bd6:	d002      	beq.n	8001bde <System_UI_Loop+0x566>
    {
        /* code */
    }
    else if (menuRank == 2 && currentPage == UI_PAGE_TOOLS)
 8001bd8:	4ba8      	ldr	r3, [pc, #672]	@ (8001e7c <System_UI_Loop+0x804>)
 8001bda:	781b      	ldrb	r3, [r3, #0]
 8001bdc:	2b02      	cmp	r3, #2

    #pragma endregion pager

    #pragma region DRAWER

    OLED_GetObjectPosition(&Menu_AnimationManager, "SettingsButton", &x, &y);
 8001bde:	f107 030c 	add.w	r3, r7, #12
 8001be2:	f107 0210 	add.w	r2, r7, #16
 8001be6:	49a7      	ldr	r1, [pc, #668]	@ (8001e84 <System_UI_Loop+0x80c>)
 8001be8:	48a7      	ldr	r0, [pc, #668]	@ (8001e88 <System_UI_Loop+0x810>)
 8001bea:	f001 ff90 	bl	8003b0e <OLED_GetObjectPosition>
    OLED_DisplayString(x, y, "Settings");
 8001bee:	693b      	ldr	r3, [r7, #16]
 8001bf0:	4618      	mov	r0, r3
 8001bf2:	f7fe fda7 	bl	8000744 <__aeabi_f2iz>
 8001bf6:	4603      	mov	r3, r0
 8001bf8:	b21c      	sxth	r4, r3
 8001bfa:	68fb      	ldr	r3, [r7, #12]
 8001bfc:	4618      	mov	r0, r3
 8001bfe:	f7fe fda1 	bl	8000744 <__aeabi_f2iz>
 8001c02:	4603      	mov	r3, r0
 8001c04:	b21b      	sxth	r3, r3
 8001c06:	4aa1      	ldr	r2, [pc, #644]	@ (8001e8c <System_UI_Loop+0x814>)
 8001c08:	4619      	mov	r1, r3
 8001c0a:	4620      	mov	r0, r4
 8001c0c:	f7ff fc96 	bl	800153c <OLED_DisplayString>
    OLED_GetObjectPosition(&Menu_AnimationManager, "StatusButton", &x, &y);
 8001c10:	f107 030c 	add.w	r3, r7, #12
 8001c14:	f107 0210 	add.w	r2, r7, #16
 8001c18:	499d      	ldr	r1, [pc, #628]	@ (8001e90 <System_UI_Loop+0x818>)
 8001c1a:	489b      	ldr	r0, [pc, #620]	@ (8001e88 <System_UI_Loop+0x810>)
 8001c1c:	f001 ff77 	bl	8003b0e <OLED_GetObjectPosition>
    OLED_DisplayString(x , y, "Status");
 8001c20:	693b      	ldr	r3, [r7, #16]
 8001c22:	4618      	mov	r0, r3
 8001c24:	f7fe fd8e 	bl	8000744 <__aeabi_f2iz>
 8001c28:	4603      	mov	r3, r0
 8001c2a:	b21c      	sxth	r4, r3
 8001c2c:	68fb      	ldr	r3, [r7, #12]
 8001c2e:	4618      	mov	r0, r3
 8001c30:	f7fe fd88 	bl	8000744 <__aeabi_f2iz>
 8001c34:	4603      	mov	r3, r0
 8001c36:	b21b      	sxth	r3, r3
 8001c38:	4a96      	ldr	r2, [pc, #600]	@ (8001e94 <System_UI_Loop+0x81c>)
 8001c3a:	4619      	mov	r1, r3
 8001c3c:	4620      	mov	r0, r4
 8001c3e:	f7ff fc7d 	bl	800153c <OLED_DisplayString>
    OLED_GetObjectPosition(&Menu_AnimationManager, "GamesButton", &x, &y);
 8001c42:	f107 030c 	add.w	r3, r7, #12
 8001c46:	f107 0210 	add.w	r2, r7, #16
 8001c4a:	4993      	ldr	r1, [pc, #588]	@ (8001e98 <System_UI_Loop+0x820>)
 8001c4c:	488e      	ldr	r0, [pc, #568]	@ (8001e88 <System_UI_Loop+0x810>)
 8001c4e:	f001 ff5e 	bl	8003b0e <OLED_GetObjectPosition>
    OLED_DisplayString(x , y, "Games");
 8001c52:	693b      	ldr	r3, [r7, #16]
 8001c54:	4618      	mov	r0, r3
 8001c56:	f7fe fd75 	bl	8000744 <__aeabi_f2iz>
 8001c5a:	4603      	mov	r3, r0
 8001c5c:	b21c      	sxth	r4, r3
 8001c5e:	68fb      	ldr	r3, [r7, #12]
 8001c60:	4618      	mov	r0, r3
 8001c62:	f7fe fd6f 	bl	8000744 <__aeabi_f2iz>
 8001c66:	4603      	mov	r3, r0
 8001c68:	b21b      	sxth	r3, r3
 8001c6a:	4a8c      	ldr	r2, [pc, #560]	@ (8001e9c <System_UI_Loop+0x824>)
 8001c6c:	4619      	mov	r1, r3
 8001c6e:	4620      	mov	r0, r4
 8001c70:	f7ff fc64 	bl	800153c <OLED_DisplayString>
    OLED_GetObjectPosition(&Menu_AnimationManager, "AboutButton", &x, &y);
 8001c74:	f107 030c 	add.w	r3, r7, #12
 8001c78:	f107 0210 	add.w	r2, r7, #16
 8001c7c:	4988      	ldr	r1, [pc, #544]	@ (8001ea0 <System_UI_Loop+0x828>)
 8001c7e:	4882      	ldr	r0, [pc, #520]	@ (8001e88 <System_UI_Loop+0x810>)
 8001c80:	f001 ff45 	bl	8003b0e <OLED_GetObjectPosition>
    OLED_DisplayString(x, y, "About");
 8001c84:	693b      	ldr	r3, [r7, #16]
 8001c86:	4618      	mov	r0, r3
 8001c88:	f7fe fd5c 	bl	8000744 <__aeabi_f2iz>
 8001c8c:	4603      	mov	r3, r0
 8001c8e:	b21c      	sxth	r4, r3
 8001c90:	68fb      	ldr	r3, [r7, #12]
 8001c92:	4618      	mov	r0, r3
 8001c94:	f7fe fd56 	bl	8000744 <__aeabi_f2iz>
 8001c98:	4603      	mov	r3, r0
 8001c9a:	b21b      	sxth	r3, r3
 8001c9c:	4a81      	ldr	r2, [pc, #516]	@ (8001ea4 <System_UI_Loop+0x82c>)
 8001c9e:	4619      	mov	r1, r3
 8001ca0:	4620      	mov	r0, r4
 8001ca2:	f7ff fc4b 	bl	800153c <OLED_DisplayString>
    OLED_GetObjectPosition(&Menu_AnimationManager, "ToolsButton", &x, &y);
 8001ca6:	f107 030c 	add.w	r3, r7, #12
 8001caa:	f107 0210 	add.w	r2, r7, #16
 8001cae:	497e      	ldr	r1, [pc, #504]	@ (8001ea8 <System_UI_Loop+0x830>)
 8001cb0:	4875      	ldr	r0, [pc, #468]	@ (8001e88 <System_UI_Loop+0x810>)
 8001cb2:	f001 ff2c 	bl	8003b0e <OLED_GetObjectPosition>
    OLED_DisplayString(x, y, "Tools");
 8001cb6:	693b      	ldr	r3, [r7, #16]
 8001cb8:	4618      	mov	r0, r3
 8001cba:	f7fe fd43 	bl	8000744 <__aeabi_f2iz>
 8001cbe:	4603      	mov	r3, r0
 8001cc0:	b21c      	sxth	r4, r3
 8001cc2:	68fb      	ldr	r3, [r7, #12]
 8001cc4:	4618      	mov	r0, r3
 8001cc6:	f7fe fd3d 	bl	8000744 <__aeabi_f2iz>
 8001cca:	4603      	mov	r3, r0
 8001ccc:	b21b      	sxth	r3, r3
 8001cce:	4a77      	ldr	r2, [pc, #476]	@ (8001eac <System_UI_Loop+0x834>)
 8001cd0:	4619      	mov	r1, r3
 8001cd2:	4620      	mov	r0, r4
 8001cd4:	f7ff fc32 	bl	800153c <OLED_DisplayString>
    OLED_GetObjectPosition(&Games_AnimationManager, "Snake", &x, &y);
 8001cd8:	f107 030c 	add.w	r3, r7, #12
 8001cdc:	f107 0210 	add.w	r2, r7, #16
 8001ce0:	4973      	ldr	r1, [pc, #460]	@ (8001eb0 <System_UI_Loop+0x838>)
 8001ce2:	4874      	ldr	r0, [pc, #464]	@ (8001eb4 <System_UI_Loop+0x83c>)
 8001ce4:	f001 ff13 	bl	8003b0e <OLED_GetObjectPosition>
    OLED_DisplayString(x, y, "Snake");
 8001ce8:	693b      	ldr	r3, [r7, #16]
 8001cea:	4618      	mov	r0, r3
 8001cec:	f7fe fd2a 	bl	8000744 <__aeabi_f2iz>
 8001cf0:	4603      	mov	r3, r0
 8001cf2:	b21c      	sxth	r4, r3
 8001cf4:	68fb      	ldr	r3, [r7, #12]
 8001cf6:	4618      	mov	r0, r3
 8001cf8:	f7fe fd24 	bl	8000744 <__aeabi_f2iz>
 8001cfc:	4603      	mov	r3, r0
 8001cfe:	b21b      	sxth	r3, r3
 8001d00:	4a6b      	ldr	r2, [pc, #428]	@ (8001eb0 <System_UI_Loop+0x838>)
 8001d02:	4619      	mov	r1, r3
 8001d04:	4620      	mov	r0, r4
 8001d06:	f7ff fc19 	bl	800153c <OLED_DisplayString>
    OLED_GetObjectPosition(&Games_AnimationManager, "2048", &x, &y);
 8001d0a:	f107 030c 	add.w	r3, r7, #12
 8001d0e:	f107 0210 	add.w	r2, r7, #16
 8001d12:	4969      	ldr	r1, [pc, #420]	@ (8001eb8 <System_UI_Loop+0x840>)
 8001d14:	4867      	ldr	r0, [pc, #412]	@ (8001eb4 <System_UI_Loop+0x83c>)
 8001d16:	f001 fefa 	bl	8003b0e <OLED_GetObjectPosition>
    OLED_DisplayString(x, y, "2048");
 8001d1a:	693b      	ldr	r3, [r7, #16]
 8001d1c:	4618      	mov	r0, r3
 8001d1e:	f7fe fd11 	bl	8000744 <__aeabi_f2iz>
 8001d22:	4603      	mov	r3, r0
 8001d24:	b21c      	sxth	r4, r3
 8001d26:	68fb      	ldr	r3, [r7, #12]
 8001d28:	4618      	mov	r0, r3
 8001d2a:	f7fe fd0b 	bl	8000744 <__aeabi_f2iz>
 8001d2e:	4603      	mov	r3, r0
 8001d30:	b21b      	sxth	r3, r3
 8001d32:	4a61      	ldr	r2, [pc, #388]	@ (8001eb8 <System_UI_Loop+0x840>)
 8001d34:	4619      	mov	r1, r3
 8001d36:	4620      	mov	r0, r4
 8001d38:	f7ff fc00 	bl	800153c <OLED_DisplayString>
    OLED_GetObjectPosition(&g_AnimationManager, "BackButton", &x, &y);
 8001d3c:	f107 030c 	add.w	r3, r7, #12
 8001d40:	f107 0210 	add.w	r2, r7, #16
 8001d44:	495d      	ldr	r1, [pc, #372]	@ (8001ebc <System_UI_Loop+0x844>)
 8001d46:	485e      	ldr	r0, [pc, #376]	@ (8001ec0 <System_UI_Loop+0x848>)
 8001d48:	f001 fee1 	bl	8003b0e <OLED_GetObjectPosition>
    OLED_DisplayString(x, y, "Back");
 8001d4c:	693b      	ldr	r3, [r7, #16]
 8001d4e:	4618      	mov	r0, r3
 8001d50:	f7fe fcf8 	bl	8000744 <__aeabi_f2iz>
 8001d54:	4603      	mov	r3, r0
 8001d56:	b21c      	sxth	r4, r3
 8001d58:	68fb      	ldr	r3, [r7, #12]
 8001d5a:	4618      	mov	r0, r3
 8001d5c:	f7fe fcf2 	bl	8000744 <__aeabi_f2iz>
 8001d60:	4603      	mov	r3, r0
 8001d62:	b21b      	sxth	r3, r3
 8001d64:	4a57      	ldr	r2, [pc, #348]	@ (8001ec4 <System_UI_Loop+0x84c>)
 8001d66:	4619      	mov	r1, r3
 8001d68:	4620      	mov	r0, r4
 8001d6a:	f7ff fbe7 	bl	800153c <OLED_DisplayString>


    OLED_GetObjectPosition(&g_Title_AnimationManager, "TitleGames", &x, &y);
 8001d6e:	f107 030c 	add.w	r3, r7, #12
 8001d72:	f107 0210 	add.w	r2, r7, #16
 8001d76:	4954      	ldr	r1, [pc, #336]	@ (8001ec8 <System_UI_Loop+0x850>)
 8001d78:	4854      	ldr	r0, [pc, #336]	@ (8001ecc <System_UI_Loop+0x854>)
 8001d7a:	f001 fec8 	bl	8003b0e <OLED_GetObjectPosition>
    OLED_DisplayString(x, y, "Epicful Games");
 8001d7e:	693b      	ldr	r3, [r7, #16]
 8001d80:	4618      	mov	r0, r3
 8001d82:	f7fe fcdf 	bl	8000744 <__aeabi_f2iz>
 8001d86:	4603      	mov	r3, r0
 8001d88:	b21c      	sxth	r4, r3
 8001d8a:	68fb      	ldr	r3, [r7, #12]
 8001d8c:	4618      	mov	r0, r3
 8001d8e:	f7fe fcd9 	bl	8000744 <__aeabi_f2iz>
 8001d92:	4603      	mov	r3, r0
 8001d94:	b21b      	sxth	r3, r3
 8001d96:	4a4e      	ldr	r2, [pc, #312]	@ (8001ed0 <System_UI_Loop+0x858>)
 8001d98:	4619      	mov	r1, r3
 8001d9a:	4620      	mov	r0, r4
 8001d9c:	f7ff fbce 	bl	800153c <OLED_DisplayString>
    OLED_GetObjectPosition(&g_Title_AnimationManager, "TitleTools", &x, &y);
 8001da0:	f107 030c 	add.w	r3, r7, #12
 8001da4:	f107 0210 	add.w	r2, r7, #16
 8001da8:	494a      	ldr	r1, [pc, #296]	@ (8001ed4 <System_UI_Loop+0x85c>)
 8001daa:	4848      	ldr	r0, [pc, #288]	@ (8001ecc <System_UI_Loop+0x854>)
 8001dac:	f001 feaf 	bl	8003b0e <OLED_GetObjectPosition>
    OLED_DisplayString(x, y, "Tools For You");
 8001db0:	693b      	ldr	r3, [r7, #16]
 8001db2:	4618      	mov	r0, r3
 8001db4:	f7fe fcc6 	bl	8000744 <__aeabi_f2iz>
 8001db8:	4603      	mov	r3, r0
 8001dba:	b21c      	sxth	r4, r3
 8001dbc:	68fb      	ldr	r3, [r7, #12]
 8001dbe:	4618      	mov	r0, r3
 8001dc0:	f7fe fcc0 	bl	8000744 <__aeabi_f2iz>
 8001dc4:	4603      	mov	r3, r0
 8001dc6:	b21b      	sxth	r3, r3
 8001dc8:	4a43      	ldr	r2, [pc, #268]	@ (8001ed8 <System_UI_Loop+0x860>)
 8001dca:	4619      	mov	r1, r3
 8001dcc:	4620      	mov	r0, r4
 8001dce:	f7ff fbb5 	bl	800153c <OLED_DisplayString>
    OLED_GetObjectPosition(&g_Title_AnimationManager, "TitleStatus", &x, &y);
 8001dd2:	f107 030c 	add.w	r3, r7, #12
 8001dd6:	f107 0210 	add.w	r2, r7, #16
 8001dda:	4940      	ldr	r1, [pc, #256]	@ (8001edc <System_UI_Loop+0x864>)
 8001ddc:	483b      	ldr	r0, [pc, #236]	@ (8001ecc <System_UI_Loop+0x854>)
 8001dde:	f001 fe96 	bl	8003b0e <OLED_GetObjectPosition>
    OLED_DisplayString(x, y, "Machine States");
 8001de2:	693b      	ldr	r3, [r7, #16]
 8001de4:	4618      	mov	r0, r3
 8001de6:	f7fe fcad 	bl	8000744 <__aeabi_f2iz>
 8001dea:	4603      	mov	r3, r0
 8001dec:	b21c      	sxth	r4, r3
 8001dee:	68fb      	ldr	r3, [r7, #12]
 8001df0:	4618      	mov	r0, r3
 8001df2:	f7fe fca7 	bl	8000744 <__aeabi_f2iz>
 8001df6:	4603      	mov	r3, r0
 8001df8:	b21b      	sxth	r3, r3
 8001dfa:	4a39      	ldr	r2, [pc, #228]	@ (8001ee0 <System_UI_Loop+0x868>)
 8001dfc:	4619      	mov	r1, r3
 8001dfe:	4620      	mov	r0, r4
 8001e00:	f7ff fb9c 	bl	800153c <OLED_DisplayString>
    OLED_GetObjectPosition(&g_Title_AnimationManager, "TitleSettings", &x, &y);
 8001e04:	f107 030c 	add.w	r3, r7, #12
 8001e08:	f107 0210 	add.w	r2, r7, #16
 8001e0c:	4935      	ldr	r1, [pc, #212]	@ (8001ee4 <System_UI_Loop+0x86c>)
 8001e0e:	482f      	ldr	r0, [pc, #188]	@ (8001ecc <System_UI_Loop+0x854>)
 8001e10:	f001 fe7d 	bl	8003b0e <OLED_GetObjectPosition>
    OLED_DisplayString(x, y, "STM Settings");
 8001e14:	693b      	ldr	r3, [r7, #16]
 8001e16:	4618      	mov	r0, r3
 8001e18:	f7fe fc94 	bl	8000744 <__aeabi_f2iz>
 8001e1c:	4603      	mov	r3, r0
 8001e1e:	b21c      	sxth	r4, r3
 8001e20:	68fb      	ldr	r3, [r7, #12]
 8001e22:	4618      	mov	r0, r3
 8001e24:	f7fe fc8e 	bl	8000744 <__aeabi_f2iz>
 8001e28:	4603      	mov	r3, r0
 8001e2a:	b21b      	sxth	r3, r3
 8001e2c:	4a2e      	ldr	r2, [pc, #184]	@ (8001ee8 <System_UI_Loop+0x870>)
 8001e2e:	4619      	mov	r1, r3
 8001e30:	4620      	mov	r0, r4
 8001e32:	f7ff fb83 	bl	800153c <OLED_DisplayString>
    OLED_GetObjectPosition(&g_Title_AnimationManager, "TitleAbout", &x, &y);
 8001e36:	f107 030c 	add.w	r3, r7, #12
 8001e3a:	f107 0210 	add.w	r2, r7, #16
 8001e3e:	492b      	ldr	r1, [pc, #172]	@ (8001eec <System_UI_Loop+0x874>)
 8001e40:	4822      	ldr	r0, [pc, #136]	@ (8001ecc <System_UI_Loop+0x854>)
 8001e42:	f001 fe64 	bl	8003b0e <OLED_GetObjectPosition>
    OLED_DisplayString(x, y, "Developer!");
 8001e46:	693b      	ldr	r3, [r7, #16]
 8001e48:	4618      	mov	r0, r3
 8001e4a:	f7fe fc7b 	bl	8000744 <__aeabi_f2iz>
 8001e4e:	4603      	mov	r3, r0
 8001e50:	b21c      	sxth	r4, r3
 8001e52:	68fb      	ldr	r3, [r7, #12]
 8001e54:	4618      	mov	r0, r3
 8001e56:	f7fe fc75 	bl	8000744 <__aeabi_f2iz>
 8001e5a:	4603      	mov	r3, r0
 8001e5c:	b21b      	sxth	r3, r3
 8001e5e:	4a24      	ldr	r2, [pc, #144]	@ (8001ef0 <System_UI_Loop+0x878>)
 8001e60:	4619      	mov	r1, r3
 8001e62:	4620      	mov	r0, r4
 8001e64:	f7ff fb6a 	bl	800153c <OLED_DisplayString>


    OLED_GetObjectPosition(&g_AnimationManager, "TitleBGScale", &x, &y);
 8001e68:	f107 030c 	add.w	r3, r7, #12
 8001e6c:	f107 0210 	add.w	r2, r7, #16
 8001e70:	4920      	ldr	r1, [pc, #128]	@ (8001ef4 <System_UI_Loop+0x87c>)
 8001e72:	4813      	ldr	r0, [pc, #76]	@ (8001ec0 <System_UI_Loop+0x848>)
 8001e74:	f001 fe4b 	bl	8003b0e <OLED_GetObjectPosition>
    OLED_InvertArea(OLED_WIDTH-x, 0, x, y);
 8001e78:	693b      	ldr	r3, [r7, #16]
 8001e7a:	e03d      	b.n	8001ef8 <System_UI_Loop+0x880>
 8001e7c:	20000000 	.word	0x20000000
 8001e80:	20000991 	.word	0x20000991
 8001e84:	08008bfc 	.word	0x08008bfc
 8001e88:	20000da4 	.word	0x20000da4
 8001e8c:	08008c18 	.word	0x08008c18
 8001e90:	08008bec 	.word	0x08008bec
 8001e94:	08008c24 	.word	0x08008c24
 8001e98:	08008bd4 	.word	0x08008bd4
 8001e9c:	08008c2c 	.word	0x08008c2c
 8001ea0:	08008c0c 	.word	0x08008c0c
 8001ea4:	08008c34 	.word	0x08008c34
 8001ea8:	08008be0 	.word	0x08008be0
 8001eac:	08008c3c 	.word	0x08008c3c
 8001eb0:	08008b94 	.word	0x08008b94
 8001eb4:	20001398 	.word	0x20001398
 8001eb8:	08008b9c 	.word	0x08008b9c
 8001ebc:	08008ba4 	.word	0x08008ba4
 8001ec0:	20003750 	.word	0x20003750
 8001ec4:	08008c44 	.word	0x08008c44
 8001ec8:	08008b30 	.word	0x08008b30
 8001ecc:	2000315c 	.word	0x2000315c
 8001ed0:	08008c4c 	.word	0x08008c4c
 8001ed4:	08008b3c 	.word	0x08008b3c
 8001ed8:	08008c5c 	.word	0x08008c5c
 8001edc:	08008b48 	.word	0x08008b48
 8001ee0:	08008c6c 	.word	0x08008c6c
 8001ee4:	08008b54 	.word	0x08008b54
 8001ee8:	08008c7c 	.word	0x08008c7c
 8001eec:	08008b64 	.word	0x08008b64
 8001ef0:	08008c8c 	.word	0x08008c8c
 8001ef4:	08008bb0 	.word	0x08008bb0
 8001ef8:	4619      	mov	r1, r3
 8001efa:	f04f 4086 	mov.w	r0, #1124073472	@ 0x43000000
 8001efe:	f7fe f93b 	bl	8000178 <__aeabi_fsub>
 8001f02:	4603      	mov	r3, r0
 8001f04:	4618      	mov	r0, r3
 8001f06:	f7fe fc1d 	bl	8000744 <__aeabi_f2iz>
 8001f0a:	4603      	mov	r3, r0
 8001f0c:	b21c      	sxth	r4, r3
 8001f0e:	693b      	ldr	r3, [r7, #16]
 8001f10:	4618      	mov	r0, r3
 8001f12:	f7fe fc3d 	bl	8000790 <__aeabi_f2uiz>
 8001f16:	4603      	mov	r3, r0
 8001f18:	b2dd      	uxtb	r5, r3
 8001f1a:	68fb      	ldr	r3, [r7, #12]
 8001f1c:	4618      	mov	r0, r3
 8001f1e:	f7fe fc37 	bl	8000790 <__aeabi_f2uiz>
 8001f22:	4603      	mov	r3, r0
 8001f24:	b2db      	uxtb	r3, r3
 8001f26:	462a      	mov	r2, r5
 8001f28:	2100      	movs	r1, #0
 8001f2a:	4620      	mov	r0, r4
 8001f2c:	f7ff f8d0 	bl	80010d0 <OLED_InvertArea>

    OLED_GetObjectPosition(&g_AnimationManager, "Cursor", &x, &y);
 8001f30:	f107 030c 	add.w	r3, r7, #12
 8001f34:	f107 0210 	add.w	r2, r7, #16
 8001f38:	498c      	ldr	r1, [pc, #560]	@ (800216c <System_UI_Loop+0xaf4>)
 8001f3a:	488d      	ldr	r0, [pc, #564]	@ (8002170 <System_UI_Loop+0xaf8>)
 8001f3c:	f001 fde7 	bl	8003b0e <OLED_GetObjectPosition>
    OLED_GetObjectPosition(&g_AnimationManager, "CursorScale", &x1, &y1);
 8001f40:	1d3b      	adds	r3, r7, #4
 8001f42:	f107 0208 	add.w	r2, r7, #8
 8001f46:	498b      	ldr	r1, [pc, #556]	@ (8002174 <System_UI_Loop+0xafc>)
 8001f48:	4889      	ldr	r0, [pc, #548]	@ (8002170 <System_UI_Loop+0xaf8>)
 8001f4a:	f001 fde0 	bl	8003b0e <OLED_GetObjectPosition>
    OLED_InvertArea(x - 2, y - 2, x1, y1); // 绘制光标
 8001f4e:	693b      	ldr	r3, [r7, #16]
 8001f50:	f04f 4180 	mov.w	r1, #1073741824	@ 0x40000000
 8001f54:	4618      	mov	r0, r3
 8001f56:	f7fe f90f 	bl	8000178 <__aeabi_fsub>
 8001f5a:	4603      	mov	r3, r0
 8001f5c:	4618      	mov	r0, r3
 8001f5e:	f7fe fbf1 	bl	8000744 <__aeabi_f2iz>
 8001f62:	4603      	mov	r3, r0
 8001f64:	b21c      	sxth	r4, r3
 8001f66:	68fb      	ldr	r3, [r7, #12]
 8001f68:	f04f 4180 	mov.w	r1, #1073741824	@ 0x40000000
 8001f6c:	4618      	mov	r0, r3
 8001f6e:	f7fe f903 	bl	8000178 <__aeabi_fsub>
 8001f72:	4603      	mov	r3, r0
 8001f74:	4618      	mov	r0, r3
 8001f76:	f7fe fbe5 	bl	8000744 <__aeabi_f2iz>
 8001f7a:	4603      	mov	r3, r0
 8001f7c:	b21d      	sxth	r5, r3
 8001f7e:	68bb      	ldr	r3, [r7, #8]
 8001f80:	4618      	mov	r0, r3
 8001f82:	f7fe fc05 	bl	8000790 <__aeabi_f2uiz>
 8001f86:	4603      	mov	r3, r0
 8001f88:	b2de      	uxtb	r6, r3
 8001f8a:	687b      	ldr	r3, [r7, #4]
 8001f8c:	4618      	mov	r0, r3
 8001f8e:	f7fe fbff 	bl	8000790 <__aeabi_f2uiz>
 8001f92:	4603      	mov	r3, r0
 8001f94:	b2db      	uxtb	r3, r3
 8001f96:	4632      	mov	r2, r6
 8001f98:	4629      	mov	r1, r5
 8001f9a:	4620      	mov	r0, r4
 8001f9c:	f7ff f898 	bl	80010d0 <OLED_InvertArea>




    #pragma region PlayerSelection
    if (menuRank == 1)
 8001fa0:	4b75      	ldr	r3, [pc, #468]	@ (8002178 <System_UI_Loop+0xb00>)
 8001fa2:	781b      	ldrb	r3, [r3, #0]
 8001fa4:	2b01      	cmp	r3, #1
 8001fa6:	f040 8263 	bne.w	8002470 <System_UI_Loop+0xdf8>
    {
        static bool ForceSet = true;

        if (preMenuSelection != menuSelection)
 8001faa:	4b74      	ldr	r3, [pc, #464]	@ (800217c <System_UI_Loop+0xb04>)
 8001fac:	781b      	ldrb	r3, [r3, #0]
 8001fae:	461a      	mov	r2, r3
 8001fb0:	8afb      	ldrh	r3, [r7, #22]
 8001fb2:	4293      	cmp	r3, r2
 8001fb4:	d002      	beq.n	8001fbc <System_UI_Loop+0x944>
            ForceSet = true;
 8001fb6:	4b72      	ldr	r3, [pc, #456]	@ (8002180 <System_UI_Loop+0xb08>)
 8001fb8:	2201      	movs	r2, #1
 8001fba:	701a      	strb	r2, [r3, #0]

        switch (menuSelection)
 8001fbc:	4b6f      	ldr	r3, [pc, #444]	@ (800217c <System_UI_Loop+0xb04>)
 8001fbe:	781b      	ldrb	r3, [r3, #0]
 8001fc0:	3b01      	subs	r3, #1
 8001fc2:	2b04      	cmp	r3, #4
 8001fc4:	f200 8222 	bhi.w	800240c <System_UI_Loop+0xd94>
 8001fc8:	a201      	add	r2, pc, #4	@ (adr r2, 8001fd0 <System_UI_Loop+0x958>)
 8001fca:	f852 f023 	ldr.w	pc, [r2, r3, lsl #2]
 8001fce:	bf00      	nop
 8001fd0:	08001fe5 	.word	0x08001fe5
 8001fd4:	080020a9 	.word	0x080020a9
 8001fd8:	080021c1 	.word	0x080021c1
 8001fdc:	08002285 	.word	0x08002285
 8001fe0:	08002349 	.word	0x08002349
        {
        case 1:
            if (ForceSet)
 8001fe4:	4b66      	ldr	r3, [pc, #408]	@ (8002180 <System_UI_Loop+0xb08>)
 8001fe6:	781b      	ldrb	r3, [r3, #0]
 8001fe8:	2b00      	cmp	r3, #0
 8001fea:	d042      	beq.n	8002072 <System_UI_Loop+0x9fa>
            {
                OLED_DoTweenObject(&g_Title_AnimationManager, "TitleStatus", OLED_WIDTH - strlen("Machine States") * 6, OLED_TITLE_Start_Y, 1, TweenStyle, false);
 8001fec:	2300      	movs	r3, #0
 8001fee:	9302      	str	r3, [sp, #8]
 8001ff0:	230f      	movs	r3, #15
 8001ff2:	9301      	str	r3, [sp, #4]
 8001ff4:	2301      	movs	r3, #1
 8001ff6:	9300      	str	r3, [sp, #0]
 8001ff8:	4b62      	ldr	r3, [pc, #392]	@ (8002184 <System_UI_Loop+0xb0c>)
 8001ffa:	4a63      	ldr	r2, [pc, #396]	@ (8002188 <System_UI_Loop+0xb10>)
 8001ffc:	4963      	ldr	r1, [pc, #396]	@ (800218c <System_UI_Loop+0xb14>)
 8001ffe:	4864      	ldr	r0, [pc, #400]	@ (8002190 <System_UI_Loop+0xb18>)
 8002000:	f001 fe4a 	bl	8003c98 <OLED_DoTweenObject>
                OLED_DoTweenObject(&g_Title_AnimationManager, "TitleSettings", OLED_WIDTH - strlen("STM Settings") * 6, OLED_TITLE_Start_Y, 1, TweenStyle, false);
 8002004:	2300      	movs	r3, #0
 8002006:	9302      	str	r3, [sp, #8]
 8002008:	230f      	movs	r3, #15
 800200a:	9301      	str	r3, [sp, #4]
 800200c:	2301      	movs	r3, #1
 800200e:	9300      	str	r3, [sp, #0]
 8002010:	4b5c      	ldr	r3, [pc, #368]	@ (8002184 <System_UI_Loop+0xb0c>)
 8002012:	4a60      	ldr	r2, [pc, #384]	@ (8002194 <System_UI_Loop+0xb1c>)
 8002014:	4960      	ldr	r1, [pc, #384]	@ (8002198 <System_UI_Loop+0xb20>)
 8002016:	485e      	ldr	r0, [pc, #376]	@ (8002190 <System_UI_Loop+0xb18>)
 8002018:	f001 fe3e 	bl	8003c98 <OLED_DoTweenObject>
                OLED_DoTweenObject(&g_Title_AnimationManager, "TitleAbout", (OLED_WIDTH - strlen("Developer!") * 6), OLED_TITLE_Start_Y, 500, EASE_IN_CUBIC, false);
 800201c:	2300      	movs	r3, #0
 800201e:	9302      	str	r3, [sp, #8]
 8002020:	2304      	movs	r3, #4
 8002022:	9301      	str	r3, [sp, #4]
 8002024:	f44f 73fa 	mov.w	r3, #500	@ 0x1f4
 8002028:	9300      	str	r3, [sp, #0]
 800202a:	4b56      	ldr	r3, [pc, #344]	@ (8002184 <System_UI_Loop+0xb0c>)
 800202c:	4a5b      	ldr	r2, [pc, #364]	@ (800219c <System_UI_Loop+0xb24>)
 800202e:	495c      	ldr	r1, [pc, #368]	@ (80021a0 <System_UI_Loop+0xb28>)
 8002030:	4857      	ldr	r0, [pc, #348]	@ (8002190 <System_UI_Loop+0xb18>)
 8002032:	f001 fe31 	bl	8003c98 <OLED_DoTweenObject>
                OLED_DoTweenObject(&g_Title_AnimationManager, "TitleTools", (OLED_WIDTH - strlen("Tools For You") * 6), OLED_TITLE_Start_Y, 500, EASE_IN_CUBIC, false);
 8002036:	2300      	movs	r3, #0
 8002038:	9302      	str	r3, [sp, #8]
 800203a:	2304      	movs	r3, #4
 800203c:	9301      	str	r3, [sp, #4]
 800203e:	f44f 73fa 	mov.w	r3, #500	@ 0x1f4
 8002042:	9300      	str	r3, [sp, #0]
 8002044:	4b4f      	ldr	r3, [pc, #316]	@ (8002184 <System_UI_Loop+0xb0c>)
 8002046:	4a57      	ldr	r2, [pc, #348]	@ (80021a4 <System_UI_Loop+0xb2c>)
 8002048:	4957      	ldr	r1, [pc, #348]	@ (80021a8 <System_UI_Loop+0xb30>)
 800204a:	4851      	ldr	r0, [pc, #324]	@ (8002190 <System_UI_Loop+0xb18>)
 800204c:	f001 fe24 	bl	8003c98 <OLED_DoTweenObject>
                OLED_DoTweenObject(&g_Title_AnimationManager, "TitleGames", (OLED_WIDTH - strlen("Epicful Games") * 6), OLED_TITLE_End_Y, 500, EASE_IN_CUBIC, false);
 8002050:	2300      	movs	r3, #0
 8002052:	9302      	str	r3, [sp, #8]
 8002054:	2304      	movs	r3, #4
 8002056:	9301      	str	r3, [sp, #4]
 8002058:	f44f 73fa 	mov.w	r3, #500	@ 0x1f4
 800205c:	9300      	str	r3, [sp, #0]
 800205e:	f04f 0300 	mov.w	r3, #0
 8002062:	4a50      	ldr	r2, [pc, #320]	@ (80021a4 <System_UI_Loop+0xb2c>)
 8002064:	4951      	ldr	r1, [pc, #324]	@ (80021ac <System_UI_Loop+0xb34>)
 8002066:	484a      	ldr	r0, [pc, #296]	@ (8002190 <System_UI_Loop+0xb18>)
 8002068:	f001 fe16 	bl	8003c98 <OLED_DoTweenObject>
                ForceSet = false;
 800206c:	4b44      	ldr	r3, [pc, #272]	@ (8002180 <System_UI_Loop+0xb08>)
 800206e:	2200      	movs	r2, #0
 8002070:	701a      	strb	r2, [r3, #0]
            }
            OLED_DoTweenObject(&g_AnimationManager, "TitleBGScale",strlen("Epicful Games")*6+3, 8, 500, EASE_IN_CUBIC, true);
 8002072:	2301      	movs	r3, #1
 8002074:	9302      	str	r3, [sp, #8]
 8002076:	2304      	movs	r3, #4
 8002078:	9301      	str	r3, [sp, #4]
 800207a:	f44f 73fa 	mov.w	r3, #500	@ 0x1f4
 800207e:	9300      	str	r3, [sp, #0]
 8002080:	f04f 4382 	mov.w	r3, #1090519040	@ 0x41000000
 8002084:	4a4a      	ldr	r2, [pc, #296]	@ (80021b0 <System_UI_Loop+0xb38>)
 8002086:	494b      	ldr	r1, [pc, #300]	@ (80021b4 <System_UI_Loop+0xb3c>)
 8002088:	4839      	ldr	r0, [pc, #228]	@ (8002170 <System_UI_Loop+0xaf8>)
 800208a:	f001 fe05 	bl	8003c98 <OLED_DoTweenObject>
            OLED_DoTweenObject(&g_AnimationManager, "CursorScale", strlen("Games")*6+ 3, 10, 100, EASE_INOUT_CIRC, true);
 800208e:	2301      	movs	r3, #1
 8002090:	9302      	str	r3, [sp, #8]
 8002092:	230c      	movs	r3, #12
 8002094:	9301      	str	r3, [sp, #4]
 8002096:	2364      	movs	r3, #100	@ 0x64
 8002098:	9300      	str	r3, [sp, #0]
 800209a:	4b47      	ldr	r3, [pc, #284]	@ (80021b8 <System_UI_Loop+0xb40>)
 800209c:	4a47      	ldr	r2, [pc, #284]	@ (80021bc <System_UI_Loop+0xb44>)
 800209e:	4935      	ldr	r1, [pc, #212]	@ (8002174 <System_UI_Loop+0xafc>)
 80020a0:	4833      	ldr	r0, [pc, #204]	@ (8002170 <System_UI_Loop+0xaf8>)
 80020a2:	f001 fdf9 	bl	8003c98 <OLED_DoTweenObject>
            break;
 80020a6:	e247      	b.n	8002538 <System_UI_Loop+0xec0>
        case 2:
            if (ForceSet)
 80020a8:	4b35      	ldr	r3, [pc, #212]	@ (8002180 <System_UI_Loop+0xb08>)
 80020aa:	781b      	ldrb	r3, [r3, #0]
 80020ac:	2b00      	cmp	r3, #0
 80020ae:	d042      	beq.n	8002136 <System_UI_Loop+0xabe>
            {
                OLED_DoTweenObject(&g_Title_AnimationManager, "TitleSettings", (OLED_WIDTH - strlen("STM Settings") * 6), OLED_TITLE_Start_Y, 1, EASE_IN_CUBIC, false);
 80020b0:	2300      	movs	r3, #0
 80020b2:	9302      	str	r3, [sp, #8]
 80020b4:	2304      	movs	r3, #4
 80020b6:	9301      	str	r3, [sp, #4]
 80020b8:	2301      	movs	r3, #1
 80020ba:	9300      	str	r3, [sp, #0]
 80020bc:	4b31      	ldr	r3, [pc, #196]	@ (8002184 <System_UI_Loop+0xb0c>)
 80020be:	4a35      	ldr	r2, [pc, #212]	@ (8002194 <System_UI_Loop+0xb1c>)
 80020c0:	4935      	ldr	r1, [pc, #212]	@ (8002198 <System_UI_Loop+0xb20>)
 80020c2:	4833      	ldr	r0, [pc, #204]	@ (8002190 <System_UI_Loop+0xb18>)
 80020c4:	f001 fde8 	bl	8003c98 <OLED_DoTweenObject>
                OLED_DoTweenObject(&g_Title_AnimationManager, "TitleAbout", (OLED_WIDTH - strlen("Developer!") * 6), OLED_TITLE_Start_Y, 1, EASE_IN_CUBIC, false);
 80020c8:	2300      	movs	r3, #0
 80020ca:	9302      	str	r3, [sp, #8]
 80020cc:	2304      	movs	r3, #4
 80020ce:	9301      	str	r3, [sp, #4]
 80020d0:	2301      	movs	r3, #1
 80020d2:	9300      	str	r3, [sp, #0]
 80020d4:	4b2b      	ldr	r3, [pc, #172]	@ (8002184 <System_UI_Loop+0xb0c>)
 80020d6:	4a31      	ldr	r2, [pc, #196]	@ (800219c <System_UI_Loop+0xb24>)
 80020d8:	4931      	ldr	r1, [pc, #196]	@ (80021a0 <System_UI_Loop+0xb28>)
 80020da:	482d      	ldr	r0, [pc, #180]	@ (8002190 <System_UI_Loop+0xb18>)
 80020dc:	f001 fddc 	bl	8003c98 <OLED_DoTweenObject>
                OLED_DoTweenObject(&g_Title_AnimationManager, "TitleStatus", (OLED_WIDTH - strlen("Machine States") * 6), OLED_TITLE_Start_Y, 500, EASE_IN_CUBIC, false);
 80020e0:	2300      	movs	r3, #0
 80020e2:	9302      	str	r3, [sp, #8]
 80020e4:	2304      	movs	r3, #4
 80020e6:	9301      	str	r3, [sp, #4]
 80020e8:	f44f 73fa 	mov.w	r3, #500	@ 0x1f4
 80020ec:	9300      	str	r3, [sp, #0]
 80020ee:	4b25      	ldr	r3, [pc, #148]	@ (8002184 <System_UI_Loop+0xb0c>)
 80020f0:	4a25      	ldr	r2, [pc, #148]	@ (8002188 <System_UI_Loop+0xb10>)
 80020f2:	4926      	ldr	r1, [pc, #152]	@ (800218c <System_UI_Loop+0xb14>)
 80020f4:	4826      	ldr	r0, [pc, #152]	@ (8002190 <System_UI_Loop+0xb18>)
 80020f6:	f001 fdcf 	bl	8003c98 <OLED_DoTweenObject>
                OLED_DoTweenObject(&g_Title_AnimationManager, "TitleGames", (OLED_WIDTH - strlen("Epicful Games") * 6), OLED_TITLE_Start_Y, 500, EASE_IN_CUBIC, false);
 80020fa:	2300      	movs	r3, #0
 80020fc:	9302      	str	r3, [sp, #8]
 80020fe:	2304      	movs	r3, #4
 8002100:	9301      	str	r3, [sp, #4]
 8002102:	f44f 73fa 	mov.w	r3, #500	@ 0x1f4
 8002106:	9300      	str	r3, [sp, #0]
 8002108:	4b1e      	ldr	r3, [pc, #120]	@ (8002184 <System_UI_Loop+0xb0c>)
 800210a:	4a26      	ldr	r2, [pc, #152]	@ (80021a4 <System_UI_Loop+0xb2c>)
 800210c:	4927      	ldr	r1, [pc, #156]	@ (80021ac <System_UI_Loop+0xb34>)
 800210e:	4820      	ldr	r0, [pc, #128]	@ (8002190 <System_UI_Loop+0xb18>)
 8002110:	f001 fdc2 	bl	8003c98 <OLED_DoTweenObject>
                OLED_DoTweenObject(&g_Title_AnimationManager, "TitleTools", (OLED_WIDTH - strlen("Tools For You") * 6), OLED_TITLE_End_Y, 500, EASE_IN_CUBIC, false);
 8002114:	2300      	movs	r3, #0
 8002116:	9302      	str	r3, [sp, #8]
 8002118:	2304      	movs	r3, #4
 800211a:	9301      	str	r3, [sp, #4]
 800211c:	f44f 73fa 	mov.w	r3, #500	@ 0x1f4
 8002120:	9300      	str	r3, [sp, #0]
 8002122:	f04f 0300 	mov.w	r3, #0
 8002126:	4a1f      	ldr	r2, [pc, #124]	@ (80021a4 <System_UI_Loop+0xb2c>)
 8002128:	491f      	ldr	r1, [pc, #124]	@ (80021a8 <System_UI_Loop+0xb30>)
 800212a:	4819      	ldr	r0, [pc, #100]	@ (8002190 <System_UI_Loop+0xb18>)
 800212c:	f001 fdb4 	bl	8003c98 <OLED_DoTweenObject>
                ForceSet = false;
 8002130:	4b13      	ldr	r3, [pc, #76]	@ (8002180 <System_UI_Loop+0xb08>)
 8002132:	2200      	movs	r2, #0
 8002134:	701a      	strb	r2, [r3, #0]
            }
            OLED_DoTweenObject(&g_AnimationManager, "TitleBGScale",strlen("Tools for you")*6+3, 8, 500, EASE_IN_CUBIC, true);
 8002136:	2301      	movs	r3, #1
 8002138:	9302      	str	r3, [sp, #8]
 800213a:	2304      	movs	r3, #4
 800213c:	9301      	str	r3, [sp, #4]
 800213e:	f44f 73fa 	mov.w	r3, #500	@ 0x1f4
 8002142:	9300      	str	r3, [sp, #0]
 8002144:	f04f 4382 	mov.w	r3, #1090519040	@ 0x41000000
 8002148:	4a19      	ldr	r2, [pc, #100]	@ (80021b0 <System_UI_Loop+0xb38>)
 800214a:	491a      	ldr	r1, [pc, #104]	@ (80021b4 <System_UI_Loop+0xb3c>)
 800214c:	4808      	ldr	r0, [pc, #32]	@ (8002170 <System_UI_Loop+0xaf8>)
 800214e:	f001 fda3 	bl	8003c98 <OLED_DoTweenObject>
            OLED_DoTweenObject(&g_AnimationManager, "CursorScale", strlen("Tools")*6+ 3, 10, 100, EASE_INOUT_CIRC, true);
 8002152:	2301      	movs	r3, #1
 8002154:	9302      	str	r3, [sp, #8]
 8002156:	230c      	movs	r3, #12
 8002158:	9301      	str	r3, [sp, #4]
 800215a:	2364      	movs	r3, #100	@ 0x64
 800215c:	9300      	str	r3, [sp, #0]
 800215e:	4b16      	ldr	r3, [pc, #88]	@ (80021b8 <System_UI_Loop+0xb40>)
 8002160:	4a16      	ldr	r2, [pc, #88]	@ (80021bc <System_UI_Loop+0xb44>)
 8002162:	4904      	ldr	r1, [pc, #16]	@ (8002174 <System_UI_Loop+0xafc>)
 8002164:	4802      	ldr	r0, [pc, #8]	@ (8002170 <System_UI_Loop+0xaf8>)
 8002166:	f001 fd97 	bl	8003c98 <OLED_DoTweenObject>
            break;
 800216a:	e1e5      	b.n	8002538 <System_UI_Loop+0xec0>
 800216c:	08008bc0 	.word	0x08008bc0
 8002170:	20003750 	.word	0x20003750
 8002174:	08008bc8 	.word	0x08008bc8
 8002178:	20000000 	.word	0x20000000
 800217c:	20000001 	.word	0x20000001
 8002180:	20000003 	.word	0x20000003
 8002184:	c1200000 	.word	0xc1200000
 8002188:	42300000 	.word	0x42300000
 800218c:	08008b48 	.word	0x08008b48
 8002190:	2000315c 	.word	0x2000315c
 8002194:	42600000 	.word	0x42600000
 8002198:	08008b54 	.word	0x08008b54
 800219c:	42880000 	.word	0x42880000
 80021a0:	08008b64 	.word	0x08008b64
 80021a4:	42480000 	.word	0x42480000
 80021a8:	08008b3c 	.word	0x08008b3c
 80021ac:	08008b30 	.word	0x08008b30
 80021b0:	42a20000 	.word	0x42a20000
 80021b4:	08008bb0 	.word	0x08008bb0
 80021b8:	41200000 	.word	0x41200000
 80021bc:	42040000 	.word	0x42040000
        case 3:
            if (ForceSet)
 80021c0:	4b94      	ldr	r3, [pc, #592]	@ (8002414 <System_UI_Loop+0xd9c>)
 80021c2:	781b      	ldrb	r3, [r3, #0]
 80021c4:	2b00      	cmp	r3, #0
 80021c6:	d042      	beq.n	800224e <System_UI_Loop+0xbd6>
            {
                OLED_DoTweenObject(&g_Title_AnimationManager, "TitleGames", (OLED_WIDTH - strlen("Epicful Games") * 6), OLED_TITLE_Start_Y, 1, EASE_IN_CUBIC, false);
 80021c8:	2300      	movs	r3, #0
 80021ca:	9302      	str	r3, [sp, #8]
 80021cc:	2304      	movs	r3, #4
 80021ce:	9301      	str	r3, [sp, #4]
 80021d0:	2301      	movs	r3, #1
 80021d2:	9300      	str	r3, [sp, #0]
 80021d4:	4b90      	ldr	r3, [pc, #576]	@ (8002418 <System_UI_Loop+0xda0>)
 80021d6:	4a91      	ldr	r2, [pc, #580]	@ (800241c <System_UI_Loop+0xda4>)
 80021d8:	4991      	ldr	r1, [pc, #580]	@ (8002420 <System_UI_Loop+0xda8>)
 80021da:	4892      	ldr	r0, [pc, #584]	@ (8002424 <System_UI_Loop+0xdac>)
 80021dc:	f001 fd5c 	bl	8003c98 <OLED_DoTweenObject>
                OLED_DoTweenObject(&g_Title_AnimationManager, "TitleAbout", (OLED_WIDTH - strlen("Developer!") * 6), OLED_TITLE_Start_Y, 1, EASE_IN_CUBIC, false);
 80021e0:	2300      	movs	r3, #0
 80021e2:	9302      	str	r3, [sp, #8]
 80021e4:	2304      	movs	r3, #4
 80021e6:	9301      	str	r3, [sp, #4]
 80021e8:	2301      	movs	r3, #1
 80021ea:	9300      	str	r3, [sp, #0]
 80021ec:	4b8a      	ldr	r3, [pc, #552]	@ (8002418 <System_UI_Loop+0xda0>)
 80021ee:	4a8e      	ldr	r2, [pc, #568]	@ (8002428 <System_UI_Loop+0xdb0>)
 80021f0:	498e      	ldr	r1, [pc, #568]	@ (800242c <System_UI_Loop+0xdb4>)
 80021f2:	488c      	ldr	r0, [pc, #560]	@ (8002424 <System_UI_Loop+0xdac>)
 80021f4:	f001 fd50 	bl	8003c98 <OLED_DoTweenObject>
                OLED_DoTweenObject(&g_Title_AnimationManager, "TitleSettings", (OLED_WIDTH - strlen("STM Settings") * 6), OLED_TITLE_Start_Y, 500, EASE_IN_CUBIC, false);
 80021f8:	2300      	movs	r3, #0
 80021fa:	9302      	str	r3, [sp, #8]
 80021fc:	2304      	movs	r3, #4
 80021fe:	9301      	str	r3, [sp, #4]
 8002200:	f44f 73fa 	mov.w	r3, #500	@ 0x1f4
 8002204:	9300      	str	r3, [sp, #0]
 8002206:	4b84      	ldr	r3, [pc, #528]	@ (8002418 <System_UI_Loop+0xda0>)
 8002208:	4a89      	ldr	r2, [pc, #548]	@ (8002430 <System_UI_Loop+0xdb8>)
 800220a:	498a      	ldr	r1, [pc, #552]	@ (8002434 <System_UI_Loop+0xdbc>)
 800220c:	4885      	ldr	r0, [pc, #532]	@ (8002424 <System_UI_Loop+0xdac>)
 800220e:	f001 fd43 	bl	8003c98 <OLED_DoTweenObject>
                OLED_DoTweenObject(&g_Title_AnimationManager, "TitleTools", (OLED_WIDTH - strlen("Tools For You") * 6), OLED_TITLE_Start_Y, 500, EASE_IN_CUBIC, false);
 8002212:	2300      	movs	r3, #0
 8002214:	9302      	str	r3, [sp, #8]
 8002216:	2304      	movs	r3, #4
 8002218:	9301      	str	r3, [sp, #4]
 800221a:	f44f 73fa 	mov.w	r3, #500	@ 0x1f4
 800221e:	9300      	str	r3, [sp, #0]
 8002220:	4b7d      	ldr	r3, [pc, #500]	@ (8002418 <System_UI_Loop+0xda0>)
 8002222:	4a7e      	ldr	r2, [pc, #504]	@ (800241c <System_UI_Loop+0xda4>)
 8002224:	4984      	ldr	r1, [pc, #528]	@ (8002438 <System_UI_Loop+0xdc0>)
 8002226:	487f      	ldr	r0, [pc, #508]	@ (8002424 <System_UI_Loop+0xdac>)
 8002228:	f001 fd36 	bl	8003c98 <OLED_DoTweenObject>
                OLED_DoTweenObject(&g_Title_AnimationManager, "TitleStatus", (OLED_WIDTH - strlen("Machine States") * 6), OLED_TITLE_End_Y, 500, EASE_IN_CUBIC, false);
 800222c:	2300      	movs	r3, #0
 800222e:	9302      	str	r3, [sp, #8]
 8002230:	2304      	movs	r3, #4
 8002232:	9301      	str	r3, [sp, #4]
 8002234:	f44f 73fa 	mov.w	r3, #500	@ 0x1f4
 8002238:	9300      	str	r3, [sp, #0]
 800223a:	f04f 0300 	mov.w	r3, #0
 800223e:	4a7f      	ldr	r2, [pc, #508]	@ (800243c <System_UI_Loop+0xdc4>)
 8002240:	497f      	ldr	r1, [pc, #508]	@ (8002440 <System_UI_Loop+0xdc8>)
 8002242:	4878      	ldr	r0, [pc, #480]	@ (8002424 <System_UI_Loop+0xdac>)
 8002244:	f001 fd28 	bl	8003c98 <OLED_DoTweenObject>
                ForceSet = false;
 8002248:	4b72      	ldr	r3, [pc, #456]	@ (8002414 <System_UI_Loop+0xd9c>)
 800224a:	2200      	movs	r2, #0
 800224c:	701a      	strb	r2, [r3, #0]
            }
            OLED_DoTweenObject(&g_AnimationManager, "TitleBGScale",strlen("Machine States")*6+3, 8, 500, EASE_IN_CUBIC, true);
 800224e:	2301      	movs	r3, #1
 8002250:	9302      	str	r3, [sp, #8]
 8002252:	2304      	movs	r3, #4
 8002254:	9301      	str	r3, [sp, #4]
 8002256:	f44f 73fa 	mov.w	r3, #500	@ 0x1f4
 800225a:	9300      	str	r3, [sp, #0]
 800225c:	f04f 4382 	mov.w	r3, #1090519040	@ 0x41000000
 8002260:	4a78      	ldr	r2, [pc, #480]	@ (8002444 <System_UI_Loop+0xdcc>)
 8002262:	4979      	ldr	r1, [pc, #484]	@ (8002448 <System_UI_Loop+0xdd0>)
 8002264:	4879      	ldr	r0, [pc, #484]	@ (800244c <System_UI_Loop+0xdd4>)
 8002266:	f001 fd17 	bl	8003c98 <OLED_DoTweenObject>
            OLED_DoTweenObject(&g_AnimationManager, "CursorScale", strlen("States")*6+ 3, 10, 100, EASE_INOUT_CIRC, true);
 800226a:	2301      	movs	r3, #1
 800226c:	9302      	str	r3, [sp, #8]
 800226e:	230c      	movs	r3, #12
 8002270:	9301      	str	r3, [sp, #4]
 8002272:	2364      	movs	r3, #100	@ 0x64
 8002274:	9300      	str	r3, [sp, #0]
 8002276:	4b76      	ldr	r3, [pc, #472]	@ (8002450 <System_UI_Loop+0xdd8>)
 8002278:	4a76      	ldr	r2, [pc, #472]	@ (8002454 <System_UI_Loop+0xddc>)
 800227a:	4977      	ldr	r1, [pc, #476]	@ (8002458 <System_UI_Loop+0xde0>)
 800227c:	4873      	ldr	r0, [pc, #460]	@ (800244c <System_UI_Loop+0xdd4>)
 800227e:	f001 fd0b 	bl	8003c98 <OLED_DoTweenObject>
            break;
 8002282:	e159      	b.n	8002538 <System_UI_Loop+0xec0>
        case 4:
            if (ForceSet)
 8002284:	4b63      	ldr	r3, [pc, #396]	@ (8002414 <System_UI_Loop+0xd9c>)
 8002286:	781b      	ldrb	r3, [r3, #0]
 8002288:	2b00      	cmp	r3, #0
 800228a:	d042      	beq.n	8002312 <System_UI_Loop+0xc9a>
            {
                OLED_DoTweenObject(&g_Title_AnimationManager, "TitleGames", (OLED_WIDTH - strlen("Epicful Games") * 6), OLED_TITLE_Start_Y, 1, EASE_IN_CUBIC, false);
 800228c:	2300      	movs	r3, #0
 800228e:	9302      	str	r3, [sp, #8]
 8002290:	2304      	movs	r3, #4
 8002292:	9301      	str	r3, [sp, #4]
 8002294:	2301      	movs	r3, #1
 8002296:	9300      	str	r3, [sp, #0]
 8002298:	4b5f      	ldr	r3, [pc, #380]	@ (8002418 <System_UI_Loop+0xda0>)
 800229a:	4a60      	ldr	r2, [pc, #384]	@ (800241c <System_UI_Loop+0xda4>)
 800229c:	4960      	ldr	r1, [pc, #384]	@ (8002420 <System_UI_Loop+0xda8>)
 800229e:	4861      	ldr	r0, [pc, #388]	@ (8002424 <System_UI_Loop+0xdac>)
 80022a0:	f001 fcfa 	bl	8003c98 <OLED_DoTweenObject>
                OLED_DoTweenObject(&g_Title_AnimationManager, "TitleTools", (OLED_WIDTH - strlen("Tools For You") * 6), OLED_TITLE_Start_Y, 1, EASE_IN_CUBIC, false);
 80022a4:	2300      	movs	r3, #0
 80022a6:	9302      	str	r3, [sp, #8]
 80022a8:	2304      	movs	r3, #4
 80022aa:	9301      	str	r3, [sp, #4]
 80022ac:	2301      	movs	r3, #1
 80022ae:	9300      	str	r3, [sp, #0]
 80022b0:	4b59      	ldr	r3, [pc, #356]	@ (8002418 <System_UI_Loop+0xda0>)
 80022b2:	4a5a      	ldr	r2, [pc, #360]	@ (800241c <System_UI_Loop+0xda4>)
 80022b4:	4960      	ldr	r1, [pc, #384]	@ (8002438 <System_UI_Loop+0xdc0>)
 80022b6:	485b      	ldr	r0, [pc, #364]	@ (8002424 <System_UI_Loop+0xdac>)
 80022b8:	f001 fcee 	bl	8003c98 <OLED_DoTweenObject>
                OLED_DoTweenObject(&g_Title_AnimationManager, "TitleStatus", (OLED_WIDTH - strlen("Machine States") * 6), OLED_TITLE_Start_Y, 500, EASE_IN_CUBIC, false);
 80022bc:	2300      	movs	r3, #0
 80022be:	9302      	str	r3, [sp, #8]
 80022c0:	2304      	movs	r3, #4
 80022c2:	9301      	str	r3, [sp, #4]
 80022c4:	f44f 73fa 	mov.w	r3, #500	@ 0x1f4
 80022c8:	9300      	str	r3, [sp, #0]
 80022ca:	4b53      	ldr	r3, [pc, #332]	@ (8002418 <System_UI_Loop+0xda0>)
 80022cc:	4a5b      	ldr	r2, [pc, #364]	@ (800243c <System_UI_Loop+0xdc4>)
 80022ce:	495c      	ldr	r1, [pc, #368]	@ (8002440 <System_UI_Loop+0xdc8>)
 80022d0:	4854      	ldr	r0, [pc, #336]	@ (8002424 <System_UI_Loop+0xdac>)
 80022d2:	f001 fce1 	bl	8003c98 <OLED_DoTweenObject>
                OLED_DoTweenObject(&g_Title_AnimationManager, "TitleAbout", (OLED_WIDTH - strlen("Developer!") * 6), OLED_TITLE_Start_Y, 500, EASE_IN_CUBIC, false);
 80022d6:	2300      	movs	r3, #0
 80022d8:	9302      	str	r3, [sp, #8]
 80022da:	2304      	movs	r3, #4
 80022dc:	9301      	str	r3, [sp, #4]
 80022de:	f44f 73fa 	mov.w	r3, #500	@ 0x1f4
 80022e2:	9300      	str	r3, [sp, #0]
 80022e4:	4b4c      	ldr	r3, [pc, #304]	@ (8002418 <System_UI_Loop+0xda0>)
 80022e6:	4a50      	ldr	r2, [pc, #320]	@ (8002428 <System_UI_Loop+0xdb0>)
 80022e8:	4950      	ldr	r1, [pc, #320]	@ (800242c <System_UI_Loop+0xdb4>)
 80022ea:	484e      	ldr	r0, [pc, #312]	@ (8002424 <System_UI_Loop+0xdac>)
 80022ec:	f001 fcd4 	bl	8003c98 <OLED_DoTweenObject>
                OLED_DoTweenObject(&g_Title_AnimationManager, "TitleSettings", (OLED_WIDTH - strlen("STM Settings") * 6), OLED_TITLE_End_Y, 500, EASE_IN_CUBIC, false);
 80022f0:	2300      	movs	r3, #0
 80022f2:	9302      	str	r3, [sp, #8]
 80022f4:	2304      	movs	r3, #4
 80022f6:	9301      	str	r3, [sp, #4]
 80022f8:	f44f 73fa 	mov.w	r3, #500	@ 0x1f4
 80022fc:	9300      	str	r3, [sp, #0]
 80022fe:	f04f 0300 	mov.w	r3, #0
 8002302:	4a4b      	ldr	r2, [pc, #300]	@ (8002430 <System_UI_Loop+0xdb8>)
 8002304:	494b      	ldr	r1, [pc, #300]	@ (8002434 <System_UI_Loop+0xdbc>)
 8002306:	4847      	ldr	r0, [pc, #284]	@ (8002424 <System_UI_Loop+0xdac>)
 8002308:	f001 fcc6 	bl	8003c98 <OLED_DoTweenObject>
                ForceSet = false;
 800230c:	4b41      	ldr	r3, [pc, #260]	@ (8002414 <System_UI_Loop+0xd9c>)
 800230e:	2200      	movs	r2, #0
 8002310:	701a      	strb	r2, [r3, #0]
            }
            OLED_DoTweenObject(&g_AnimationManager, "TitleBGScale",strlen("STM Settings")*6+3, 8, 500, EASE_IN_CUBIC, true);
 8002312:	2301      	movs	r3, #1
 8002314:	9302      	str	r3, [sp, #8]
 8002316:	2304      	movs	r3, #4
 8002318:	9301      	str	r3, [sp, #4]
 800231a:	f44f 73fa 	mov.w	r3, #500	@ 0x1f4
 800231e:	9300      	str	r3, [sp, #0]
 8002320:	f04f 4382 	mov.w	r3, #1090519040	@ 0x41000000
 8002324:	4a4d      	ldr	r2, [pc, #308]	@ (800245c <System_UI_Loop+0xde4>)
 8002326:	4948      	ldr	r1, [pc, #288]	@ (8002448 <System_UI_Loop+0xdd0>)
 8002328:	4848      	ldr	r0, [pc, #288]	@ (800244c <System_UI_Loop+0xdd4>)
 800232a:	f001 fcb5 	bl	8003c98 <OLED_DoTweenObject>
            OLED_DoTweenObject(&g_AnimationManager, "CursorScale", strlen("Settings")*6+ 3, 10, 100, EASE_INOUT_CIRC, true);
 800232e:	2301      	movs	r3, #1
 8002330:	9302      	str	r3, [sp, #8]
 8002332:	230c      	movs	r3, #12
 8002334:	9301      	str	r3, [sp, #4]
 8002336:	2364      	movs	r3, #100	@ 0x64
 8002338:	9300      	str	r3, [sp, #0]
 800233a:	4b45      	ldr	r3, [pc, #276]	@ (8002450 <System_UI_Loop+0xdd8>)
 800233c:	4a48      	ldr	r2, [pc, #288]	@ (8002460 <System_UI_Loop+0xde8>)
 800233e:	4946      	ldr	r1, [pc, #280]	@ (8002458 <System_UI_Loop+0xde0>)
 8002340:	4842      	ldr	r0, [pc, #264]	@ (800244c <System_UI_Loop+0xdd4>)
 8002342:	f001 fca9 	bl	8003c98 <OLED_DoTweenObject>
            break;
 8002346:	e0f7      	b.n	8002538 <System_UI_Loop+0xec0>
        case 5:
            if (ForceSet)
 8002348:	4b32      	ldr	r3, [pc, #200]	@ (8002414 <System_UI_Loop+0xd9c>)
 800234a:	781b      	ldrb	r3, [r3, #0]
 800234c:	2b00      	cmp	r3, #0
 800234e:	d042      	beq.n	80023d6 <System_UI_Loop+0xd5e>
            {
                OLED_DoTweenObject(&g_Title_AnimationManager, "TitleTools", (OLED_WIDTH - strlen("Tools For You") * 6), OLED_TITLE_Start_Y, 1, EASE_IN_CUBIC, false);
 8002350:	2300      	movs	r3, #0
 8002352:	9302      	str	r3, [sp, #8]
 8002354:	2304      	movs	r3, #4
 8002356:	9301      	str	r3, [sp, #4]
 8002358:	2301      	movs	r3, #1
 800235a:	9300      	str	r3, [sp, #0]
 800235c:	4b2e      	ldr	r3, [pc, #184]	@ (8002418 <System_UI_Loop+0xda0>)
 800235e:	4a2f      	ldr	r2, [pc, #188]	@ (800241c <System_UI_Loop+0xda4>)
 8002360:	4935      	ldr	r1, [pc, #212]	@ (8002438 <System_UI_Loop+0xdc0>)
 8002362:	4830      	ldr	r0, [pc, #192]	@ (8002424 <System_UI_Loop+0xdac>)
 8002364:	f001 fc98 	bl	8003c98 <OLED_DoTweenObject>
                OLED_DoTweenObject(&g_Title_AnimationManager, "TitleStatus", (OLED_WIDTH - strlen("Machine States") * 6), OLED_TITLE_Start_Y, 1, EASE_IN_CUBIC, false);
 8002368:	2300      	movs	r3, #0
 800236a:	9302      	str	r3, [sp, #8]
 800236c:	2304      	movs	r3, #4
 800236e:	9301      	str	r3, [sp, #4]
 8002370:	2301      	movs	r3, #1
 8002372:	9300      	str	r3, [sp, #0]
 8002374:	4b28      	ldr	r3, [pc, #160]	@ (8002418 <System_UI_Loop+0xda0>)
 8002376:	4a31      	ldr	r2, [pc, #196]	@ (800243c <System_UI_Loop+0xdc4>)
 8002378:	4931      	ldr	r1, [pc, #196]	@ (8002440 <System_UI_Loop+0xdc8>)
 800237a:	482a      	ldr	r0, [pc, #168]	@ (8002424 <System_UI_Loop+0xdac>)
 800237c:	f001 fc8c 	bl	8003c98 <OLED_DoTweenObject>
                OLED_DoTweenObject(&g_Title_AnimationManager, "TitleSettings", (OLED_WIDTH - strlen("STM Settings") * 6), OLED_TITLE_Start_Y, 500, EASE_IN_CUBIC, false);
 8002380:	2300      	movs	r3, #0
 8002382:	9302      	str	r3, [sp, #8]
 8002384:	2304      	movs	r3, #4
 8002386:	9301      	str	r3, [sp, #4]
 8002388:	f44f 73fa 	mov.w	r3, #500	@ 0x1f4
 800238c:	9300      	str	r3, [sp, #0]
 800238e:	4b22      	ldr	r3, [pc, #136]	@ (8002418 <System_UI_Loop+0xda0>)
 8002390:	4a27      	ldr	r2, [pc, #156]	@ (8002430 <System_UI_Loop+0xdb8>)
 8002392:	4928      	ldr	r1, [pc, #160]	@ (8002434 <System_UI_Loop+0xdbc>)
 8002394:	4823      	ldr	r0, [pc, #140]	@ (8002424 <System_UI_Loop+0xdac>)
 8002396:	f001 fc7f 	bl	8003c98 <OLED_DoTweenObject>
                OLED_DoTweenObject(&g_Title_AnimationManager, "TitleGames", (OLED_WIDTH - strlen("Epicful Games") * 6), OLED_TITLE_Start_Y, 500, EASE_IN_CUBIC, false);
 800239a:	2300      	movs	r3, #0
 800239c:	9302      	str	r3, [sp, #8]
 800239e:	2304      	movs	r3, #4
 80023a0:	9301      	str	r3, [sp, #4]
 80023a2:	f44f 73fa 	mov.w	r3, #500	@ 0x1f4
 80023a6:	9300      	str	r3, [sp, #0]
 80023a8:	4b1b      	ldr	r3, [pc, #108]	@ (8002418 <System_UI_Loop+0xda0>)
 80023aa:	4a1c      	ldr	r2, [pc, #112]	@ (800241c <System_UI_Loop+0xda4>)
 80023ac:	491c      	ldr	r1, [pc, #112]	@ (8002420 <System_UI_Loop+0xda8>)
 80023ae:	481d      	ldr	r0, [pc, #116]	@ (8002424 <System_UI_Loop+0xdac>)
 80023b0:	f001 fc72 	bl	8003c98 <OLED_DoTweenObject>
                OLED_DoTweenObject(&g_Title_AnimationManager, "TitleAbout", (OLED_WIDTH - strlen("Developer!") * 6), OLED_TITLE_End_Y, 500, EASE_IN_CUBIC, false);
 80023b4:	2300      	movs	r3, #0
 80023b6:	9302      	str	r3, [sp, #8]
 80023b8:	2304      	movs	r3, #4
 80023ba:	9301      	str	r3, [sp, #4]
 80023bc:	f44f 73fa 	mov.w	r3, #500	@ 0x1f4
 80023c0:	9300      	str	r3, [sp, #0]
 80023c2:	f04f 0300 	mov.w	r3, #0
 80023c6:	4a18      	ldr	r2, [pc, #96]	@ (8002428 <System_UI_Loop+0xdb0>)
 80023c8:	4918      	ldr	r1, [pc, #96]	@ (800242c <System_UI_Loop+0xdb4>)
 80023ca:	4816      	ldr	r0, [pc, #88]	@ (8002424 <System_UI_Loop+0xdac>)
 80023cc:	f001 fc64 	bl	8003c98 <OLED_DoTweenObject>
                ForceSet = false;
 80023d0:	4b10      	ldr	r3, [pc, #64]	@ (8002414 <System_UI_Loop+0xd9c>)
 80023d2:	2200      	movs	r2, #0
 80023d4:	701a      	strb	r2, [r3, #0]
            }
            OLED_DoTweenObject(&g_AnimationManager, "TitleBGScale",strlen("Developer!")*6+3, 8, 500, EASE_IN_CUBIC, true);
 80023d6:	2301      	movs	r3, #1
 80023d8:	9302      	str	r3, [sp, #8]
 80023da:	2304      	movs	r3, #4
 80023dc:	9301      	str	r3, [sp, #4]
 80023de:	f44f 73fa 	mov.w	r3, #500	@ 0x1f4
 80023e2:	9300      	str	r3, [sp, #0]
 80023e4:	f04f 4382 	mov.w	r3, #1090519040	@ 0x41000000
 80023e8:	4a1e      	ldr	r2, [pc, #120]	@ (8002464 <System_UI_Loop+0xdec>)
 80023ea:	4917      	ldr	r1, [pc, #92]	@ (8002448 <System_UI_Loop+0xdd0>)
 80023ec:	4817      	ldr	r0, [pc, #92]	@ (800244c <System_UI_Loop+0xdd4>)
 80023ee:	f001 fc53 	bl	8003c98 <OLED_DoTweenObject>
            OLED_DoTweenObject(&g_AnimationManager, "CursorScale", strlen("About")*6+ 3, 10, 100, EASE_INOUT_CIRC, true);
 80023f2:	2301      	movs	r3, #1
 80023f4:	9302      	str	r3, [sp, #8]
 80023f6:	230c      	movs	r3, #12
 80023f8:	9301      	str	r3, [sp, #4]
 80023fa:	2364      	movs	r3, #100	@ 0x64
 80023fc:	9300      	str	r3, [sp, #0]
 80023fe:	4b14      	ldr	r3, [pc, #80]	@ (8002450 <System_UI_Loop+0xdd8>)
 8002400:	4a19      	ldr	r2, [pc, #100]	@ (8002468 <System_UI_Loop+0xdf0>)
 8002402:	4915      	ldr	r1, [pc, #84]	@ (8002458 <System_UI_Loop+0xde0>)
 8002404:	4811      	ldr	r0, [pc, #68]	@ (800244c <System_UI_Loop+0xdd4>)
 8002406:	f001 fc47 	bl	8003c98 <OLED_DoTweenObject>
            break;
 800240a:	e095      	b.n	8002538 <System_UI_Loop+0xec0>
        default:
            OLED_DrawTitleBar("UnikoZera's UI");
 800240c:	4817      	ldr	r0, [pc, #92]	@ (800246c <System_UI_Loop+0xdf4>)
 800240e:	f001 fc9a 	bl	8003d46 <OLED_DrawTitleBar>
            break;
 8002412:	e091      	b.n	8002538 <System_UI_Loop+0xec0>
 8002414:	20000003 	.word	0x20000003
 8002418:	c1200000 	.word	0xc1200000
 800241c:	42480000 	.word	0x42480000
 8002420:	08008b30 	.word	0x08008b30
 8002424:	2000315c 	.word	0x2000315c
 8002428:	42880000 	.word	0x42880000
 800242c:	08008b64 	.word	0x08008b64
 8002430:	42600000 	.word	0x42600000
 8002434:	08008b54 	.word	0x08008b54
 8002438:	08008b3c 	.word	0x08008b3c
 800243c:	42300000 	.word	0x42300000
 8002440:	08008b48 	.word	0x08008b48
 8002444:	42ae0000 	.word	0x42ae0000
 8002448:	08008bb0 	.word	0x08008bb0
 800244c:	20003750 	.word	0x20003750
 8002450:	41200000 	.word	0x41200000
 8002454:	421c0000 	.word	0x421c0000
 8002458:	08008bc8 	.word	0x08008bc8
 800245c:	42960000 	.word	0x42960000
 8002460:	424c0000 	.word	0x424c0000
 8002464:	427c0000 	.word	0x427c0000
 8002468:	42040000 	.word	0x42040000
 800246c:	08008c98 	.word	0x08008c98
        }
    }
    else if (menuRank == 2 && currentPage == UI_PAGE_SETTINGS)
 8002470:	4b4f      	ldr	r3, [pc, #316]	@ (80025b0 <System_UI_Loop+0xf38>)
 8002472:	781b      	ldrb	r3, [r3, #0]
 8002474:	2b02      	cmp	r3, #2
 8002476:	d103      	bne.n	8002480 <System_UI_Loop+0xe08>
 8002478:	4b4e      	ldr	r3, [pc, #312]	@ (80025b4 <System_UI_Loop+0xf3c>)
 800247a:	781b      	ldrb	r3, [r3, #0]
 800247c:	2b01      	cmp	r3, #1
 800247e:	d05b      	beq.n	8002538 <System_UI_Loop+0xec0>
    {

    }
    else if (menuRank == 2 && currentPage == UI_PAGE_STATUS)
 8002480:	4b4b      	ldr	r3, [pc, #300]	@ (80025b0 <System_UI_Loop+0xf38>)
 8002482:	781b      	ldrb	r3, [r3, #0]
 8002484:	2b02      	cmp	r3, #2
 8002486:	d103      	bne.n	8002490 <System_UI_Loop+0xe18>
 8002488:	4b4a      	ldr	r3, [pc, #296]	@ (80025b4 <System_UI_Loop+0xf3c>)
 800248a:	781b      	ldrb	r3, [r3, #0]
 800248c:	2b02      	cmp	r3, #2
 800248e:	d053      	beq.n	8002538 <System_UI_Loop+0xec0>
    {
        /* code */
    }
    else if (menuRank == 2 && currentPage == UI_PAGE_ABOUT)
 8002490:	4b47      	ldr	r3, [pc, #284]	@ (80025b0 <System_UI_Loop+0xf38>)
 8002492:	781b      	ldrb	r3, [r3, #0]
 8002494:	2b02      	cmp	r3, #2
 8002496:	d103      	bne.n	80024a0 <System_UI_Loop+0xe28>
 8002498:	4b46      	ldr	r3, [pc, #280]	@ (80025b4 <System_UI_Loop+0xf3c>)
 800249a:	781b      	ldrb	r3, [r3, #0]
 800249c:	2b03      	cmp	r3, #3
 800249e:	d04b      	beq.n	8002538 <System_UI_Loop+0xec0>
    {
        /* code */
    }
    else if (menuRank == 2 && currentPage == UI_PAGE_TOOLS)
 80024a0:	4b43      	ldr	r3, [pc, #268]	@ (80025b0 <System_UI_Loop+0xf38>)
 80024a2:	781b      	ldrb	r3, [r3, #0]
 80024a4:	2b02      	cmp	r3, #2
 80024a6:	d103      	bne.n	80024b0 <System_UI_Loop+0xe38>
 80024a8:	4b42      	ldr	r3, [pc, #264]	@ (80025b4 <System_UI_Loop+0xf3c>)
 80024aa:	781b      	ldrb	r3, [r3, #0]
 80024ac:	2b04      	cmp	r3, #4
 80024ae:	d043      	beq.n	8002538 <System_UI_Loop+0xec0>
    {
        /* code */
    }
    else if (menuRank == 2 && currentPage == UI_PAGE_GAMES)
 80024b0:	4b3f      	ldr	r3, [pc, #252]	@ (80025b0 <System_UI_Loop+0xf38>)
 80024b2:	781b      	ldrb	r3, [r3, #0]
 80024b4:	2b02      	cmp	r3, #2
 80024b6:	d13f      	bne.n	8002538 <System_UI_Loop+0xec0>
 80024b8:	4b3e      	ldr	r3, [pc, #248]	@ (80025b4 <System_UI_Loop+0xf3c>)
 80024ba:	781b      	ldrb	r3, [r3, #0]
 80024bc:	2b05      	cmp	r3, #5
 80024be:	d13b      	bne.n	8002538 <System_UI_Loop+0xec0>
    {
        switch (menuSelection)
 80024c0:	4b3d      	ldr	r3, [pc, #244]	@ (80025b8 <System_UI_Loop+0xf40>)
 80024c2:	781b      	ldrb	r3, [r3, #0]
 80024c4:	2b03      	cmp	r3, #3
 80024c6:	d026      	beq.n	8002516 <System_UI_Loop+0xe9e>
 80024c8:	2b03      	cmp	r3, #3
 80024ca:	dc34      	bgt.n	8002536 <System_UI_Loop+0xebe>
 80024cc:	2b01      	cmp	r3, #1
 80024ce:	d002      	beq.n	80024d6 <System_UI_Loop+0xe5e>
 80024d0:	2b02      	cmp	r3, #2
 80024d2:	d010      	beq.n	80024f6 <System_UI_Loop+0xe7e>
            // OLED_DisplayString((OLED_WIDTH - strlen("Back") * 6) / 2, 0, "Back");
            OLED_DrawTitleBar("Back To Menu");
            OLED_DoTweenObject(&g_AnimationManager, "CursorScale", strlen("Back")*6+ 3, 10, 100, EASE_INOUT_CIRC, true);
            break;
        default:
            break;
 80024d4:	e02f      	b.n	8002536 <System_UI_Loop+0xebe>
            OLED_DrawTitleBar("Greedy Snake");
 80024d6:	4839      	ldr	r0, [pc, #228]	@ (80025bc <System_UI_Loop+0xf44>)
 80024d8:	f001 fc35 	bl	8003d46 <OLED_DrawTitleBar>
            OLED_DoTweenObject(&g_AnimationManager, "CursorScale", strlen("Snake")*6+ 3, 10, 100, EASE_INOUT_CIRC, true);
 80024dc:	2301      	movs	r3, #1
 80024de:	9302      	str	r3, [sp, #8]
 80024e0:	230c      	movs	r3, #12
 80024e2:	9301      	str	r3, [sp, #4]
 80024e4:	2364      	movs	r3, #100	@ 0x64
 80024e6:	9300      	str	r3, [sp, #0]
 80024e8:	4b35      	ldr	r3, [pc, #212]	@ (80025c0 <System_UI_Loop+0xf48>)
 80024ea:	4a36      	ldr	r2, [pc, #216]	@ (80025c4 <System_UI_Loop+0xf4c>)
 80024ec:	4936      	ldr	r1, [pc, #216]	@ (80025c8 <System_UI_Loop+0xf50>)
 80024ee:	4837      	ldr	r0, [pc, #220]	@ (80025cc <System_UI_Loop+0xf54>)
 80024f0:	f001 fbd2 	bl	8003c98 <OLED_DoTweenObject>
            break;
 80024f4:	e020      	b.n	8002538 <System_UI_Loop+0xec0>
            OLED_DrawTitleBar("Here is 2048!");
 80024f6:	4836      	ldr	r0, [pc, #216]	@ (80025d0 <System_UI_Loop+0xf58>)
 80024f8:	f001 fc25 	bl	8003d46 <OLED_DrawTitleBar>
            OLED_DoTweenObject(&g_AnimationManager, "CursorScale", strlen("2048")*6+ 3, 10, 100, EASE_INOUT_CIRC, true);
 80024fc:	2301      	movs	r3, #1
 80024fe:	9302      	str	r3, [sp, #8]
 8002500:	230c      	movs	r3, #12
 8002502:	9301      	str	r3, [sp, #4]
 8002504:	2364      	movs	r3, #100	@ 0x64
 8002506:	9300      	str	r3, [sp, #0]
 8002508:	4b2d      	ldr	r3, [pc, #180]	@ (80025c0 <System_UI_Loop+0xf48>)
 800250a:	4a32      	ldr	r2, [pc, #200]	@ (80025d4 <System_UI_Loop+0xf5c>)
 800250c:	492e      	ldr	r1, [pc, #184]	@ (80025c8 <System_UI_Loop+0xf50>)
 800250e:	482f      	ldr	r0, [pc, #188]	@ (80025cc <System_UI_Loop+0xf54>)
 8002510:	f001 fbc2 	bl	8003c98 <OLED_DoTweenObject>
            break;
 8002514:	e010      	b.n	8002538 <System_UI_Loop+0xec0>
            OLED_DrawTitleBar("Back To Menu");
 8002516:	4830      	ldr	r0, [pc, #192]	@ (80025d8 <System_UI_Loop+0xf60>)
 8002518:	f001 fc15 	bl	8003d46 <OLED_DrawTitleBar>
            OLED_DoTweenObject(&g_AnimationManager, "CursorScale", strlen("Back")*6+ 3, 10, 100, EASE_INOUT_CIRC, true);
 800251c:	2301      	movs	r3, #1
 800251e:	9302      	str	r3, [sp, #8]
 8002520:	230c      	movs	r3, #12
 8002522:	9301      	str	r3, [sp, #4]
 8002524:	2364      	movs	r3, #100	@ 0x64
 8002526:	9300      	str	r3, [sp, #0]
 8002528:	4b25      	ldr	r3, [pc, #148]	@ (80025c0 <System_UI_Loop+0xf48>)
 800252a:	4a2a      	ldr	r2, [pc, #168]	@ (80025d4 <System_UI_Loop+0xf5c>)
 800252c:	4926      	ldr	r1, [pc, #152]	@ (80025c8 <System_UI_Loop+0xf50>)
 800252e:	4827      	ldr	r0, [pc, #156]	@ (80025cc <System_UI_Loop+0xf54>)
 8002530:	f001 fbb2 	bl	8003c98 <OLED_DoTweenObject>
            break;
 8002534:	e000      	b.n	8002538 <System_UI_Loop+0xec0>
            break;
 8002536:	bf00      	nop
    }
    #pragma endregion PlayerSelection
    
    
    #pragma region ResetAnimation
    if (menuRank == 1)
 8002538:	4b1d      	ldr	r3, [pc, #116]	@ (80025b0 <System_UI_Loop+0xf38>)
 800253a:	781b      	ldrb	r3, [r3, #0]
 800253c:	2b01      	cmp	r3, #1
 800253e:	d124      	bne.n	800258a <System_UI_Loop+0xf12>
    {
        OLED_DoTweenObject(&Games_AnimationManager, "Snake", OLED_UI_START_X, OLED_UI_START_Y + OLED_UI_GAP_Y * 1, 1, EASE_IN_CIRC, true);
 8002540:	2301      	movs	r3, #1
 8002542:	9302      	str	r3, [sp, #8]
 8002544:	230a      	movs	r3, #10
 8002546:	9301      	str	r3, [sp, #4]
 8002548:	2301      	movs	r3, #1
 800254a:	9300      	str	r3, [sp, #0]
 800254c:	f04f 4383 	mov.w	r3, #1098907648	@ 0x41800000
 8002550:	4a22      	ldr	r2, [pc, #136]	@ (80025dc <System_UI_Loop+0xf64>)
 8002552:	4923      	ldr	r1, [pc, #140]	@ (80025e0 <System_UI_Loop+0xf68>)
 8002554:	4823      	ldr	r0, [pc, #140]	@ (80025e4 <System_UI_Loop+0xf6c>)
 8002556:	f001 fb9f 	bl	8003c98 <OLED_DoTweenObject>
        OLED_DoTweenObject(&Games_AnimationManager, "2048", OLED_UI_START_X, OLED_UI_START_Y + OLED_UI_GAP_Y * 2, 1, EASE_IN_CIRC, true);
 800255a:	2301      	movs	r3, #1
 800255c:	9302      	str	r3, [sp, #8]
 800255e:	230a      	movs	r3, #10
 8002560:	9301      	str	r3, [sp, #4]
 8002562:	2301      	movs	r3, #1
 8002564:	9300      	str	r3, [sp, #0]
 8002566:	4b20      	ldr	r3, [pc, #128]	@ (80025e8 <System_UI_Loop+0xf70>)
 8002568:	4a1c      	ldr	r2, [pc, #112]	@ (80025dc <System_UI_Loop+0xf64>)
 800256a:	4920      	ldr	r1, [pc, #128]	@ (80025ec <System_UI_Loop+0xf74>)
 800256c:	481d      	ldr	r0, [pc, #116]	@ (80025e4 <System_UI_Loop+0xf6c>)
 800256e:	f001 fb93 	bl	8003c98 <OLED_DoTweenObject>
        OLED_DoTweenObject(&g_AnimationManager, "BackButton", OLED_UI_START_X, OLED_UI_START_Y + OLED_UI_GAP_Y * 3, 1, EASE_IN_CIRC, true);
 8002572:	2301      	movs	r3, #1
 8002574:	9302      	str	r3, [sp, #8]
 8002576:	230a      	movs	r3, #10
 8002578:	9301      	str	r3, [sp, #4]
 800257a:	2301      	movs	r3, #1
 800257c:	9300      	str	r3, [sp, #0]
 800257e:	4b1c      	ldr	r3, [pc, #112]	@ (80025f0 <System_UI_Loop+0xf78>)
 8002580:	4a16      	ldr	r2, [pc, #88]	@ (80025dc <System_UI_Loop+0xf64>)
 8002582:	491c      	ldr	r1, [pc, #112]	@ (80025f4 <System_UI_Loop+0xf7c>)
 8002584:	4811      	ldr	r0, [pc, #68]	@ (80025cc <System_UI_Loop+0xf54>)
 8002586:	f001 fb87 	bl	8003c98 <OLED_DoTweenObject>
    }

    if (!isFirstRun)
 800258a:	4b1b      	ldr	r3, [pc, #108]	@ (80025f8 <System_UI_Loop+0xf80>)
 800258c:	781b      	ldrb	r3, [r3, #0]
 800258e:	f083 0301 	eor.w	r3, r3, #1
 8002592:	b2db      	uxtb	r3, r3
 8002594:	2b00      	cmp	r3, #0
 8002596:	d001      	beq.n	800259c <System_UI_Loop+0xf24>
        SystemGetsSignal();
 8002598:	f000 f830 	bl	80025fc <SystemGetsSignal>


    isFirstRun = false;
 800259c:	4b16      	ldr	r3, [pc, #88]	@ (80025f8 <System_UI_Loop+0xf80>)
 800259e:	2200      	movs	r2, #0
 80025a0:	701a      	strb	r2, [r3, #0]
    preMenuSelection = menuSelection;
 80025a2:	4b05      	ldr	r3, [pc, #20]	@ (80025b8 <System_UI_Loop+0xf40>)
 80025a4:	781b      	ldrb	r3, [r3, #0]
 80025a6:	82fb      	strh	r3, [r7, #22]
}
 80025a8:	bf00      	nop
 80025aa:	371c      	adds	r7, #28
 80025ac:	46bd      	mov	sp, r7
 80025ae:	bdf0      	pop	{r4, r5, r6, r7, pc}
 80025b0:	20000000 	.word	0x20000000
 80025b4:	20000991 	.word	0x20000991
 80025b8:	20000001 	.word	0x20000001
 80025bc:	08008ca8 	.word	0x08008ca8
 80025c0:	41200000 	.word	0x41200000
 80025c4:	42040000 	.word	0x42040000
 80025c8:	08008bc8 	.word	0x08008bc8
 80025cc:	20003750 	.word	0x20003750
 80025d0:	08008cb8 	.word	0x08008cb8
 80025d4:	41d80000 	.word	0x41d80000
 80025d8:	08008cc8 	.word	0x08008cc8
 80025dc:	c2b40000 	.word	0xc2b40000
 80025e0:	08008b94 	.word	0x08008b94
 80025e4:	20001398 	.word	0x20001398
 80025e8:	41e80000 	.word	0x41e80000
 80025ec:	08008b9c 	.word	0x08008b9c
 80025f0:	42280000 	.word	0x42280000
 80025f4:	08008ba4 	.word	0x08008ba4
 80025f8:	20000002 	.word	0x20000002

080025fc <SystemGetsSignal>:


void SystemGetsSignal() //这里是旋钮数据的获取
{
 80025fc:	b580      	push	{r7, lr}
 80025fe:	b086      	sub	sp, #24
 8002600:	af04      	add	r7, sp, #16
    static bool preMutiUse = true;
    static uint16_t preCount = 32767;
    uint16_t pageCount;
    if (currentPage == UI_PAGE_MENU)
 8002602:	4ba4      	ldr	r3, [pc, #656]	@ (8002894 <SystemGetsSignal+0x298>)
 8002604:	781b      	ldrb	r3, [r3, #0]
 8002606:	2b00      	cmp	r3, #0
 8002608:	d102      	bne.n	8002610 <SystemGetsSignal+0x14>
    {
        pageCount = MainMenuItemCount;
 800260a:	2305      	movs	r3, #5
 800260c:	80fb      	strh	r3, [r7, #6]
 800260e:	e021      	b.n	8002654 <SystemGetsSignal+0x58>
    }
    else if (currentPage == UI_PAGE_SETTINGS)
 8002610:	4ba0      	ldr	r3, [pc, #640]	@ (8002894 <SystemGetsSignal+0x298>)
 8002612:	781b      	ldrb	r3, [r3, #0]
 8002614:	2b01      	cmp	r3, #1
 8002616:	d102      	bne.n	800261e <SystemGetsSignal+0x22>
    {
        pageCount = SettingsItemCount;
 8002618:	2305      	movs	r3, #5
 800261a:	80fb      	strh	r3, [r7, #6]
 800261c:	e01a      	b.n	8002654 <SystemGetsSignal+0x58>
    }
    else if (currentPage == UI_PAGE_STATUS)
 800261e:	4b9d      	ldr	r3, [pc, #628]	@ (8002894 <SystemGetsSignal+0x298>)
 8002620:	781b      	ldrb	r3, [r3, #0]
 8002622:	2b02      	cmp	r3, #2
 8002624:	d102      	bne.n	800262c <SystemGetsSignal+0x30>
    {
        pageCount = StatusItemCount;
 8002626:	2305      	movs	r3, #5
 8002628:	80fb      	strh	r3, [r7, #6]
 800262a:	e013      	b.n	8002654 <SystemGetsSignal+0x58>
    }
    else if (currentPage == UI_PAGE_ABOUT)
 800262c:	4b99      	ldr	r3, [pc, #612]	@ (8002894 <SystemGetsSignal+0x298>)
 800262e:	781b      	ldrb	r3, [r3, #0]
 8002630:	2b03      	cmp	r3, #3
 8002632:	d102      	bne.n	800263a <SystemGetsSignal+0x3e>
    {
        pageCount = AboutItemCount;
 8002634:	2305      	movs	r3, #5
 8002636:	80fb      	strh	r3, [r7, #6]
 8002638:	e00c      	b.n	8002654 <SystemGetsSignal+0x58>
    }
    else if (currentPage == UI_PAGE_TOOLS)
 800263a:	4b96      	ldr	r3, [pc, #600]	@ (8002894 <SystemGetsSignal+0x298>)
 800263c:	781b      	ldrb	r3, [r3, #0]
 800263e:	2b04      	cmp	r3, #4
 8002640:	d102      	bne.n	8002648 <SystemGetsSignal+0x4c>
    {
        pageCount = ToolsItemCount;
 8002642:	2305      	movs	r3, #5
 8002644:	80fb      	strh	r3, [r7, #6]
 8002646:	e005      	b.n	8002654 <SystemGetsSignal+0x58>
    }
    else if (currentPage == UI_PAGE_GAMES)
 8002648:	4b92      	ldr	r3, [pc, #584]	@ (8002894 <SystemGetsSignal+0x298>)
 800264a:	781b      	ldrb	r3, [r3, #0]
 800264c:	2b05      	cmp	r3, #5
 800264e:	d101      	bne.n	8002654 <SystemGetsSignal+0x58>
    {
        pageCount = GamesItemCount;
 8002650:	2303      	movs	r3, #3
 8002652:	80fb      	strh	r3, [r7, #6]
    }

    if(count-preCount > 1)
 8002654:	4b90      	ldr	r3, [pc, #576]	@ (8002898 <SystemGetsSignal+0x29c>)
 8002656:	881b      	ldrh	r3, [r3, #0]
 8002658:	461a      	mov	r2, r3
 800265a:	4b90      	ldr	r3, [pc, #576]	@ (800289c <SystemGetsSignal+0x2a0>)
 800265c:	881b      	ldrh	r3, [r3, #0]
 800265e:	1ad3      	subs	r3, r2, r3
 8002660:	2b01      	cmp	r3, #1
 8002662:	dd14      	ble.n	800268e <SystemGetsSignal+0x92>
    {
        if(menuSelection < pageCount)
 8002664:	4b8e      	ldr	r3, [pc, #568]	@ (80028a0 <SystemGetsSignal+0x2a4>)
 8002666:	781b      	ldrb	r3, [r3, #0]
 8002668:	461a      	mov	r2, r3
 800266a:	88fb      	ldrh	r3, [r7, #6]
 800266c:	4293      	cmp	r3, r2
 800266e:	d906      	bls.n	800267e <SystemGetsSignal+0x82>
        {
            menuSelection++;
 8002670:	4b8b      	ldr	r3, [pc, #556]	@ (80028a0 <SystemGetsSignal+0x2a4>)
 8002672:	781b      	ldrb	r3, [r3, #0]
 8002674:	3301      	adds	r3, #1
 8002676:	b2da      	uxtb	r2, r3
 8002678:	4b89      	ldr	r3, [pc, #548]	@ (80028a0 <SystemGetsSignal+0x2a4>)
 800267a:	701a      	strb	r2, [r3, #0]
 800267c:	e002      	b.n	8002684 <SystemGetsSignal+0x88>
        }
        else
        {
            menuSelection = 1;
 800267e:	4b88      	ldr	r3, [pc, #544]	@ (80028a0 <SystemGetsSignal+0x2a4>)
 8002680:	2201      	movs	r2, #1
 8002682:	701a      	strb	r2, [r3, #0]
        }

        preCount = count;
 8002684:	4b84      	ldr	r3, [pc, #528]	@ (8002898 <SystemGetsSignal+0x29c>)
 8002686:	881a      	ldrh	r2, [r3, #0]
 8002688:	4b84      	ldr	r3, [pc, #528]	@ (800289c <SystemGetsSignal+0x2a0>)
 800268a:	801a      	strh	r2, [r3, #0]
 800268c:	e01b      	b.n	80026c6 <SystemGetsSignal+0xca>
    }
    else if(count-preCount < -1)
 800268e:	4b82      	ldr	r3, [pc, #520]	@ (8002898 <SystemGetsSignal+0x29c>)
 8002690:	881b      	ldrh	r3, [r3, #0]
 8002692:	461a      	mov	r2, r3
 8002694:	4b81      	ldr	r3, [pc, #516]	@ (800289c <SystemGetsSignal+0x2a0>)
 8002696:	881b      	ldrh	r3, [r3, #0]
 8002698:	1ad3      	subs	r3, r2, r3
 800269a:	f1b3 3fff 	cmp.w	r3, #4294967295
 800269e:	da12      	bge.n	80026c6 <SystemGetsSignal+0xca>
    {

        if(menuSelection > 1)
 80026a0:	4b7f      	ldr	r3, [pc, #508]	@ (80028a0 <SystemGetsSignal+0x2a4>)
 80026a2:	781b      	ldrb	r3, [r3, #0]
 80026a4:	2b01      	cmp	r3, #1
 80026a6:	d906      	bls.n	80026b6 <SystemGetsSignal+0xba>
        {
            menuSelection--;
 80026a8:	4b7d      	ldr	r3, [pc, #500]	@ (80028a0 <SystemGetsSignal+0x2a4>)
 80026aa:	781b      	ldrb	r3, [r3, #0]
 80026ac:	3b01      	subs	r3, #1
 80026ae:	b2da      	uxtb	r2, r3
 80026b0:	4b7b      	ldr	r3, [pc, #492]	@ (80028a0 <SystemGetsSignal+0x2a4>)
 80026b2:	701a      	strb	r2, [r3, #0]
 80026b4:	e003      	b.n	80026be <SystemGetsSignal+0xc2>
        }
        else
        {
            menuSelection = pageCount;
 80026b6:	88fb      	ldrh	r3, [r7, #6]
 80026b8:	b2da      	uxtb	r2, r3
 80026ba:	4b79      	ldr	r3, [pc, #484]	@ (80028a0 <SystemGetsSignal+0x2a4>)
 80026bc:	701a      	strb	r2, [r3, #0]
        }

        preCount = count;
 80026be:	4b76      	ldr	r3, [pc, #472]	@ (8002898 <SystemGetsSignal+0x29c>)
 80026c0:	881a      	ldrh	r2, [r3, #0]
 80026c2:	4b76      	ldr	r3, [pc, #472]	@ (800289c <SystemGetsSignal+0x2a0>)
 80026c4:	801a      	strh	r2, [r3, #0]
    }

    if (HAL_GPIO_ReadPin(GPIOB, GPIO_PIN_12) == GPIO_PIN_RESET)
 80026c6:	f44f 5180 	mov.w	r1, #4096	@ 0x1000
 80026ca:	4876      	ldr	r0, [pc, #472]	@ (80028a4 <SystemGetsSignal+0x2a8>)
 80026cc:	f002 fad8 	bl	8004c80 <HAL_GPIO_ReadPin>
 80026d0:	4603      	mov	r3, r0
 80026d2:	2b00      	cmp	r3, #0
 80026d4:	f040 81af 	bne.w	8002a36 <SystemGetsSignal+0x43a>
    {
        HAL_Delay(100); // 防抖动延时
 80026d8:	2064      	movs	r0, #100	@ 0x64
 80026da:	f001 febb 	bl	8004454 <HAL_Delay>
        if (HAL_GPIO_ReadPin(GPIOB, GPIO_PIN_12) == GPIO_PIN_RESET)
 80026de:	f44f 5180 	mov.w	r1, #4096	@ 0x1000
 80026e2:	4870      	ldr	r0, [pc, #448]	@ (80028a4 <SystemGetsSignal+0x2a8>)
 80026e4:	f002 facc 	bl	8004c80 <HAL_GPIO_ReadPin>
 80026e8:	4603      	mov	r3, r0
 80026ea:	2b00      	cmp	r3, #0
 80026ec:	f040 81a3 	bne.w	8002a36 <SystemGetsSignal+0x43a>
        {
            if (menuRank == 1 && menuSelection == 1)
 80026f0:	4b6d      	ldr	r3, [pc, #436]	@ (80028a8 <SystemGetsSignal+0x2ac>)
 80026f2:	781b      	ldrb	r3, [r3, #0]
 80026f4:	2b01      	cmp	r3, #1
 80026f6:	f040 80f9 	bne.w	80028ec <SystemGetsSignal+0x2f0>
 80026fa:	4b69      	ldr	r3, [pc, #420]	@ (80028a0 <SystemGetsSignal+0x2a4>)
 80026fc:	781b      	ldrb	r3, [r3, #0]
 80026fe:	2b01      	cmp	r3, #1
 8002700:	f040 80f4 	bne.w	80028ec <SystemGetsSignal+0x2f0>
            {
                menuRank = 2;
 8002704:	4b68      	ldr	r3, [pc, #416]	@ (80028a8 <SystemGetsSignal+0x2ac>)
 8002706:	2202      	movs	r2, #2
 8002708:	701a      	strb	r2, [r3, #0]
                currentPage = UI_PAGE_GAMES;
 800270a:	4b62      	ldr	r3, [pc, #392]	@ (8002894 <SystemGetsSignal+0x298>)
 800270c:	2205      	movs	r2, #5
 800270e:	701a      	strb	r2, [r3, #0]
                OLED_DoTweenObject(&Menu_AnimationManager, "GamesButton", OLED_UI_START_X, OLED_UI_START_Y + OLED_UI_GAP_Y * (2 - menuSelection), 1000, EASE_IN_CIRC, false);
 8002710:	4b63      	ldr	r3, [pc, #396]	@ (80028a0 <SystemGetsSignal+0x2a4>)
 8002712:	781b      	ldrb	r3, [r3, #0]
 8002714:	f1c3 0202 	rsb	r2, r3, #2
 8002718:	4613      	mov	r3, r2
 800271a:	005b      	lsls	r3, r3, #1
 800271c:	4413      	add	r3, r2
 800271e:	009b      	lsls	r3, r3, #2
 8002720:	4413      	add	r3, r2
 8002722:	3303      	adds	r3, #3
 8002724:	4618      	mov	r0, r3
 8002726:	f7fd fddd 	bl	80002e4 <__aeabi_i2f>
 800272a:	4603      	mov	r3, r0
 800272c:	2200      	movs	r2, #0
 800272e:	9202      	str	r2, [sp, #8]
 8002730:	220a      	movs	r2, #10
 8002732:	9201      	str	r2, [sp, #4]
 8002734:	f44f 727a 	mov.w	r2, #1000	@ 0x3e8
 8002738:	9200      	str	r2, [sp, #0]
 800273a:	4a5c      	ldr	r2, [pc, #368]	@ (80028ac <SystemGetsSignal+0x2b0>)
 800273c:	495c      	ldr	r1, [pc, #368]	@ (80028b0 <SystemGetsSignal+0x2b4>)
 800273e:	485d      	ldr	r0, [pc, #372]	@ (80028b4 <SystemGetsSignal+0x2b8>)
 8002740:	f001 faaa 	bl	8003c98 <OLED_DoTweenObject>
                OLED_DoTweenObject(&Menu_AnimationManager, "ToolsButton", OLED_UI_START_X, OLED_UI_START_Y + OLED_UI_GAP_Y * (3 - menuSelection), 1000, EASE_IN_CIRC, false);
 8002744:	4b56      	ldr	r3, [pc, #344]	@ (80028a0 <SystemGetsSignal+0x2a4>)
 8002746:	781b      	ldrb	r3, [r3, #0]
 8002748:	f1c3 0203 	rsb	r2, r3, #3
 800274c:	4613      	mov	r3, r2
 800274e:	005b      	lsls	r3, r3, #1
 8002750:	4413      	add	r3, r2
 8002752:	009b      	lsls	r3, r3, #2
 8002754:	4413      	add	r3, r2
 8002756:	3303      	adds	r3, #3
 8002758:	4618      	mov	r0, r3
 800275a:	f7fd fdc3 	bl	80002e4 <__aeabi_i2f>
 800275e:	4603      	mov	r3, r0
 8002760:	2200      	movs	r2, #0
 8002762:	9202      	str	r2, [sp, #8]
 8002764:	220a      	movs	r2, #10
 8002766:	9201      	str	r2, [sp, #4]
 8002768:	f44f 727a 	mov.w	r2, #1000	@ 0x3e8
 800276c:	9200      	str	r2, [sp, #0]
 800276e:	4a4f      	ldr	r2, [pc, #316]	@ (80028ac <SystemGetsSignal+0x2b0>)
 8002770:	4951      	ldr	r1, [pc, #324]	@ (80028b8 <SystemGetsSignal+0x2bc>)
 8002772:	4850      	ldr	r0, [pc, #320]	@ (80028b4 <SystemGetsSignal+0x2b8>)
 8002774:	f001 fa90 	bl	8003c98 <OLED_DoTweenObject>
                OLED_DoTweenObject(&Menu_AnimationManager, "StatusButton", OLED_UI_START_X, OLED_UI_START_Y + OLED_UI_GAP_Y * (4 - menuSelection), 1000, EASE_IN_CIRC, false);
 8002778:	4b49      	ldr	r3, [pc, #292]	@ (80028a0 <SystemGetsSignal+0x2a4>)
 800277a:	781b      	ldrb	r3, [r3, #0]
 800277c:	f1c3 0204 	rsb	r2, r3, #4
 8002780:	4613      	mov	r3, r2
 8002782:	005b      	lsls	r3, r3, #1
 8002784:	4413      	add	r3, r2
 8002786:	009b      	lsls	r3, r3, #2
 8002788:	4413      	add	r3, r2
 800278a:	3303      	adds	r3, #3
 800278c:	4618      	mov	r0, r3
 800278e:	f7fd fda9 	bl	80002e4 <__aeabi_i2f>
 8002792:	4603      	mov	r3, r0
 8002794:	2200      	movs	r2, #0
 8002796:	9202      	str	r2, [sp, #8]
 8002798:	220a      	movs	r2, #10
 800279a:	9201      	str	r2, [sp, #4]
 800279c:	f44f 727a 	mov.w	r2, #1000	@ 0x3e8
 80027a0:	9200      	str	r2, [sp, #0]
 80027a2:	4a42      	ldr	r2, [pc, #264]	@ (80028ac <SystemGetsSignal+0x2b0>)
 80027a4:	4945      	ldr	r1, [pc, #276]	@ (80028bc <SystemGetsSignal+0x2c0>)
 80027a6:	4843      	ldr	r0, [pc, #268]	@ (80028b4 <SystemGetsSignal+0x2b8>)
 80027a8:	f001 fa76 	bl	8003c98 <OLED_DoTweenObject>
                OLED_DoTweenObject(&Menu_AnimationManager, "SettingsButton", OLED_UI_START_X, OLED_UI_START_Y + OLED_UI_GAP_Y * (5 - menuSelection), 1000, EASE_IN_CIRC, false);
 80027ac:	4b3c      	ldr	r3, [pc, #240]	@ (80028a0 <SystemGetsSignal+0x2a4>)
 80027ae:	781b      	ldrb	r3, [r3, #0]
 80027b0:	f1c3 0205 	rsb	r2, r3, #5
 80027b4:	4613      	mov	r3, r2
 80027b6:	005b      	lsls	r3, r3, #1
 80027b8:	4413      	add	r3, r2
 80027ba:	009b      	lsls	r3, r3, #2
 80027bc:	4413      	add	r3, r2
 80027be:	3303      	adds	r3, #3
 80027c0:	4618      	mov	r0, r3
 80027c2:	f7fd fd8f 	bl	80002e4 <__aeabi_i2f>
 80027c6:	4603      	mov	r3, r0
 80027c8:	2200      	movs	r2, #0
 80027ca:	9202      	str	r2, [sp, #8]
 80027cc:	220a      	movs	r2, #10
 80027ce:	9201      	str	r2, [sp, #4]
 80027d0:	f44f 727a 	mov.w	r2, #1000	@ 0x3e8
 80027d4:	9200      	str	r2, [sp, #0]
 80027d6:	4a35      	ldr	r2, [pc, #212]	@ (80028ac <SystemGetsSignal+0x2b0>)
 80027d8:	4939      	ldr	r1, [pc, #228]	@ (80028c0 <SystemGetsSignal+0x2c4>)
 80027da:	4836      	ldr	r0, [pc, #216]	@ (80028b4 <SystemGetsSignal+0x2b8>)
 80027dc:	f001 fa5c 	bl	8003c98 <OLED_DoTweenObject>
                OLED_DoTweenObject(&Menu_AnimationManager, "AboutButton", OLED_UI_START_X, OLED_UI_START_Y + OLED_UI_GAP_Y * (6 - menuSelection), 1000, EASE_IN_CIRC, false);
 80027e0:	4b2f      	ldr	r3, [pc, #188]	@ (80028a0 <SystemGetsSignal+0x2a4>)
 80027e2:	781b      	ldrb	r3, [r3, #0]
 80027e4:	f1c3 0206 	rsb	r2, r3, #6
 80027e8:	4613      	mov	r3, r2
 80027ea:	005b      	lsls	r3, r3, #1
 80027ec:	4413      	add	r3, r2
 80027ee:	009b      	lsls	r3, r3, #2
 80027f0:	4413      	add	r3, r2
 80027f2:	3303      	adds	r3, #3
 80027f4:	4618      	mov	r0, r3
 80027f6:	f7fd fd75 	bl	80002e4 <__aeabi_i2f>
 80027fa:	4603      	mov	r3, r0
 80027fc:	2200      	movs	r2, #0
 80027fe:	9202      	str	r2, [sp, #8]
 8002800:	220a      	movs	r2, #10
 8002802:	9201      	str	r2, [sp, #4]
 8002804:	f44f 727a 	mov.w	r2, #1000	@ 0x3e8
 8002808:	9200      	str	r2, [sp, #0]
 800280a:	4a28      	ldr	r2, [pc, #160]	@ (80028ac <SystemGetsSignal+0x2b0>)
 800280c:	492d      	ldr	r1, [pc, #180]	@ (80028c4 <SystemGetsSignal+0x2c8>)
 800280e:	4829      	ldr	r0, [pc, #164]	@ (80028b4 <SystemGetsSignal+0x2b8>)
 8002810:	f001 fa42 	bl	8003c98 <OLED_DoTweenObject>

                OLED_DoTweenObject(&g_AnimationManager, "CursorScale", 1, 10, 1000, EASE_IN_EXPO, false);
 8002814:	2300      	movs	r3, #0
 8002816:	9302      	str	r3, [sp, #8]
 8002818:	2307      	movs	r3, #7
 800281a:	9301      	str	r3, [sp, #4]
 800281c:	f44f 737a 	mov.w	r3, #1000	@ 0x3e8
 8002820:	9300      	str	r3, [sp, #0]
 8002822:	4b29      	ldr	r3, [pc, #164]	@ (80028c8 <SystemGetsSignal+0x2cc>)
 8002824:	f04f 527e 	mov.w	r2, #1065353216	@ 0x3f800000
 8002828:	4928      	ldr	r1, [pc, #160]	@ (80028cc <SystemGetsSignal+0x2d0>)
 800282a:	4829      	ldr	r0, [pc, #164]	@ (80028d0 <SystemGetsSignal+0x2d4>)
 800282c:	f001 fa34 	bl	8003c98 <OLED_DoTweenObject>
                OLED_DoTweenObject(&Games_AnimationManager, "Snake", OLED_UI_END_X, OLED_UI_START_Y + OLED_UI_GAP_Y * 1, 1000, EASE_IN_CIRC, false);
 8002830:	2300      	movs	r3, #0
 8002832:	9302      	str	r3, [sp, #8]
 8002834:	230a      	movs	r3, #10
 8002836:	9301      	str	r3, [sp, #4]
 8002838:	f44f 737a 	mov.w	r3, #1000	@ 0x3e8
 800283c:	9300      	str	r3, [sp, #0]
 800283e:	f04f 4383 	mov.w	r3, #1098907648	@ 0x41800000
 8002842:	f04f 4280 	mov.w	r2, #1073741824	@ 0x40000000
 8002846:	4923      	ldr	r1, [pc, #140]	@ (80028d4 <SystemGetsSignal+0x2d8>)
 8002848:	4823      	ldr	r0, [pc, #140]	@ (80028d8 <SystemGetsSignal+0x2dc>)
 800284a:	f001 fa25 	bl	8003c98 <OLED_DoTweenObject>
                HAL_Delay(100);
 800284e:	2064      	movs	r0, #100	@ 0x64
 8002850:	f001 fe00 	bl	8004454 <HAL_Delay>
                OLED_DoTweenObject(&Games_AnimationManager, "2048", OLED_UI_END_X, OLED_UI_START_Y + OLED_UI_GAP_Y * 2, 1000, EASE_IN_CIRC, false);
 8002854:	2300      	movs	r3, #0
 8002856:	9302      	str	r3, [sp, #8]
 8002858:	230a      	movs	r3, #10
 800285a:	9301      	str	r3, [sp, #4]
 800285c:	f44f 737a 	mov.w	r3, #1000	@ 0x3e8
 8002860:	9300      	str	r3, [sp, #0]
 8002862:	4b1e      	ldr	r3, [pc, #120]	@ (80028dc <SystemGetsSignal+0x2e0>)
 8002864:	f04f 4280 	mov.w	r2, #1073741824	@ 0x40000000
 8002868:	491d      	ldr	r1, [pc, #116]	@ (80028e0 <SystemGetsSignal+0x2e4>)
 800286a:	481b      	ldr	r0, [pc, #108]	@ (80028d8 <SystemGetsSignal+0x2dc>)
 800286c:	f001 fa14 	bl	8003c98 <OLED_DoTweenObject>
                HAL_Delay(100);
 8002870:	2064      	movs	r0, #100	@ 0x64
 8002872:	f001 fdef 	bl	8004454 <HAL_Delay>
                OLED_DoTweenObject(&g_AnimationManager, "BackButton", OLED_UI_END_X, OLED_UI_START_Y + OLED_UI_GAP_Y * 3, 1000, EASE_IN_CIRC, false);
 8002876:	2300      	movs	r3, #0
 8002878:	9302      	str	r3, [sp, #8]
 800287a:	230a      	movs	r3, #10
 800287c:	9301      	str	r3, [sp, #4]
 800287e:	f44f 737a 	mov.w	r3, #1000	@ 0x3e8
 8002882:	9300      	str	r3, [sp, #0]
 8002884:	4b17      	ldr	r3, [pc, #92]	@ (80028e4 <SystemGetsSignal+0x2e8>)
 8002886:	f04f 4280 	mov.w	r2, #1073741824	@ 0x40000000
 800288a:	4917      	ldr	r1, [pc, #92]	@ (80028e8 <SystemGetsSignal+0x2ec>)
 800288c:	4810      	ldr	r0, [pc, #64]	@ (80028d0 <SystemGetsSignal+0x2d4>)
 800288e:	f001 fa03 	bl	8003c98 <OLED_DoTweenObject>
 8002892:	e0c7      	b.n	8002a24 <SystemGetsSignal+0x428>
 8002894:	20000991 	.word	0x20000991
 8002898:	2000017c 	.word	0x2000017c
 800289c:	20000004 	.word	0x20000004
 80028a0:	20000001 	.word	0x20000001
 80028a4:	40010c00 	.word	0x40010c00
 80028a8:	20000000 	.word	0x20000000
 80028ac:	c2b40000 	.word	0xc2b40000
 80028b0:	08008bd4 	.word	0x08008bd4
 80028b4:	20000da4 	.word	0x20000da4
 80028b8:	08008be0 	.word	0x08008be0
 80028bc:	08008bec 	.word	0x08008bec
 80028c0:	08008bfc 	.word	0x08008bfc
 80028c4:	08008c0c 	.word	0x08008c0c
 80028c8:	41200000 	.word	0x41200000
 80028cc:	08008bc8 	.word	0x08008bc8
 80028d0:	20003750 	.word	0x20003750
 80028d4:	08008b94 	.word	0x08008b94
 80028d8:	20001398 	.word	0x20001398
 80028dc:	41e80000 	.word	0x41e80000
 80028e0:	08008b9c 	.word	0x08008b9c
 80028e4:	42280000 	.word	0x42280000
 80028e8:	08008ba4 	.word	0x08008ba4
            }
            else if (menuRank == 2 && menuSelection == 3)
 80028ec:	4b54      	ldr	r3, [pc, #336]	@ (8002a40 <SystemGetsSignal+0x444>)
 80028ee:	781b      	ldrb	r3, [r3, #0]
 80028f0:	2b02      	cmp	r3, #2
 80028f2:	f040 8097 	bne.w	8002a24 <SystemGetsSignal+0x428>
 80028f6:	4b53      	ldr	r3, [pc, #332]	@ (8002a44 <SystemGetsSignal+0x448>)
 80028f8:	781b      	ldrb	r3, [r3, #0]
 80028fa:	2b03      	cmp	r3, #3
 80028fc:	f040 8092 	bne.w	8002a24 <SystemGetsSignal+0x428>
            {
                menuRank = 1;
 8002900:	4b4f      	ldr	r3, [pc, #316]	@ (8002a40 <SystemGetsSignal+0x444>)
 8002902:	2201      	movs	r2, #1
 8002904:	701a      	strb	r2, [r3, #0]
                menuSelection = 1;
 8002906:	4b4f      	ldr	r3, [pc, #316]	@ (8002a44 <SystemGetsSignal+0x448>)
 8002908:	2201      	movs	r2, #1
 800290a:	701a      	strb	r2, [r3, #0]
                currentPage = UI_PAGE_MENU;
 800290c:	4b4e      	ldr	r3, [pc, #312]	@ (8002a48 <SystemGetsSignal+0x44c>)
 800290e:	2200      	movs	r2, #0
 8002910:	701a      	strb	r2, [r3, #0]
                
                OLED_DoTweenObject(&Games_AnimationManager, "Snake", OLED_UI_START_X, OLED_UI_START_Y + OLED_UI_GAP_Y * -1, 1000, EASE_IN_CIRC, false);
 8002912:	2300      	movs	r3, #0
 8002914:	9302      	str	r3, [sp, #8]
 8002916:	230a      	movs	r3, #10
 8002918:	9301      	str	r3, [sp, #4]
 800291a:	f44f 737a 	mov.w	r3, #1000	@ 0x3e8
 800291e:	9300      	str	r3, [sp, #0]
 8002920:	4b4a      	ldr	r3, [pc, #296]	@ (8002a4c <SystemGetsSignal+0x450>)
 8002922:	4a4b      	ldr	r2, [pc, #300]	@ (8002a50 <SystemGetsSignal+0x454>)
 8002924:	494b      	ldr	r1, [pc, #300]	@ (8002a54 <SystemGetsSignal+0x458>)
 8002926:	484c      	ldr	r0, [pc, #304]	@ (8002a58 <SystemGetsSignal+0x45c>)
 8002928:	f001 f9b6 	bl	8003c98 <OLED_DoTweenObject>
                OLED_DoTweenObject(&Games_AnimationManager, "2048", OLED_UI_START_X, OLED_UI_START_Y + OLED_UI_GAP_Y * 0, 1000, EASE_IN_CIRC, false);
 800292c:	2300      	movs	r3, #0
 800292e:	9302      	str	r3, [sp, #8]
 8002930:	230a      	movs	r3, #10
 8002932:	9301      	str	r3, [sp, #4]
 8002934:	f44f 737a 	mov.w	r3, #1000	@ 0x3e8
 8002938:	9300      	str	r3, [sp, #0]
 800293a:	4b48      	ldr	r3, [pc, #288]	@ (8002a5c <SystemGetsSignal+0x460>)
 800293c:	4a44      	ldr	r2, [pc, #272]	@ (8002a50 <SystemGetsSignal+0x454>)
 800293e:	4948      	ldr	r1, [pc, #288]	@ (8002a60 <SystemGetsSignal+0x464>)
 8002940:	4845      	ldr	r0, [pc, #276]	@ (8002a58 <SystemGetsSignal+0x45c>)
 8002942:	f001 f9a9 	bl	8003c98 <OLED_DoTweenObject>
                OLED_DoTweenObject(&g_AnimationManager, "BackButton", OLED_UI_START_X, OLED_UI_START_Y + OLED_UI_GAP_Y * 1, 1000, EASE_IN_CIRC, false);
 8002946:	2300      	movs	r3, #0
 8002948:	9302      	str	r3, [sp, #8]
 800294a:	230a      	movs	r3, #10
 800294c:	9301      	str	r3, [sp, #4]
 800294e:	f44f 737a 	mov.w	r3, #1000	@ 0x3e8
 8002952:	9300      	str	r3, [sp, #0]
 8002954:	f04f 4383 	mov.w	r3, #1098907648	@ 0x41800000
 8002958:	4a3d      	ldr	r2, [pc, #244]	@ (8002a50 <SystemGetsSignal+0x454>)
 800295a:	4942      	ldr	r1, [pc, #264]	@ (8002a64 <SystemGetsSignal+0x468>)
 800295c:	4842      	ldr	r0, [pc, #264]	@ (8002a68 <SystemGetsSignal+0x46c>)
 800295e:	f001 f99b 	bl	8003c98 <OLED_DoTweenObject>
                OLED_DoTweenObject(&g_AnimationManager, "CursorScale", 1, 10, 1000, EASE_IN_EXPO, false);
 8002962:	2300      	movs	r3, #0
 8002964:	9302      	str	r3, [sp, #8]
 8002966:	2307      	movs	r3, #7
 8002968:	9301      	str	r3, [sp, #4]
 800296a:	f44f 737a 	mov.w	r3, #1000	@ 0x3e8
 800296e:	9300      	str	r3, [sp, #0]
 8002970:	4b3e      	ldr	r3, [pc, #248]	@ (8002a6c <SystemGetsSignal+0x470>)
 8002972:	f04f 527e 	mov.w	r2, #1065353216	@ 0x3f800000
 8002976:	493e      	ldr	r1, [pc, #248]	@ (8002a70 <SystemGetsSignal+0x474>)
 8002978:	483b      	ldr	r0, [pc, #236]	@ (8002a68 <SystemGetsSignal+0x46c>)
 800297a:	f001 f98d 	bl	8003c98 <OLED_DoTweenObject>


                OLED_DoTweenObject(&Menu_AnimationManager, "GamesButton", OLED_UI_END_X, OLED_UI_START_Y + OLED_UI_GAP_Y * 1, 1000, EASE_IN_CIRC, false);
 800297e:	2300      	movs	r3, #0
 8002980:	9302      	str	r3, [sp, #8]
 8002982:	230a      	movs	r3, #10
 8002984:	9301      	str	r3, [sp, #4]
 8002986:	f44f 737a 	mov.w	r3, #1000	@ 0x3e8
 800298a:	9300      	str	r3, [sp, #0]
 800298c:	f04f 4383 	mov.w	r3, #1098907648	@ 0x41800000
 8002990:	f04f 4280 	mov.w	r2, #1073741824	@ 0x40000000
 8002994:	4937      	ldr	r1, [pc, #220]	@ (8002a74 <SystemGetsSignal+0x478>)
 8002996:	4838      	ldr	r0, [pc, #224]	@ (8002a78 <SystemGetsSignal+0x47c>)
 8002998:	f001 f97e 	bl	8003c98 <OLED_DoTweenObject>
                HAL_Delay(100);
 800299c:	2064      	movs	r0, #100	@ 0x64
 800299e:	f001 fd59 	bl	8004454 <HAL_Delay>
                OLED_DoTweenObject(&Menu_AnimationManager, "ToolsButton", OLED_UI_END_X, OLED_UI_START_Y + OLED_UI_GAP_Y * 2, 1000, EASE_IN_CIRC, false);
 80029a2:	2300      	movs	r3, #0
 80029a4:	9302      	str	r3, [sp, #8]
 80029a6:	230a      	movs	r3, #10
 80029a8:	9301      	str	r3, [sp, #4]
 80029aa:	f44f 737a 	mov.w	r3, #1000	@ 0x3e8
 80029ae:	9300      	str	r3, [sp, #0]
 80029b0:	4b32      	ldr	r3, [pc, #200]	@ (8002a7c <SystemGetsSignal+0x480>)
 80029b2:	f04f 4280 	mov.w	r2, #1073741824	@ 0x40000000
 80029b6:	4932      	ldr	r1, [pc, #200]	@ (8002a80 <SystemGetsSignal+0x484>)
 80029b8:	482f      	ldr	r0, [pc, #188]	@ (8002a78 <SystemGetsSignal+0x47c>)
 80029ba:	f001 f96d 	bl	8003c98 <OLED_DoTweenObject>
                HAL_Delay(100);
 80029be:	2064      	movs	r0, #100	@ 0x64
 80029c0:	f001 fd48 	bl	8004454 <HAL_Delay>
                OLED_DoTweenObject(&Menu_AnimationManager, "StatusButton", OLED_UI_END_X, OLED_UI_START_Y + OLED_UI_GAP_Y * 3, 1000, EASE_IN_CIRC, false);
 80029c4:	2300      	movs	r3, #0
 80029c6:	9302      	str	r3, [sp, #8]
 80029c8:	230a      	movs	r3, #10
 80029ca:	9301      	str	r3, [sp, #4]
 80029cc:	f44f 737a 	mov.w	r3, #1000	@ 0x3e8
 80029d0:	9300      	str	r3, [sp, #0]
 80029d2:	4b2c      	ldr	r3, [pc, #176]	@ (8002a84 <SystemGetsSignal+0x488>)
 80029d4:	f04f 4280 	mov.w	r2, #1073741824	@ 0x40000000
 80029d8:	492b      	ldr	r1, [pc, #172]	@ (8002a88 <SystemGetsSignal+0x48c>)
 80029da:	4827      	ldr	r0, [pc, #156]	@ (8002a78 <SystemGetsSignal+0x47c>)
 80029dc:	f001 f95c 	bl	8003c98 <OLED_DoTweenObject>
                HAL_Delay(100);
 80029e0:	2064      	movs	r0, #100	@ 0x64
 80029e2:	f001 fd37 	bl	8004454 <HAL_Delay>
                OLED_DoTweenObject(&Menu_AnimationManager, "SettingsButton", OLED_UI_END_X, OLED_UI_START_Y + OLED_UI_GAP_Y * 4, 1000, EASE_IN_CIRC, false);
 80029e6:	2300      	movs	r3, #0
 80029e8:	9302      	str	r3, [sp, #8]
 80029ea:	230a      	movs	r3, #10
 80029ec:	9301      	str	r3, [sp, #4]
 80029ee:	f44f 737a 	mov.w	r3, #1000	@ 0x3e8
 80029f2:	9300      	str	r3, [sp, #0]
 80029f4:	4b25      	ldr	r3, [pc, #148]	@ (8002a8c <SystemGetsSignal+0x490>)
 80029f6:	f04f 4280 	mov.w	r2, #1073741824	@ 0x40000000
 80029fa:	4925      	ldr	r1, [pc, #148]	@ (8002a90 <SystemGetsSignal+0x494>)
 80029fc:	481e      	ldr	r0, [pc, #120]	@ (8002a78 <SystemGetsSignal+0x47c>)
 80029fe:	f001 f94b 	bl	8003c98 <OLED_DoTweenObject>
                HAL_Delay(100);
 8002a02:	2064      	movs	r0, #100	@ 0x64
 8002a04:	f001 fd26 	bl	8004454 <HAL_Delay>
                OLED_DoTweenObject(&Menu_AnimationManager, "AboutButton", OLED_UI_END_X, OLED_UI_START_Y + OLED_UI_GAP_Y * 5, 1000, EASE_IN_CIRC, false);
 8002a08:	2300      	movs	r3, #0
 8002a0a:	9302      	str	r3, [sp, #8]
 8002a0c:	230a      	movs	r3, #10
 8002a0e:	9301      	str	r3, [sp, #4]
 8002a10:	f44f 737a 	mov.w	r3, #1000	@ 0x3e8
 8002a14:	9300      	str	r3, [sp, #0]
 8002a16:	4b1f      	ldr	r3, [pc, #124]	@ (8002a94 <SystemGetsSignal+0x498>)
 8002a18:	f04f 4280 	mov.w	r2, #1073741824	@ 0x40000000
 8002a1c:	491e      	ldr	r1, [pc, #120]	@ (8002a98 <SystemGetsSignal+0x49c>)
 8002a1e:	4816      	ldr	r0, [pc, #88]	@ (8002a78 <SystemGetsSignal+0x47c>)
 8002a20:	f001 f93a 	bl	8003c98 <OLED_DoTweenObject>





            while (HAL_GPIO_ReadPin(GPIOB, GPIO_PIN_12) == GPIO_PIN_RESET)
 8002a24:	bf00      	nop
 8002a26:	f44f 5180 	mov.w	r1, #4096	@ 0x1000
 8002a2a:	481c      	ldr	r0, [pc, #112]	@ (8002a9c <SystemGetsSignal+0x4a0>)
 8002a2c:	f002 f928 	bl	8004c80 <HAL_GPIO_ReadPin>
 8002a30:	4603      	mov	r3, r0
 8002a32:	2b00      	cmp	r3, #0
 8002a34:	d0f7      	beq.n	8002a26 <SystemGetsSignal+0x42a>
                // 等待按钮释放
            }
        }
    }

}
 8002a36:	bf00      	nop
 8002a38:	3708      	adds	r7, #8
 8002a3a:	46bd      	mov	sp, r7
 8002a3c:	bd80      	pop	{r7, pc}
 8002a3e:	bf00      	nop
 8002a40:	20000000 	.word	0x20000000
 8002a44:	20000001 	.word	0x20000001
 8002a48:	20000991 	.word	0x20000991
 8002a4c:	c1200000 	.word	0xc1200000
 8002a50:	c2b40000 	.word	0xc2b40000
 8002a54:	08008b94 	.word	0x08008b94
 8002a58:	20001398 	.word	0x20001398
 8002a5c:	40400000 	.word	0x40400000
 8002a60:	08008b9c 	.word	0x08008b9c
 8002a64:	08008ba4 	.word	0x08008ba4
 8002a68:	20003750 	.word	0x20003750
 8002a6c:	41200000 	.word	0x41200000
 8002a70:	08008bc8 	.word	0x08008bc8
 8002a74:	08008bd4 	.word	0x08008bd4
 8002a78:	20000da4 	.word	0x20000da4
 8002a7c:	41e80000 	.word	0x41e80000
 8002a80:	08008be0 	.word	0x08008be0
 8002a84:	42280000 	.word	0x42280000
 8002a88:	08008bec 	.word	0x08008bec
 8002a8c:	425c0000 	.word	0x425c0000
 8002a90:	08008bfc 	.word	0x08008bfc
 8002a94:	42880000 	.word	0x42880000
 8002a98:	08008c0c 	.word	0x08008c0c
 8002a9c:	40010c00 	.word	0x40010c00

08002aa0 <OLED_EnableDiffMode>:
    }
}

// 启用差分更新模式
void OLED_EnableDiffMode(uint8_t enable)
{
 8002aa0:	b580      	push	{r7, lr}
 8002aa2:	b082      	sub	sp, #8
 8002aa4:	af00      	add	r7, sp, #0
 8002aa6:	4603      	mov	r3, r0
 8002aa8:	71fb      	strb	r3, [r7, #7]
    diff_mode_enabled = enable;
 8002aaa:	4a09      	ldr	r2, [pc, #36]	@ (8002ad0 <OLED_EnableDiffMode+0x30>)
 8002aac:	79fb      	ldrb	r3, [r7, #7]
 8002aae:	7013      	strb	r3, [r2, #0]
    if (enable)
 8002ab0:	79fb      	ldrb	r3, [r7, #7]
 8002ab2:	2b00      	cmp	r3, #0
 8002ab4:	d008      	beq.n	8002ac8 <OLED_EnableDiffMode+0x28>
    {
        memcpy(OLED_PrevBuffer, OLED_BackBuffer, OLED_WIDTH * OLED_PAGES);
 8002ab6:	4a07      	ldr	r2, [pc, #28]	@ (8002ad4 <OLED_EnableDiffMode+0x34>)
 8002ab8:	4b07      	ldr	r3, [pc, #28]	@ (8002ad8 <OLED_EnableDiffMode+0x38>)
 8002aba:	4610      	mov	r0, r2
 8002abc:	4619      	mov	r1, r3
 8002abe:	f44f 6380 	mov.w	r3, #1024	@ 0x400
 8002ac2:	461a      	mov	r2, r3
 8002ac4:	f004 f972 	bl	8006dac <memcpy>
    }
}
 8002ac8:	bf00      	nop
 8002aca:	3708      	adds	r7, #8
 8002acc:	46bd      	mov	sp, r7
 8002ace:	bd80      	pop	{r7, pc}
 8002ad0:	20000d94 	.word	0x20000d94
 8002ad4:	20000994 	.word	0x20000994
 8002ad8:	20000190 	.word	0x20000190

08002adc <OLED_EnableFastUpdate>:

// 设置快速更新模式
void OLED_EnableFastUpdate(uint8_t enable)
{
 8002adc:	b480      	push	{r7}
 8002ade:	b083      	sub	sp, #12
 8002ae0:	af00      	add	r7, sp, #0
 8002ae2:	4603      	mov	r3, r0
 8002ae4:	71fb      	strb	r3, [r7, #7]
    fast_update_enabled = enable;
 8002ae6:	4a04      	ldr	r2, [pc, #16]	@ (8002af8 <OLED_EnableFastUpdate+0x1c>)
 8002ae8:	79fb      	ldrb	r3, [r7, #7]
 8002aea:	7013      	strb	r3, [r2, #0]
}
 8002aec:	bf00      	nop
 8002aee:	370c      	adds	r7, #12
 8002af0:	46bd      	mov	sp, r7
 8002af2:	bc80      	pop	{r7}
 8002af4:	4770      	bx	lr
 8002af6:	bf00      	nop
 8002af8:	20000006 	.word	0x20000006

08002afc <OLED_SmartUpdate>:

// 智能更新显示
// 选择性更新脏页，以提高帧率
void OLED_SmartUpdate(void)
{
 8002afc:	b580      	push	{r7, lr}
 8002afe:	b084      	sub	sp, #16
 8002b00:	af00      	add	r7, sp, #0
    // 如果OLED/DMA忙，直接返回
    if (OLED_IsBusy())
 8002b02:	f7fe f903 	bl	8000d0c <OLED_IsBusy>
 8002b06:	4603      	mov	r3, r0
 8002b08:	2b00      	cmp	r3, #0
 8002b0a:	f040 8082 	bne.w	8002c12 <OLED_SmartUpdate+0x116>
    {
        return;
    }

    // 检查是否有脏页需要更新
    uint8_t has_dirty = 0;
 8002b0e:	2300      	movs	r3, #0
 8002b10:	73fb      	strb	r3, [r7, #15]
    uint8_t first_dirty = 255;
 8002b12:	23ff      	movs	r3, #255	@ 0xff
 8002b14:	73bb      	strb	r3, [r7, #14]
    uint8_t last_dirty = 0;
 8002b16:	2300      	movs	r3, #0
 8002b18:	737b      	strb	r3, [r7, #13]

    // 如果启用了差分更新，检查哪些页已经变化
    if (diff_mode_enabled)
 8002b1a:	4b40      	ldr	r3, [pc, #256]	@ (8002c1c <OLED_SmartUpdate+0x120>)
 8002b1c:	781b      	ldrb	r3, [r3, #0]
 8002b1e:	2b00      	cmp	r3, #0
 8002b20:	d046      	beq.n	8002bb0 <OLED_SmartUpdate+0xb4>
    {
        for (uint8_t page = 0; page < OLED_PAGES; page++)
 8002b22:	2300      	movs	r3, #0
 8002b24:	733b      	strb	r3, [r7, #12]
 8002b26:	e03f      	b.n	8002ba8 <OLED_SmartUpdate+0xac>
        {
            // 检查此页中是否有任何字节发生变化
            uint8_t page_changed = 0;
 8002b28:	2300      	movs	r3, #0
 8002b2a:	72fb      	strb	r3, [r7, #11]
            uint16_t start_idx = page * OLED_WIDTH;
 8002b2c:	7b3b      	ldrb	r3, [r7, #12]
 8002b2e:	b29b      	uxth	r3, r3
 8002b30:	01db      	lsls	r3, r3, #7
 8002b32:	80bb      	strh	r3, [r7, #4]

            for (uint16_t i = 0; i < OLED_WIDTH; i++)
 8002b34:	2300      	movs	r3, #0
 8002b36:	813b      	strh	r3, [r7, #8]
 8002b38:	e015      	b.n	8002b66 <OLED_SmartUpdate+0x6a>
            {
                if (OLED_BackBuffer[start_idx + i] != OLED_PrevBuffer[start_idx + i])
 8002b3a:	88ba      	ldrh	r2, [r7, #4]
 8002b3c:	893b      	ldrh	r3, [r7, #8]
 8002b3e:	4413      	add	r3, r2
 8002b40:	4a37      	ldr	r2, [pc, #220]	@ (8002c20 <OLED_SmartUpdate+0x124>)
 8002b42:	5cd2      	ldrb	r2, [r2, r3]
 8002b44:	88b9      	ldrh	r1, [r7, #4]
 8002b46:	893b      	ldrh	r3, [r7, #8]
 8002b48:	440b      	add	r3, r1
 8002b4a:	4936      	ldr	r1, [pc, #216]	@ (8002c24 <OLED_SmartUpdate+0x128>)
 8002b4c:	5ccb      	ldrb	r3, [r1, r3]
 8002b4e:	429a      	cmp	r2, r3
 8002b50:	d006      	beq.n	8002b60 <OLED_SmartUpdate+0x64>
                {
                    page_changed = 1;
 8002b52:	2301      	movs	r3, #1
 8002b54:	72fb      	strb	r3, [r7, #11]
                    oled_dirty_pages[page] = 1;
 8002b56:	7b3b      	ldrb	r3, [r7, #12]
 8002b58:	4a33      	ldr	r2, [pc, #204]	@ (8002c28 <OLED_SmartUpdate+0x12c>)
 8002b5a:	2101      	movs	r1, #1
 8002b5c:	54d1      	strb	r1, [r2, r3]
                    break;
 8002b5e:	e005      	b.n	8002b6c <OLED_SmartUpdate+0x70>
            for (uint16_t i = 0; i < OLED_WIDTH; i++)
 8002b60:	893b      	ldrh	r3, [r7, #8]
 8002b62:	3301      	adds	r3, #1
 8002b64:	813b      	strh	r3, [r7, #8]
 8002b66:	893b      	ldrh	r3, [r7, #8]
 8002b68:	2b7f      	cmp	r3, #127	@ 0x7f
 8002b6a:	d9e6      	bls.n	8002b3a <OLED_SmartUpdate+0x3e>
                }
            }

            if (page_changed)
 8002b6c:	7afb      	ldrb	r3, [r7, #11]
 8002b6e:	2b00      	cmp	r3, #0
 8002b70:	d017      	beq.n	8002ba2 <OLED_SmartUpdate+0xa6>
            {
                has_dirty = 1;
 8002b72:	2301      	movs	r3, #1
 8002b74:	73fb      	strb	r3, [r7, #15]
                if (page < first_dirty)
 8002b76:	7b3a      	ldrb	r2, [r7, #12]
 8002b78:	7bbb      	ldrb	r3, [r7, #14]
 8002b7a:	429a      	cmp	r2, r3
 8002b7c:	d201      	bcs.n	8002b82 <OLED_SmartUpdate+0x86>
                    first_dirty = page;
 8002b7e:	7b3b      	ldrb	r3, [r7, #12]
 8002b80:	73bb      	strb	r3, [r7, #14]
                if (page > last_dirty)
 8002b82:	7b3a      	ldrb	r2, [r7, #12]
 8002b84:	7b7b      	ldrb	r3, [r7, #13]
 8002b86:	429a      	cmp	r2, r3
 8002b88:	d901      	bls.n	8002b8e <OLED_SmartUpdate+0x92>
                    last_dirty = page;
 8002b8a:	7b3b      	ldrb	r3, [r7, #12]
 8002b8c:	737b      	strb	r3, [r7, #13]

                // 更新上一帧缓存
                memcpy(
 8002b8e:	88bb      	ldrh	r3, [r7, #4]
 8002b90:	4a24      	ldr	r2, [pc, #144]	@ (8002c24 <OLED_SmartUpdate+0x128>)
 8002b92:	1898      	adds	r0, r3, r2
 8002b94:	88bb      	ldrh	r3, [r7, #4]
 8002b96:	4a22      	ldr	r2, [pc, #136]	@ (8002c20 <OLED_SmartUpdate+0x124>)
 8002b98:	4413      	add	r3, r2
 8002b9a:	2280      	movs	r2, #128	@ 0x80
 8002b9c:	4619      	mov	r1, r3
 8002b9e:	f004 f905 	bl	8006dac <memcpy>
        for (uint8_t page = 0; page < OLED_PAGES; page++)
 8002ba2:	7b3b      	ldrb	r3, [r7, #12]
 8002ba4:	3301      	adds	r3, #1
 8002ba6:	733b      	strb	r3, [r7, #12]
 8002ba8:	7b3b      	ldrb	r3, [r7, #12]
 8002baa:	2b07      	cmp	r3, #7
 8002bac:	d9bc      	bls.n	8002b28 <OLED_SmartUpdate+0x2c>
 8002bae:	e01c      	b.n	8002bea <OLED_SmartUpdate+0xee>
        }
    }
    else
    {
        // 如果未启用差分更新，使用脏页标记
        for (uint8_t i = 0; i < OLED_PAGES; i++)
 8002bb0:	2300      	movs	r3, #0
 8002bb2:	71fb      	strb	r3, [r7, #7]
 8002bb4:	e016      	b.n	8002be4 <OLED_SmartUpdate+0xe8>
        {
            if (oled_dirty_pages[i])
 8002bb6:	79fb      	ldrb	r3, [r7, #7]
 8002bb8:	4a1b      	ldr	r2, [pc, #108]	@ (8002c28 <OLED_SmartUpdate+0x12c>)
 8002bba:	5cd3      	ldrb	r3, [r2, r3]
 8002bbc:	b2db      	uxtb	r3, r3
 8002bbe:	2b00      	cmp	r3, #0
 8002bc0:	d00d      	beq.n	8002bde <OLED_SmartUpdate+0xe2>
            {
                has_dirty = 1;
 8002bc2:	2301      	movs	r3, #1
 8002bc4:	73fb      	strb	r3, [r7, #15]
                if (i < first_dirty)
 8002bc6:	79fa      	ldrb	r2, [r7, #7]
 8002bc8:	7bbb      	ldrb	r3, [r7, #14]
 8002bca:	429a      	cmp	r2, r3
 8002bcc:	d201      	bcs.n	8002bd2 <OLED_SmartUpdate+0xd6>
                    first_dirty = i;
 8002bce:	79fb      	ldrb	r3, [r7, #7]
 8002bd0:	73bb      	strb	r3, [r7, #14]
                if (i > last_dirty)
 8002bd2:	79fa      	ldrb	r2, [r7, #7]
 8002bd4:	7b7b      	ldrb	r3, [r7, #13]
 8002bd6:	429a      	cmp	r2, r3
 8002bd8:	d901      	bls.n	8002bde <OLED_SmartUpdate+0xe2>
                    last_dirty = i;
 8002bda:	79fb      	ldrb	r3, [r7, #7]
 8002bdc:	737b      	strb	r3, [r7, #13]
        for (uint8_t i = 0; i < OLED_PAGES; i++)
 8002bde:	79fb      	ldrb	r3, [r7, #7]
 8002be0:	3301      	adds	r3, #1
 8002be2:	71fb      	strb	r3, [r7, #7]
 8002be4:	79fb      	ldrb	r3, [r7, #7]
 8002be6:	2b07      	cmp	r3, #7
 8002be8:	d9e5      	bls.n	8002bb6 <OLED_SmartUpdate+0xba>
            }
        }
    }

    // 如果有脏页，只更新这些页
    if (has_dirty && fast_update_enabled)
 8002bea:	7bfb      	ldrb	r3, [r7, #15]
 8002bec:	2b00      	cmp	r3, #0
 8002bee:	d00a      	beq.n	8002c06 <OLED_SmartUpdate+0x10a>
 8002bf0:	4b0e      	ldr	r3, [pc, #56]	@ (8002c2c <OLED_SmartUpdate+0x130>)
 8002bf2:	781b      	ldrb	r3, [r3, #0]
 8002bf4:	2b00      	cmp	r3, #0
 8002bf6:	d006      	beq.n	8002c06 <OLED_SmartUpdate+0x10a>
    {
        OLED_UpdateDisplayPartial(first_dirty, last_dirty);
 8002bf8:	7b7a      	ldrb	r2, [r7, #13]
 8002bfa:	7bbb      	ldrb	r3, [r7, #14]
 8002bfc:	4611      	mov	r1, r2
 8002bfe:	4618      	mov	r0, r3
 8002c00:	f7fe f904 	bl	8000e0c <OLED_UpdateDisplayPartial>
 8002c04:	e006      	b.n	8002c14 <OLED_SmartUpdate+0x118>
    }
    else if (has_dirty)
 8002c06:	7bfb      	ldrb	r3, [r7, #15]
 8002c08:	2b00      	cmp	r3, #0
 8002c0a:	d003      	beq.n	8002c14 <OLED_SmartUpdate+0x118>
    {
        OLED_UpdateDisplayVSync();
 8002c0c:	f7fe f8a6 	bl	8000d5c <OLED_UpdateDisplayVSync>
 8002c10:	e000      	b.n	8002c14 <OLED_SmartUpdate+0x118>
        return;
 8002c12:	bf00      	nop
    }
}
 8002c14:	3710      	adds	r7, #16
 8002c16:	46bd      	mov	sp, r7
 8002c18:	bd80      	pop	{r7, pc}
 8002c1a:	bf00      	nop
 8002c1c:	20000d94 	.word	0x20000d94
 8002c20:	20000190 	.word	0x20000190
 8002c24:	20000994 	.word	0x20000994
 8002c28:	20000188 	.word	0x20000188
 8002c2c:	20000006 	.word	0x20000006

08002c30 <OLED_OptimizedDisplayFPS>:


// 显示FPS
void OLED_OptimizedDisplayFPS(int16_t x, int16_t y)
{
 8002c30:	b580      	push	{r7, lr}
 8002c32:	b084      	sub	sp, #16
 8002c34:	af00      	add	r7, sp, #0
 8002c36:	4603      	mov	r3, r0
 8002c38:	460a      	mov	r2, r1
 8002c3a:	80fb      	strh	r3, [r7, #6]
 8002c3c:	4613      	mov	r3, r2
 8002c3e:	80bb      	strh	r3, [r7, #4]
    static uint32_t last_time = 0;
    static uint32_t frames = 0;
    static uint32_t fps = 0;
    static char fps_str[16] = "FPS:0";

    frames++;
 8002c40:	4b15      	ldr	r3, [pc, #84]	@ (8002c98 <OLED_OptimizedDisplayFPS+0x68>)
 8002c42:	681b      	ldr	r3, [r3, #0]
 8002c44:	3301      	adds	r3, #1
 8002c46:	4a14      	ldr	r2, [pc, #80]	@ (8002c98 <OLED_OptimizedDisplayFPS+0x68>)
 8002c48:	6013      	str	r3, [r2, #0]

    // 每秒更新一次FPS
    uint32_t current_time = HAL_GetTick();
 8002c4a:	f001 fbf9 	bl	8004440 <HAL_GetTick>
 8002c4e:	60f8      	str	r0, [r7, #12]
    if (current_time - last_time >= 1000)
 8002c50:	4b12      	ldr	r3, [pc, #72]	@ (8002c9c <OLED_OptimizedDisplayFPS+0x6c>)
 8002c52:	681b      	ldr	r3, [r3, #0]
 8002c54:	68fa      	ldr	r2, [r7, #12]
 8002c56:	1ad3      	subs	r3, r2, r3
 8002c58:	f5b3 7f7a 	cmp.w	r3, #1000	@ 0x3e8
 8002c5c:	d310      	bcc.n	8002c80 <OLED_OptimizedDisplayFPS+0x50>
    {
        fps = frames;
 8002c5e:	4b0e      	ldr	r3, [pc, #56]	@ (8002c98 <OLED_OptimizedDisplayFPS+0x68>)
 8002c60:	681b      	ldr	r3, [r3, #0]
 8002c62:	4a0f      	ldr	r2, [pc, #60]	@ (8002ca0 <OLED_OptimizedDisplayFPS+0x70>)
 8002c64:	6013      	str	r3, [r2, #0]
        sprintf(fps_str, "FPS:%d", fps);
 8002c66:	4b0e      	ldr	r3, [pc, #56]	@ (8002ca0 <OLED_OptimizedDisplayFPS+0x70>)
 8002c68:	681b      	ldr	r3, [r3, #0]
 8002c6a:	461a      	mov	r2, r3
 8002c6c:	490d      	ldr	r1, [pc, #52]	@ (8002ca4 <OLED_OptimizedDisplayFPS+0x74>)
 8002c6e:	480e      	ldr	r0, [pc, #56]	@ (8002ca8 <OLED_OptimizedDisplayFPS+0x78>)
 8002c70:	f004 f832 	bl	8006cd8 <siprintf>
        frames = 0;
 8002c74:	4b08      	ldr	r3, [pc, #32]	@ (8002c98 <OLED_OptimizedDisplayFPS+0x68>)
 8002c76:	2200      	movs	r2, #0
 8002c78:	601a      	str	r2, [r3, #0]
        last_time = current_time;
 8002c7a:	4a08      	ldr	r2, [pc, #32]	@ (8002c9c <OLED_OptimizedDisplayFPS+0x6c>)
 8002c7c:	68fb      	ldr	r3, [r7, #12]
 8002c7e:	6013      	str	r3, [r2, #0]
    }

    OLED_DisplayString(x, y, fps_str);
 8002c80:	f9b7 1004 	ldrsh.w	r1, [r7, #4]
 8002c84:	f9b7 3006 	ldrsh.w	r3, [r7, #6]
 8002c88:	4a07      	ldr	r2, [pc, #28]	@ (8002ca8 <OLED_OptimizedDisplayFPS+0x78>)
 8002c8a:	4618      	mov	r0, r3
 8002c8c:	f7fe fc56 	bl	800153c <OLED_DisplayString>
 8002c90:	bf00      	nop
 8002c92:	3710      	adds	r7, #16
 8002c94:	46bd      	mov	sp, r7
 8002c96:	bd80      	pop	{r7, pc}
 8002c98:	20000d98 	.word	0x20000d98
 8002c9c:	20000d9c 	.word	0x20000d9c
 8002ca0:	20000da0 	.word	0x20000da0
 8002ca4:	08008cd8 	.word	0x08008cd8
 8002ca8:	20000008 	.word	0x20000008

08002cac <EaseLinear>:
#include "stdint.h" // 添加 stdint.h 以支持标准整数类型
#include "oled_ui.h"
#pragma region TWEENS // 动画缓动函数全部在这里定义

static float EaseLinear(float t)
{
 8002cac:	b480      	push	{r7}
 8002cae:	b083      	sub	sp, #12
 8002cb0:	af00      	add	r7, sp, #0
 8002cb2:	6078      	str	r0, [r7, #4]
    return t;
 8002cb4:	687b      	ldr	r3, [r7, #4]
}
 8002cb6:	4618      	mov	r0, r3
 8002cb8:	370c      	adds	r7, #12
 8002cba:	46bd      	mov	sp, r7
 8002cbc:	bc80      	pop	{r7}
 8002cbe:	4770      	bx	lr

08002cc0 <EaseInQuad>:

static float EaseInQuad(float t)
{
 8002cc0:	b580      	push	{r7, lr}
 8002cc2:	b082      	sub	sp, #8
 8002cc4:	af00      	add	r7, sp, #0
 8002cc6:	6078      	str	r0, [r7, #4]
    return t * t;
 8002cc8:	6879      	ldr	r1, [r7, #4]
 8002cca:	6878      	ldr	r0, [r7, #4]
 8002ccc:	f7fd fb5e 	bl	800038c <__aeabi_fmul>
 8002cd0:	4603      	mov	r3, r0
}
 8002cd2:	4618      	mov	r0, r3
 8002cd4:	3708      	adds	r7, #8
 8002cd6:	46bd      	mov	sp, r7
 8002cd8:	bd80      	pop	{r7, pc}

08002cda <EaseOutQuad>:

static float EaseOutQuad(float t)
{
 8002cda:	b580      	push	{r7, lr}
 8002cdc:	b082      	sub	sp, #8
 8002cde:	af00      	add	r7, sp, #0
 8002ce0:	6078      	str	r0, [r7, #4]
    return t * (2 - t);
 8002ce2:	6879      	ldr	r1, [r7, #4]
 8002ce4:	f04f 4080 	mov.w	r0, #1073741824	@ 0x40000000
 8002ce8:	f7fd fa46 	bl	8000178 <__aeabi_fsub>
 8002cec:	4603      	mov	r3, r0
 8002cee:	6879      	ldr	r1, [r7, #4]
 8002cf0:	4618      	mov	r0, r3
 8002cf2:	f7fd fb4b 	bl	800038c <__aeabi_fmul>
 8002cf6:	4603      	mov	r3, r0
}
 8002cf8:	4618      	mov	r0, r3
 8002cfa:	3708      	adds	r7, #8
 8002cfc:	46bd      	mov	sp, r7
 8002cfe:	bd80      	pop	{r7, pc}

08002d00 <EaseInOutQuad>:

static float EaseInOutQuad(float t)
{
 8002d00:	b580      	push	{r7, lr}
 8002d02:	b082      	sub	sp, #8
 8002d04:	af00      	add	r7, sp, #0
 8002d06:	6078      	str	r0, [r7, #4]
    return t < 0.5f ? 2 * t * t : -1 + (4 - 2 * t) * t;
 8002d08:	f04f 517c 	mov.w	r1, #1056964608	@ 0x3f000000
 8002d0c:	6878      	ldr	r0, [r7, #4]
 8002d0e:	f7fd fcdb 	bl	80006c8 <__aeabi_fcmplt>
 8002d12:	4603      	mov	r3, r0
 8002d14:	2b00      	cmp	r3, #0
 8002d16:	d00b      	beq.n	8002d30 <EaseInOutQuad+0x30>
 8002d18:	687b      	ldr	r3, [r7, #4]
 8002d1a:	4619      	mov	r1, r3
 8002d1c:	4618      	mov	r0, r3
 8002d1e:	f7fd fa2d 	bl	800017c <__addsf3>
 8002d22:	4603      	mov	r3, r0
 8002d24:	6879      	ldr	r1, [r7, #4]
 8002d26:	4618      	mov	r0, r3
 8002d28:	f7fd fb30 	bl	800038c <__aeabi_fmul>
 8002d2c:	4603      	mov	r3, r0
 8002d2e:	e016      	b.n	8002d5e <EaseInOutQuad+0x5e>
 8002d30:	687b      	ldr	r3, [r7, #4]
 8002d32:	4619      	mov	r1, r3
 8002d34:	4618      	mov	r0, r3
 8002d36:	f7fd fa21 	bl	800017c <__addsf3>
 8002d3a:	4603      	mov	r3, r0
 8002d3c:	4619      	mov	r1, r3
 8002d3e:	f04f 4081 	mov.w	r0, #1082130432	@ 0x40800000
 8002d42:	f7fd fa19 	bl	8000178 <__aeabi_fsub>
 8002d46:	4603      	mov	r3, r0
 8002d48:	6879      	ldr	r1, [r7, #4]
 8002d4a:	4618      	mov	r0, r3
 8002d4c:	f7fd fb1e 	bl	800038c <__aeabi_fmul>
 8002d50:	4603      	mov	r3, r0
 8002d52:	f04f 517e 	mov.w	r1, #1065353216	@ 0x3f800000
 8002d56:	4618      	mov	r0, r3
 8002d58:	f7fd fa0e 	bl	8000178 <__aeabi_fsub>
 8002d5c:	4603      	mov	r3, r0
}
 8002d5e:	4618      	mov	r0, r3
 8002d60:	3708      	adds	r7, #8
 8002d62:	46bd      	mov	sp, r7
 8002d64:	bd80      	pop	{r7, pc}

08002d66 <EaseInCubic>:

static float EaseInCubic(float t)
{
 8002d66:	b580      	push	{r7, lr}
 8002d68:	b082      	sub	sp, #8
 8002d6a:	af00      	add	r7, sp, #0
 8002d6c:	6078      	str	r0, [r7, #4]
    return t * t * t;
 8002d6e:	6879      	ldr	r1, [r7, #4]
 8002d70:	6878      	ldr	r0, [r7, #4]
 8002d72:	f7fd fb0b 	bl	800038c <__aeabi_fmul>
 8002d76:	4603      	mov	r3, r0
 8002d78:	6879      	ldr	r1, [r7, #4]
 8002d7a:	4618      	mov	r0, r3
 8002d7c:	f7fd fb06 	bl	800038c <__aeabi_fmul>
 8002d80:	4603      	mov	r3, r0
}
 8002d82:	4618      	mov	r0, r3
 8002d84:	3708      	adds	r7, #8
 8002d86:	46bd      	mov	sp, r7
 8002d88:	bd80      	pop	{r7, pc}

08002d8a <EaseOutCubic>:

static float EaseOutCubic(float t)
{
 8002d8a:	b580      	push	{r7, lr}
 8002d8c:	b084      	sub	sp, #16
 8002d8e:	af00      	add	r7, sp, #0
 8002d90:	6078      	str	r0, [r7, #4]
    float t1 = t - 1;
 8002d92:	f04f 517e 	mov.w	r1, #1065353216	@ 0x3f800000
 8002d96:	6878      	ldr	r0, [r7, #4]
 8002d98:	f7fd f9ee 	bl	8000178 <__aeabi_fsub>
 8002d9c:	4603      	mov	r3, r0
 8002d9e:	60fb      	str	r3, [r7, #12]
    return t1 * t1 * t1 + 1;
 8002da0:	68f9      	ldr	r1, [r7, #12]
 8002da2:	68f8      	ldr	r0, [r7, #12]
 8002da4:	f7fd faf2 	bl	800038c <__aeabi_fmul>
 8002da8:	4603      	mov	r3, r0
 8002daa:	68f9      	ldr	r1, [r7, #12]
 8002dac:	4618      	mov	r0, r3
 8002dae:	f7fd faed 	bl	800038c <__aeabi_fmul>
 8002db2:	4603      	mov	r3, r0
 8002db4:	f04f 517e 	mov.w	r1, #1065353216	@ 0x3f800000
 8002db8:	4618      	mov	r0, r3
 8002dba:	f7fd f9df 	bl	800017c <__addsf3>
 8002dbe:	4603      	mov	r3, r0
}
 8002dc0:	4618      	mov	r0, r3
 8002dc2:	3710      	adds	r7, #16
 8002dc4:	46bd      	mov	sp, r7
 8002dc6:	bd80      	pop	{r7, pc}

08002dc8 <EaseInOutCubic>:

static float EaseInOutCubic(float t)
{
 8002dc8:	b590      	push	{r4, r7, lr}
 8002dca:	b083      	sub	sp, #12
 8002dcc:	af00      	add	r7, sp, #0
 8002dce:	6078      	str	r0, [r7, #4]
    return t < 0.5f ? 4 * t * t * t : (t - 1) * (2 * t - 2) * (2 * t - 2) + 1;
 8002dd0:	f04f 517c 	mov.w	r1, #1056964608	@ 0x3f000000
 8002dd4:	6878      	ldr	r0, [r7, #4]
 8002dd6:	f7fd fc77 	bl	80006c8 <__aeabi_fcmplt>
 8002dda:	4603      	mov	r3, r0
 8002ddc:	2b00      	cmp	r3, #0
 8002dde:	d010      	beq.n	8002e02 <EaseInOutCubic+0x3a>
 8002de0:	f04f 4181 	mov.w	r1, #1082130432	@ 0x40800000
 8002de4:	6878      	ldr	r0, [r7, #4]
 8002de6:	f7fd fad1 	bl	800038c <__aeabi_fmul>
 8002dea:	4603      	mov	r3, r0
 8002dec:	6879      	ldr	r1, [r7, #4]
 8002dee:	4618      	mov	r0, r3
 8002df0:	f7fd facc 	bl	800038c <__aeabi_fmul>
 8002df4:	4603      	mov	r3, r0
 8002df6:	6879      	ldr	r1, [r7, #4]
 8002df8:	4618      	mov	r0, r3
 8002dfa:	f7fd fac7 	bl	800038c <__aeabi_fmul>
 8002dfe:	4603      	mov	r3, r0
 8002e00:	e02f      	b.n	8002e62 <EaseInOutCubic+0x9a>
 8002e02:	f04f 517e 	mov.w	r1, #1065353216	@ 0x3f800000
 8002e06:	6878      	ldr	r0, [r7, #4]
 8002e08:	f7fd f9b6 	bl	8000178 <__aeabi_fsub>
 8002e0c:	4603      	mov	r3, r0
 8002e0e:	461c      	mov	r4, r3
 8002e10:	687b      	ldr	r3, [r7, #4]
 8002e12:	4619      	mov	r1, r3
 8002e14:	4618      	mov	r0, r3
 8002e16:	f7fd f9b1 	bl	800017c <__addsf3>
 8002e1a:	4603      	mov	r3, r0
 8002e1c:	f04f 4180 	mov.w	r1, #1073741824	@ 0x40000000
 8002e20:	4618      	mov	r0, r3
 8002e22:	f7fd f9a9 	bl	8000178 <__aeabi_fsub>
 8002e26:	4603      	mov	r3, r0
 8002e28:	4619      	mov	r1, r3
 8002e2a:	4620      	mov	r0, r4
 8002e2c:	f7fd faae 	bl	800038c <__aeabi_fmul>
 8002e30:	4603      	mov	r3, r0
 8002e32:	461c      	mov	r4, r3
 8002e34:	687b      	ldr	r3, [r7, #4]
 8002e36:	4619      	mov	r1, r3
 8002e38:	4618      	mov	r0, r3
 8002e3a:	f7fd f99f 	bl	800017c <__addsf3>
 8002e3e:	4603      	mov	r3, r0
 8002e40:	f04f 4180 	mov.w	r1, #1073741824	@ 0x40000000
 8002e44:	4618      	mov	r0, r3
 8002e46:	f7fd f997 	bl	8000178 <__aeabi_fsub>
 8002e4a:	4603      	mov	r3, r0
 8002e4c:	4619      	mov	r1, r3
 8002e4e:	4620      	mov	r0, r4
 8002e50:	f7fd fa9c 	bl	800038c <__aeabi_fmul>
 8002e54:	4603      	mov	r3, r0
 8002e56:	f04f 517e 	mov.w	r1, #1065353216	@ 0x3f800000
 8002e5a:	4618      	mov	r0, r3
 8002e5c:	f7fd f98e 	bl	800017c <__addsf3>
 8002e60:	4603      	mov	r3, r0
}
 8002e62:	4618      	mov	r0, r3
 8002e64:	370c      	adds	r7, #12
 8002e66:	46bd      	mov	sp, r7
 8002e68:	bd90      	pop	{r4, r7, pc}
	...

08002e6c <EaseInExpo>:

// 在现有EaseType_t枚举中添加这些新类型
// 指数缓动
static float EaseInExpo(float t)
{
 8002e6c:	b580      	push	{r7, lr}
 8002e6e:	b082      	sub	sp, #8
 8002e70:	af00      	add	r7, sp, #0
 8002e72:	6078      	str	r0, [r7, #4]
    return (t == 0) ? 0 : powf(2, 10 * (t - 1));
 8002e74:	f04f 0100 	mov.w	r1, #0
 8002e78:	6878      	ldr	r0, [r7, #4]
 8002e7a:	f7fd fc1b 	bl	80006b4 <__aeabi_fcmpeq>
 8002e7e:	4603      	mov	r3, r0
 8002e80:	2b00      	cmp	r3, #0
 8002e82:	d111      	bne.n	8002ea8 <EaseInExpo+0x3c>
 8002e84:	f04f 517e 	mov.w	r1, #1065353216	@ 0x3f800000
 8002e88:	6878      	ldr	r0, [r7, #4]
 8002e8a:	f7fd f975 	bl	8000178 <__aeabi_fsub>
 8002e8e:	4603      	mov	r3, r0
 8002e90:	4908      	ldr	r1, [pc, #32]	@ (8002eb4 <EaseInExpo+0x48>)
 8002e92:	4618      	mov	r0, r3
 8002e94:	f7fd fa7a 	bl	800038c <__aeabi_fmul>
 8002e98:	4603      	mov	r3, r0
 8002e9a:	4619      	mov	r1, r3
 8002e9c:	f04f 4080 	mov.w	r0, #1073741824	@ 0x40000000
 8002ea0:	f004 fbde 	bl	8007660 <powf>
 8002ea4:	4603      	mov	r3, r0
 8002ea6:	e001      	b.n	8002eac <EaseInExpo+0x40>
 8002ea8:	f04f 0300 	mov.w	r3, #0
}
 8002eac:	4618      	mov	r0, r3
 8002eae:	3708      	adds	r7, #8
 8002eb0:	46bd      	mov	sp, r7
 8002eb2:	bd80      	pop	{r7, pc}
 8002eb4:	41200000 	.word	0x41200000

08002eb8 <EaseOutExpo>:

static float EaseOutExpo(float t)
{
 8002eb8:	b580      	push	{r7, lr}
 8002eba:	b082      	sub	sp, #8
 8002ebc:	af00      	add	r7, sp, #0
 8002ebe:	6078      	str	r0, [r7, #4]
    return (t == 1) ? 1 : (1 - powf(2, -10 * t));
 8002ec0:	f04f 517e 	mov.w	r1, #1065353216	@ 0x3f800000
 8002ec4:	6878      	ldr	r0, [r7, #4]
 8002ec6:	f7fd fbf5 	bl	80006b4 <__aeabi_fcmpeq>
 8002eca:	4603      	mov	r3, r0
 8002ecc:	2b00      	cmp	r3, #0
 8002ece:	d111      	bne.n	8002ef4 <EaseOutExpo+0x3c>
 8002ed0:	490b      	ldr	r1, [pc, #44]	@ (8002f00 <EaseOutExpo+0x48>)
 8002ed2:	6878      	ldr	r0, [r7, #4]
 8002ed4:	f7fd fa5a 	bl	800038c <__aeabi_fmul>
 8002ed8:	4603      	mov	r3, r0
 8002eda:	4619      	mov	r1, r3
 8002edc:	f04f 4080 	mov.w	r0, #1073741824	@ 0x40000000
 8002ee0:	f004 fbbe 	bl	8007660 <powf>
 8002ee4:	4603      	mov	r3, r0
 8002ee6:	4619      	mov	r1, r3
 8002ee8:	f04f 507e 	mov.w	r0, #1065353216	@ 0x3f800000
 8002eec:	f7fd f944 	bl	8000178 <__aeabi_fsub>
 8002ef0:	4603      	mov	r3, r0
 8002ef2:	e001      	b.n	8002ef8 <EaseOutExpo+0x40>
 8002ef4:	f04f 537e 	mov.w	r3, #1065353216	@ 0x3f800000
}
 8002ef8:	4618      	mov	r0, r3
 8002efa:	3708      	adds	r7, #8
 8002efc:	46bd      	mov	sp, r7
 8002efe:	bd80      	pop	{r7, pc}
 8002f00:	c1200000 	.word	0xc1200000

08002f04 <EaseInOutExpo>:

static float EaseInOutExpo(float t)
{
 8002f04:	b580      	push	{r7, lr}
 8002f06:	b082      	sub	sp, #8
 8002f08:	af00      	add	r7, sp, #0
 8002f0a:	6078      	str	r0, [r7, #4]
    if (t == 0)
 8002f0c:	f04f 0100 	mov.w	r1, #0
 8002f10:	6878      	ldr	r0, [r7, #4]
 8002f12:	f7fd fbcf 	bl	80006b4 <__aeabi_fcmpeq>
 8002f16:	4603      	mov	r3, r0
 8002f18:	2b00      	cmp	r3, #0
 8002f1a:	d002      	beq.n	8002f22 <EaseInOutExpo+0x1e>
        return 0;
 8002f1c:	f04f 0300 	mov.w	r3, #0
 8002f20:	e045      	b.n	8002fae <EaseInOutExpo+0xaa>
    if (t == 1)
 8002f22:	f04f 517e 	mov.w	r1, #1065353216	@ 0x3f800000
 8002f26:	6878      	ldr	r0, [r7, #4]
 8002f28:	f7fd fbc4 	bl	80006b4 <__aeabi_fcmpeq>
 8002f2c:	4603      	mov	r3, r0
 8002f2e:	2b00      	cmp	r3, #0
 8002f30:	d002      	beq.n	8002f38 <EaseInOutExpo+0x34>
        return 1;
 8002f32:	f04f 537e 	mov.w	r3, #1065353216	@ 0x3f800000
 8002f36:	e03a      	b.n	8002fae <EaseInOutExpo+0xaa>
    if (t < 0.5f)
 8002f38:	f04f 517c 	mov.w	r1, #1056964608	@ 0x3f000000
 8002f3c:	6878      	ldr	r0, [r7, #4]
 8002f3e:	f7fd fbc3 	bl	80006c8 <__aeabi_fcmplt>
 8002f42:	4603      	mov	r3, r0
 8002f44:	2b00      	cmp	r3, #0
 8002f46:	d016      	beq.n	8002f76 <EaseInOutExpo+0x72>
        return powf(2, 20 * t - 10) / 2;
 8002f48:	491b      	ldr	r1, [pc, #108]	@ (8002fb8 <EaseInOutExpo+0xb4>)
 8002f4a:	6878      	ldr	r0, [r7, #4]
 8002f4c:	f7fd fa1e 	bl	800038c <__aeabi_fmul>
 8002f50:	4603      	mov	r3, r0
 8002f52:	491a      	ldr	r1, [pc, #104]	@ (8002fbc <EaseInOutExpo+0xb8>)
 8002f54:	4618      	mov	r0, r3
 8002f56:	f7fd f90f 	bl	8000178 <__aeabi_fsub>
 8002f5a:	4603      	mov	r3, r0
 8002f5c:	4619      	mov	r1, r3
 8002f5e:	f04f 4080 	mov.w	r0, #1073741824	@ 0x40000000
 8002f62:	f004 fb7d 	bl	8007660 <powf>
 8002f66:	4603      	mov	r3, r0
 8002f68:	f04f 4180 	mov.w	r1, #1073741824	@ 0x40000000
 8002f6c:	4618      	mov	r0, r3
 8002f6e:	f7fd fac1 	bl	80004f4 <__aeabi_fdiv>
 8002f72:	4603      	mov	r3, r0
 8002f74:	e01b      	b.n	8002fae <EaseInOutExpo+0xaa>
    return (2 - powf(2, -20 * t + 10)) / 2;
 8002f76:	4912      	ldr	r1, [pc, #72]	@ (8002fc0 <EaseInOutExpo+0xbc>)
 8002f78:	6878      	ldr	r0, [r7, #4]
 8002f7a:	f7fd fa07 	bl	800038c <__aeabi_fmul>
 8002f7e:	4603      	mov	r3, r0
 8002f80:	490e      	ldr	r1, [pc, #56]	@ (8002fbc <EaseInOutExpo+0xb8>)
 8002f82:	4618      	mov	r0, r3
 8002f84:	f7fd f8fa 	bl	800017c <__addsf3>
 8002f88:	4603      	mov	r3, r0
 8002f8a:	4619      	mov	r1, r3
 8002f8c:	f04f 4080 	mov.w	r0, #1073741824	@ 0x40000000
 8002f90:	f004 fb66 	bl	8007660 <powf>
 8002f94:	4603      	mov	r3, r0
 8002f96:	4619      	mov	r1, r3
 8002f98:	f04f 4080 	mov.w	r0, #1073741824	@ 0x40000000
 8002f9c:	f7fd f8ec 	bl	8000178 <__aeabi_fsub>
 8002fa0:	4603      	mov	r3, r0
 8002fa2:	f04f 4180 	mov.w	r1, #1073741824	@ 0x40000000
 8002fa6:	4618      	mov	r0, r3
 8002fa8:	f7fd faa4 	bl	80004f4 <__aeabi_fdiv>
 8002fac:	4603      	mov	r3, r0
}
 8002fae:	4618      	mov	r0, r3
 8002fb0:	3708      	adds	r7, #8
 8002fb2:	46bd      	mov	sp, r7
 8002fb4:	bd80      	pop	{r7, pc}
 8002fb6:	bf00      	nop
 8002fb8:	41a00000 	.word	0x41a00000
 8002fbc:	41200000 	.word	0x41200000
 8002fc0:	c1a00000 	.word	0xc1a00000

08002fc4 <EaseInCirc>:

// 圆形曲线缓动
static float EaseInCirc(float t)
{
 8002fc4:	b580      	push	{r7, lr}
 8002fc6:	b082      	sub	sp, #8
 8002fc8:	af00      	add	r7, sp, #0
 8002fca:	6078      	str	r0, [r7, #4]
    return 1 - sqrtf(1 - t * t);
 8002fcc:	6879      	ldr	r1, [r7, #4]
 8002fce:	6878      	ldr	r0, [r7, #4]
 8002fd0:	f7fd f9dc 	bl	800038c <__aeabi_fmul>
 8002fd4:	4603      	mov	r3, r0
 8002fd6:	4619      	mov	r1, r3
 8002fd8:	f04f 507e 	mov.w	r0, #1065353216	@ 0x3f800000
 8002fdc:	f7fd f8cc 	bl	8000178 <__aeabi_fsub>
 8002fe0:	4603      	mov	r3, r0
 8002fe2:	4618      	mov	r0, r3
 8002fe4:	f004 fb89 	bl	80076fa <sqrtf>
 8002fe8:	4603      	mov	r3, r0
 8002fea:	4619      	mov	r1, r3
 8002fec:	f04f 507e 	mov.w	r0, #1065353216	@ 0x3f800000
 8002ff0:	f7fd f8c2 	bl	8000178 <__aeabi_fsub>
 8002ff4:	4603      	mov	r3, r0
}
 8002ff6:	4618      	mov	r0, r3
 8002ff8:	3708      	adds	r7, #8
 8002ffa:	46bd      	mov	sp, r7
 8002ffc:	bd80      	pop	{r7, pc}

08002ffe <EaseOutCirc>:

static float EaseOutCirc(float t)
{
 8002ffe:	b580      	push	{r7, lr}
 8003000:	b082      	sub	sp, #8
 8003002:	af00      	add	r7, sp, #0
 8003004:	6078      	str	r0, [r7, #4]
    return sqrtf(1 - powf(t - 1, 2));
 8003006:	f04f 517e 	mov.w	r1, #1065353216	@ 0x3f800000
 800300a:	6878      	ldr	r0, [r7, #4]
 800300c:	f7fd f8b4 	bl	8000178 <__aeabi_fsub>
 8003010:	4603      	mov	r3, r0
 8003012:	f04f 4180 	mov.w	r1, #1073741824	@ 0x40000000
 8003016:	4618      	mov	r0, r3
 8003018:	f004 fb22 	bl	8007660 <powf>
 800301c:	4603      	mov	r3, r0
 800301e:	4619      	mov	r1, r3
 8003020:	f04f 507e 	mov.w	r0, #1065353216	@ 0x3f800000
 8003024:	f7fd f8a8 	bl	8000178 <__aeabi_fsub>
 8003028:	4603      	mov	r3, r0
 800302a:	4618      	mov	r0, r3
 800302c:	f004 fb65 	bl	80076fa <sqrtf>
 8003030:	4603      	mov	r3, r0
}
 8003032:	4618      	mov	r0, r3
 8003034:	3708      	adds	r7, #8
 8003036:	46bd      	mov	sp, r7
 8003038:	bd80      	pop	{r7, pc}

0800303a <EaseInOutCirc>:

static float EaseInOutCirc(float t)
{
 800303a:	b580      	push	{r7, lr}
 800303c:	b082      	sub	sp, #8
 800303e:	af00      	add	r7, sp, #0
 8003040:	6078      	str	r0, [r7, #4]
    if (t < 0.5f)
 8003042:	f04f 517c 	mov.w	r1, #1056964608	@ 0x3f000000
 8003046:	6878      	ldr	r0, [r7, #4]
 8003048:	f7fd fb3e 	bl	80006c8 <__aeabi_fcmplt>
 800304c:	4603      	mov	r3, r0
 800304e:	2b00      	cmp	r3, #0
 8003050:	d022      	beq.n	8003098 <EaseInOutCirc+0x5e>
        return (1 - sqrtf(1 - powf(2 * t, 2))) / 2;
 8003052:	687b      	ldr	r3, [r7, #4]
 8003054:	4619      	mov	r1, r3
 8003056:	4618      	mov	r0, r3
 8003058:	f7fd f890 	bl	800017c <__addsf3>
 800305c:	4603      	mov	r3, r0
 800305e:	f04f 4180 	mov.w	r1, #1073741824	@ 0x40000000
 8003062:	4618      	mov	r0, r3
 8003064:	f004 fafc 	bl	8007660 <powf>
 8003068:	4603      	mov	r3, r0
 800306a:	4619      	mov	r1, r3
 800306c:	f04f 507e 	mov.w	r0, #1065353216	@ 0x3f800000
 8003070:	f7fd f882 	bl	8000178 <__aeabi_fsub>
 8003074:	4603      	mov	r3, r0
 8003076:	4618      	mov	r0, r3
 8003078:	f004 fb3f 	bl	80076fa <sqrtf>
 800307c:	4603      	mov	r3, r0
 800307e:	4619      	mov	r1, r3
 8003080:	f04f 507e 	mov.w	r0, #1065353216	@ 0x3f800000
 8003084:	f7fd f878 	bl	8000178 <__aeabi_fsub>
 8003088:	4603      	mov	r3, r0
 800308a:	f04f 4180 	mov.w	r1, #1073741824	@ 0x40000000
 800308e:	4618      	mov	r0, r3
 8003090:	f7fd fa30 	bl	80004f4 <__aeabi_fdiv>
 8003094:	4603      	mov	r3, r0
 8003096:	e027      	b.n	80030e8 <EaseInOutCirc+0xae>
    return (sqrtf(1 - powf(-2 * t + 2, 2)) + 1) / 2;
 8003098:	f04f 4140 	mov.w	r1, #3221225472	@ 0xc0000000
 800309c:	6878      	ldr	r0, [r7, #4]
 800309e:	f7fd f975 	bl	800038c <__aeabi_fmul>
 80030a2:	4603      	mov	r3, r0
 80030a4:	f04f 4180 	mov.w	r1, #1073741824	@ 0x40000000
 80030a8:	4618      	mov	r0, r3
 80030aa:	f7fd f867 	bl	800017c <__addsf3>
 80030ae:	4603      	mov	r3, r0
 80030b0:	f04f 4180 	mov.w	r1, #1073741824	@ 0x40000000
 80030b4:	4618      	mov	r0, r3
 80030b6:	f004 fad3 	bl	8007660 <powf>
 80030ba:	4603      	mov	r3, r0
 80030bc:	4619      	mov	r1, r3
 80030be:	f04f 507e 	mov.w	r0, #1065353216	@ 0x3f800000
 80030c2:	f7fd f859 	bl	8000178 <__aeabi_fsub>
 80030c6:	4603      	mov	r3, r0
 80030c8:	4618      	mov	r0, r3
 80030ca:	f004 fb16 	bl	80076fa <sqrtf>
 80030ce:	4603      	mov	r3, r0
 80030d0:	f04f 517e 	mov.w	r1, #1065353216	@ 0x3f800000
 80030d4:	4618      	mov	r0, r3
 80030d6:	f7fd f851 	bl	800017c <__addsf3>
 80030da:	4603      	mov	r3, r0
 80030dc:	f04f 4180 	mov.w	r1, #1073741824	@ 0x40000000
 80030e0:	4618      	mov	r0, r3
 80030e2:	f7fd fa07 	bl	80004f4 <__aeabi_fdiv>
 80030e6:	4603      	mov	r3, r0
}
 80030e8:	4618      	mov	r0, r3
 80030ea:	3708      	adds	r7, #8
 80030ec:	46bd      	mov	sp, r7
 80030ee:	bd80      	pop	{r7, pc}

080030f0 <EaseInElastic>:

// 弹性缓动
static float EaseInElastic(float t)
{
 80030f0:	b590      	push	{r4, r7, lr}
 80030f2:	b085      	sub	sp, #20
 80030f4:	af00      	add	r7, sp, #0
 80030f6:	6078      	str	r0, [r7, #4]
    const float c4 = (2 * 3.14159f) / 3;
 80030f8:	4b22      	ldr	r3, [pc, #136]	@ (8003184 <EaseInElastic+0x94>)
 80030fa:	60fb      	str	r3, [r7, #12]

    if (t == 0)
 80030fc:	f04f 0100 	mov.w	r1, #0
 8003100:	6878      	ldr	r0, [r7, #4]
 8003102:	f7fd fad7 	bl	80006b4 <__aeabi_fcmpeq>
 8003106:	4603      	mov	r3, r0
 8003108:	2b00      	cmp	r3, #0
 800310a:	d002      	beq.n	8003112 <EaseInElastic+0x22>
        return 0;
 800310c:	f04f 0300 	mov.w	r3, #0
 8003110:	e034      	b.n	800317c <EaseInElastic+0x8c>
    if (t == 1)
 8003112:	f04f 517e 	mov.w	r1, #1065353216	@ 0x3f800000
 8003116:	6878      	ldr	r0, [r7, #4]
 8003118:	f7fd facc 	bl	80006b4 <__aeabi_fcmpeq>
 800311c:	4603      	mov	r3, r0
 800311e:	2b00      	cmp	r3, #0
 8003120:	d002      	beq.n	8003128 <EaseInElastic+0x38>
        return 1;
 8003122:	f04f 537e 	mov.w	r3, #1065353216	@ 0x3f800000
 8003126:	e029      	b.n	800317c <EaseInElastic+0x8c>
    return -powf(2, 10 * t - 10) * sinf((t * 10 - 10.75f) * c4);
 8003128:	4917      	ldr	r1, [pc, #92]	@ (8003188 <EaseInElastic+0x98>)
 800312a:	6878      	ldr	r0, [r7, #4]
 800312c:	f7fd f92e 	bl	800038c <__aeabi_fmul>
 8003130:	4603      	mov	r3, r0
 8003132:	4915      	ldr	r1, [pc, #84]	@ (8003188 <EaseInElastic+0x98>)
 8003134:	4618      	mov	r0, r3
 8003136:	f7fd f81f 	bl	8000178 <__aeabi_fsub>
 800313a:	4603      	mov	r3, r0
 800313c:	4619      	mov	r1, r3
 800313e:	f04f 4080 	mov.w	r0, #1073741824	@ 0x40000000
 8003142:	f004 fa8d 	bl	8007660 <powf>
 8003146:	4603      	mov	r3, r0
 8003148:	f083 4400 	eor.w	r4, r3, #2147483648	@ 0x80000000
 800314c:	490e      	ldr	r1, [pc, #56]	@ (8003188 <EaseInElastic+0x98>)
 800314e:	6878      	ldr	r0, [r7, #4]
 8003150:	f7fd f91c 	bl	800038c <__aeabi_fmul>
 8003154:	4603      	mov	r3, r0
 8003156:	490d      	ldr	r1, [pc, #52]	@ (800318c <EaseInElastic+0x9c>)
 8003158:	4618      	mov	r0, r3
 800315a:	f7fd f80d 	bl	8000178 <__aeabi_fsub>
 800315e:	4603      	mov	r3, r0
 8003160:	68f9      	ldr	r1, [r7, #12]
 8003162:	4618      	mov	r0, r3
 8003164:	f7fd f912 	bl	800038c <__aeabi_fmul>
 8003168:	4603      	mov	r3, r0
 800316a:	4618      	mov	r0, r3
 800316c:	f004 fb18 	bl	80077a0 <sinf>
 8003170:	4603      	mov	r3, r0
 8003172:	4619      	mov	r1, r3
 8003174:	4620      	mov	r0, r4
 8003176:	f7fd f909 	bl	800038c <__aeabi_fmul>
 800317a:	4603      	mov	r3, r0
}
 800317c:	4618      	mov	r0, r3
 800317e:	3714      	adds	r7, #20
 8003180:	46bd      	mov	sp, r7
 8003182:	bd90      	pop	{r4, r7, pc}
 8003184:	40060a8b 	.word	0x40060a8b
 8003188:	41200000 	.word	0x41200000
 800318c:	412c0000 	.word	0x412c0000

08003190 <EaseOutElastic>:

static float EaseOutElastic(float t)
{
 8003190:	b590      	push	{r4, r7, lr}
 8003192:	b085      	sub	sp, #20
 8003194:	af00      	add	r7, sp, #0
 8003196:	6078      	str	r0, [r7, #4]
    const float c4 = (2 * 3.14159f) / 3;
 8003198:	4b22      	ldr	r3, [pc, #136]	@ (8003224 <EaseOutElastic+0x94>)
 800319a:	60fb      	str	r3, [r7, #12]

    if (t == 0)
 800319c:	f04f 0100 	mov.w	r1, #0
 80031a0:	6878      	ldr	r0, [r7, #4]
 80031a2:	f7fd fa87 	bl	80006b4 <__aeabi_fcmpeq>
 80031a6:	4603      	mov	r3, r0
 80031a8:	2b00      	cmp	r3, #0
 80031aa:	d002      	beq.n	80031b2 <EaseOutElastic+0x22>
        return 0;
 80031ac:	f04f 0300 	mov.w	r3, #0
 80031b0:	e034      	b.n	800321c <EaseOutElastic+0x8c>
    if (t == 1)
 80031b2:	f04f 517e 	mov.w	r1, #1065353216	@ 0x3f800000
 80031b6:	6878      	ldr	r0, [r7, #4]
 80031b8:	f7fd fa7c 	bl	80006b4 <__aeabi_fcmpeq>
 80031bc:	4603      	mov	r3, r0
 80031be:	2b00      	cmp	r3, #0
 80031c0:	d002      	beq.n	80031c8 <EaseOutElastic+0x38>
        return 1;
 80031c2:	f04f 537e 	mov.w	r3, #1065353216	@ 0x3f800000
 80031c6:	e029      	b.n	800321c <EaseOutElastic+0x8c>
    return powf(2, -10 * t) * sinf((t * 10 - 0.75f) * c4) + 1;
 80031c8:	4917      	ldr	r1, [pc, #92]	@ (8003228 <EaseOutElastic+0x98>)
 80031ca:	6878      	ldr	r0, [r7, #4]
 80031cc:	f7fd f8de 	bl	800038c <__aeabi_fmul>
 80031d0:	4603      	mov	r3, r0
 80031d2:	4619      	mov	r1, r3
 80031d4:	f04f 4080 	mov.w	r0, #1073741824	@ 0x40000000
 80031d8:	f004 fa42 	bl	8007660 <powf>
 80031dc:	4604      	mov	r4, r0
 80031de:	4913      	ldr	r1, [pc, #76]	@ (800322c <EaseOutElastic+0x9c>)
 80031e0:	6878      	ldr	r0, [r7, #4]
 80031e2:	f7fd f8d3 	bl	800038c <__aeabi_fmul>
 80031e6:	4603      	mov	r3, r0
 80031e8:	f04f 517d 	mov.w	r1, #1061158912	@ 0x3f400000
 80031ec:	4618      	mov	r0, r3
 80031ee:	f7fc ffc3 	bl	8000178 <__aeabi_fsub>
 80031f2:	4603      	mov	r3, r0
 80031f4:	68f9      	ldr	r1, [r7, #12]
 80031f6:	4618      	mov	r0, r3
 80031f8:	f7fd f8c8 	bl	800038c <__aeabi_fmul>
 80031fc:	4603      	mov	r3, r0
 80031fe:	4618      	mov	r0, r3
 8003200:	f004 face 	bl	80077a0 <sinf>
 8003204:	4603      	mov	r3, r0
 8003206:	4619      	mov	r1, r3
 8003208:	4620      	mov	r0, r4
 800320a:	f7fd f8bf 	bl	800038c <__aeabi_fmul>
 800320e:	4603      	mov	r3, r0
 8003210:	f04f 517e 	mov.w	r1, #1065353216	@ 0x3f800000
 8003214:	4618      	mov	r0, r3
 8003216:	f7fc ffb1 	bl	800017c <__addsf3>
 800321a:	4603      	mov	r3, r0
}
 800321c:	4618      	mov	r0, r3
 800321e:	3714      	adds	r7, #20
 8003220:	46bd      	mov	sp, r7
 8003222:	bd90      	pop	{r4, r7, pc}
 8003224:	40060a8b 	.word	0x40060a8b
 8003228:	c1200000 	.word	0xc1200000
 800322c:	41200000 	.word	0x41200000

08003230 <EaseInOutElastic>:

static float EaseInOutElastic(float t)
{
 8003230:	b590      	push	{r4, r7, lr}
 8003232:	b085      	sub	sp, #20
 8003234:	af00      	add	r7, sp, #0
 8003236:	6078      	str	r0, [r7, #4]
    const float c5 = (2 * 3.14159f) / 4.5f;
 8003238:	4b44      	ldr	r3, [pc, #272]	@ (800334c <EaseInOutElastic+0x11c>)
 800323a:	60fb      	str	r3, [r7, #12]

    if (t == 0)
 800323c:	f04f 0100 	mov.w	r1, #0
 8003240:	6878      	ldr	r0, [r7, #4]
 8003242:	f7fd fa37 	bl	80006b4 <__aeabi_fcmpeq>
 8003246:	4603      	mov	r3, r0
 8003248:	2b00      	cmp	r3, #0
 800324a:	d002      	beq.n	8003252 <EaseInOutElastic+0x22>
        return 0;
 800324c:	f04f 0300 	mov.w	r3, #0
 8003250:	e077      	b.n	8003342 <EaseInOutElastic+0x112>
    if (t == 1)
 8003252:	f04f 517e 	mov.w	r1, #1065353216	@ 0x3f800000
 8003256:	6878      	ldr	r0, [r7, #4]
 8003258:	f7fd fa2c 	bl	80006b4 <__aeabi_fcmpeq>
 800325c:	4603      	mov	r3, r0
 800325e:	2b00      	cmp	r3, #0
 8003260:	d002      	beq.n	8003268 <EaseInOutElastic+0x38>
        return 1;
 8003262:	f04f 537e 	mov.w	r3, #1065353216	@ 0x3f800000
 8003266:	e06c      	b.n	8003342 <EaseInOutElastic+0x112>
    if (t < 0.5f)
 8003268:	f04f 517c 	mov.w	r1, #1056964608	@ 0x3f000000
 800326c:	6878      	ldr	r0, [r7, #4]
 800326e:	f7fd fa2b 	bl	80006c8 <__aeabi_fcmplt>
 8003272:	4603      	mov	r3, r0
 8003274:	2b00      	cmp	r3, #0
 8003276:	d030      	beq.n	80032da <EaseInOutElastic+0xaa>
        return -(powf(2, 20 * t - 10) * sinf((20 * t - 11.125f) * c5)) / 2;
 8003278:	4935      	ldr	r1, [pc, #212]	@ (8003350 <EaseInOutElastic+0x120>)
 800327a:	6878      	ldr	r0, [r7, #4]
 800327c:	f7fd f886 	bl	800038c <__aeabi_fmul>
 8003280:	4603      	mov	r3, r0
 8003282:	4934      	ldr	r1, [pc, #208]	@ (8003354 <EaseInOutElastic+0x124>)
 8003284:	4618      	mov	r0, r3
 8003286:	f7fc ff77 	bl	8000178 <__aeabi_fsub>
 800328a:	4603      	mov	r3, r0
 800328c:	4619      	mov	r1, r3
 800328e:	f04f 4080 	mov.w	r0, #1073741824	@ 0x40000000
 8003292:	f004 f9e5 	bl	8007660 <powf>
 8003296:	4604      	mov	r4, r0
 8003298:	492d      	ldr	r1, [pc, #180]	@ (8003350 <EaseInOutElastic+0x120>)
 800329a:	6878      	ldr	r0, [r7, #4]
 800329c:	f7fd f876 	bl	800038c <__aeabi_fmul>
 80032a0:	4603      	mov	r3, r0
 80032a2:	492d      	ldr	r1, [pc, #180]	@ (8003358 <EaseInOutElastic+0x128>)
 80032a4:	4618      	mov	r0, r3
 80032a6:	f7fc ff67 	bl	8000178 <__aeabi_fsub>
 80032aa:	4603      	mov	r3, r0
 80032ac:	68f9      	ldr	r1, [r7, #12]
 80032ae:	4618      	mov	r0, r3
 80032b0:	f7fd f86c 	bl	800038c <__aeabi_fmul>
 80032b4:	4603      	mov	r3, r0
 80032b6:	4618      	mov	r0, r3
 80032b8:	f004 fa72 	bl	80077a0 <sinf>
 80032bc:	4603      	mov	r3, r0
 80032be:	4619      	mov	r1, r3
 80032c0:	4620      	mov	r0, r4
 80032c2:	f7fd f863 	bl	800038c <__aeabi_fmul>
 80032c6:	4603      	mov	r3, r0
 80032c8:	f083 4300 	eor.w	r3, r3, #2147483648	@ 0x80000000
 80032cc:	f04f 4180 	mov.w	r1, #1073741824	@ 0x40000000
 80032d0:	4618      	mov	r0, r3
 80032d2:	f7fd f90f 	bl	80004f4 <__aeabi_fdiv>
 80032d6:	4603      	mov	r3, r0
 80032d8:	e033      	b.n	8003342 <EaseInOutElastic+0x112>
    return (powf(2, -20 * t + 10) * sinf((20 * t - 11.125f) * c5)) / 2 + 1;
 80032da:	4920      	ldr	r1, [pc, #128]	@ (800335c <EaseInOutElastic+0x12c>)
 80032dc:	6878      	ldr	r0, [r7, #4]
 80032de:	f7fd f855 	bl	800038c <__aeabi_fmul>
 80032e2:	4603      	mov	r3, r0
 80032e4:	491b      	ldr	r1, [pc, #108]	@ (8003354 <EaseInOutElastic+0x124>)
 80032e6:	4618      	mov	r0, r3
 80032e8:	f7fc ff48 	bl	800017c <__addsf3>
 80032ec:	4603      	mov	r3, r0
 80032ee:	4619      	mov	r1, r3
 80032f0:	f04f 4080 	mov.w	r0, #1073741824	@ 0x40000000
 80032f4:	f004 f9b4 	bl	8007660 <powf>
 80032f8:	4604      	mov	r4, r0
 80032fa:	4915      	ldr	r1, [pc, #84]	@ (8003350 <EaseInOutElastic+0x120>)
 80032fc:	6878      	ldr	r0, [r7, #4]
 80032fe:	f7fd f845 	bl	800038c <__aeabi_fmul>
 8003302:	4603      	mov	r3, r0
 8003304:	4914      	ldr	r1, [pc, #80]	@ (8003358 <EaseInOutElastic+0x128>)
 8003306:	4618      	mov	r0, r3
 8003308:	f7fc ff36 	bl	8000178 <__aeabi_fsub>
 800330c:	4603      	mov	r3, r0
 800330e:	68f9      	ldr	r1, [r7, #12]
 8003310:	4618      	mov	r0, r3
 8003312:	f7fd f83b 	bl	800038c <__aeabi_fmul>
 8003316:	4603      	mov	r3, r0
 8003318:	4618      	mov	r0, r3
 800331a:	f004 fa41 	bl	80077a0 <sinf>
 800331e:	4603      	mov	r3, r0
 8003320:	4619      	mov	r1, r3
 8003322:	4620      	mov	r0, r4
 8003324:	f7fd f832 	bl	800038c <__aeabi_fmul>
 8003328:	4603      	mov	r3, r0
 800332a:	f04f 4180 	mov.w	r1, #1073741824	@ 0x40000000
 800332e:	4618      	mov	r0, r3
 8003330:	f7fd f8e0 	bl	80004f4 <__aeabi_fdiv>
 8003334:	4603      	mov	r3, r0
 8003336:	f04f 517e 	mov.w	r1, #1065353216	@ 0x3f800000
 800333a:	4618      	mov	r0, r3
 800333c:	f7fc ff1e 	bl	800017c <__addsf3>
 8003340:	4603      	mov	r3, r0
}
 8003342:	4618      	mov	r0, r3
 8003344:	3714      	adds	r7, #20
 8003346:	46bd      	mov	sp, r7
 8003348:	bd90      	pop	{r4, r7, pc}
 800334a:	bf00      	nop
 800334c:	3fb2b8b9 	.word	0x3fb2b8b9
 8003350:	41a00000 	.word	0x41a00000
 8003354:	41200000 	.word	0x41200000
 8003358:	41320000 	.word	0x41320000
 800335c:	c1a00000 	.word	0xc1a00000

08003360 <EaseOutBounce>:

static float EaseOutBounce(float t)
{
 8003360:	b580      	push	{r7, lr}
 8003362:	b084      	sub	sp, #16
 8003364:	af00      	add	r7, sp, #0
 8003366:	6078      	str	r0, [r7, #4]
    const float n1 = 7.5625f;
 8003368:	4b45      	ldr	r3, [pc, #276]	@ (8003480 <EaseOutBounce+0x120>)
 800336a:	60fb      	str	r3, [r7, #12]
    const float d1 = 2.75f;
 800336c:	4b45      	ldr	r3, [pc, #276]	@ (8003484 <EaseOutBounce+0x124>)
 800336e:	60bb      	str	r3, [r7, #8]

    if (t < 1 / d1)
 8003370:	68b9      	ldr	r1, [r7, #8]
 8003372:	f04f 507e 	mov.w	r0, #1065353216	@ 0x3f800000
 8003376:	f7fd f8bd 	bl	80004f4 <__aeabi_fdiv>
 800337a:	4603      	mov	r3, r0
 800337c:	4619      	mov	r1, r3
 800337e:	6878      	ldr	r0, [r7, #4]
 8003380:	f7fd f9a2 	bl	80006c8 <__aeabi_fcmplt>
 8003384:	4603      	mov	r3, r0
 8003386:	2b00      	cmp	r3, #0
 8003388:	d00a      	beq.n	80033a0 <EaseOutBounce+0x40>
    {
        return n1 * t * t;
 800338a:	6879      	ldr	r1, [r7, #4]
 800338c:	68f8      	ldr	r0, [r7, #12]
 800338e:	f7fc fffd 	bl	800038c <__aeabi_fmul>
 8003392:	4603      	mov	r3, r0
 8003394:	6879      	ldr	r1, [r7, #4]
 8003396:	4618      	mov	r0, r3
 8003398:	f7fc fff8 	bl	800038c <__aeabi_fmul>
 800339c:	4603      	mov	r3, r0
 800339e:	e06a      	b.n	8003476 <EaseOutBounce+0x116>
    }
    else if (t < 2 / d1)
 80033a0:	68b9      	ldr	r1, [r7, #8]
 80033a2:	f04f 4080 	mov.w	r0, #1073741824	@ 0x40000000
 80033a6:	f7fd f8a5 	bl	80004f4 <__aeabi_fdiv>
 80033aa:	4603      	mov	r3, r0
 80033ac:	4619      	mov	r1, r3
 80033ae:	6878      	ldr	r0, [r7, #4]
 80033b0:	f7fd f98a 	bl	80006c8 <__aeabi_fcmplt>
 80033b4:	4603      	mov	r3, r0
 80033b6:	2b00      	cmp	r3, #0
 80033b8:	d01c      	beq.n	80033f4 <EaseOutBounce+0x94>
    {
        t -= 1.5f / d1;
 80033ba:	68b9      	ldr	r1, [r7, #8]
 80033bc:	f04f 507f 	mov.w	r0, #1069547520	@ 0x3fc00000
 80033c0:	f7fd f898 	bl	80004f4 <__aeabi_fdiv>
 80033c4:	4603      	mov	r3, r0
 80033c6:	4619      	mov	r1, r3
 80033c8:	6878      	ldr	r0, [r7, #4]
 80033ca:	f7fc fed5 	bl	8000178 <__aeabi_fsub>
 80033ce:	4603      	mov	r3, r0
 80033d0:	607b      	str	r3, [r7, #4]
        return n1 * t * t + 0.75f;
 80033d2:	6879      	ldr	r1, [r7, #4]
 80033d4:	68f8      	ldr	r0, [r7, #12]
 80033d6:	f7fc ffd9 	bl	800038c <__aeabi_fmul>
 80033da:	4603      	mov	r3, r0
 80033dc:	6879      	ldr	r1, [r7, #4]
 80033de:	4618      	mov	r0, r3
 80033e0:	f7fc ffd4 	bl	800038c <__aeabi_fmul>
 80033e4:	4603      	mov	r3, r0
 80033e6:	f04f 517d 	mov.w	r1, #1061158912	@ 0x3f400000
 80033ea:	4618      	mov	r0, r3
 80033ec:	f7fc fec6 	bl	800017c <__addsf3>
 80033f0:	4603      	mov	r3, r0
 80033f2:	e040      	b.n	8003476 <EaseOutBounce+0x116>
    }
    else if (t < 2.5f / d1)
 80033f4:	68b9      	ldr	r1, [r7, #8]
 80033f6:	4824      	ldr	r0, [pc, #144]	@ (8003488 <EaseOutBounce+0x128>)
 80033f8:	f7fd f87c 	bl	80004f4 <__aeabi_fdiv>
 80033fc:	4603      	mov	r3, r0
 80033fe:	4619      	mov	r1, r3
 8003400:	6878      	ldr	r0, [r7, #4]
 8003402:	f7fd f961 	bl	80006c8 <__aeabi_fcmplt>
 8003406:	4603      	mov	r3, r0
 8003408:	2b00      	cmp	r3, #0
 800340a:	d01a      	beq.n	8003442 <EaseOutBounce+0xe2>
    {
        t -= 2.25f / d1;
 800340c:	68b9      	ldr	r1, [r7, #8]
 800340e:	481f      	ldr	r0, [pc, #124]	@ (800348c <EaseOutBounce+0x12c>)
 8003410:	f7fd f870 	bl	80004f4 <__aeabi_fdiv>
 8003414:	4603      	mov	r3, r0
 8003416:	4619      	mov	r1, r3
 8003418:	6878      	ldr	r0, [r7, #4]
 800341a:	f7fc fead 	bl	8000178 <__aeabi_fsub>
 800341e:	4603      	mov	r3, r0
 8003420:	607b      	str	r3, [r7, #4]
        return n1 * t * t + 0.9375f;
 8003422:	6879      	ldr	r1, [r7, #4]
 8003424:	68f8      	ldr	r0, [r7, #12]
 8003426:	f7fc ffb1 	bl	800038c <__aeabi_fmul>
 800342a:	4603      	mov	r3, r0
 800342c:	6879      	ldr	r1, [r7, #4]
 800342e:	4618      	mov	r0, r3
 8003430:	f7fc ffac 	bl	800038c <__aeabi_fmul>
 8003434:	4603      	mov	r3, r0
 8003436:	4916      	ldr	r1, [pc, #88]	@ (8003490 <EaseOutBounce+0x130>)
 8003438:	4618      	mov	r0, r3
 800343a:	f7fc fe9f 	bl	800017c <__addsf3>
 800343e:	4603      	mov	r3, r0
 8003440:	e019      	b.n	8003476 <EaseOutBounce+0x116>
    }
    else
    {
        t -= 2.625f / d1;
 8003442:	68b9      	ldr	r1, [r7, #8]
 8003444:	4813      	ldr	r0, [pc, #76]	@ (8003494 <EaseOutBounce+0x134>)
 8003446:	f7fd f855 	bl	80004f4 <__aeabi_fdiv>
 800344a:	4603      	mov	r3, r0
 800344c:	4619      	mov	r1, r3
 800344e:	6878      	ldr	r0, [r7, #4]
 8003450:	f7fc fe92 	bl	8000178 <__aeabi_fsub>
 8003454:	4603      	mov	r3, r0
 8003456:	607b      	str	r3, [r7, #4]
        return n1 * t * t + 0.984375f;
 8003458:	6879      	ldr	r1, [r7, #4]
 800345a:	68f8      	ldr	r0, [r7, #12]
 800345c:	f7fc ff96 	bl	800038c <__aeabi_fmul>
 8003460:	4603      	mov	r3, r0
 8003462:	6879      	ldr	r1, [r7, #4]
 8003464:	4618      	mov	r0, r3
 8003466:	f7fc ff91 	bl	800038c <__aeabi_fmul>
 800346a:	4603      	mov	r3, r0
 800346c:	490a      	ldr	r1, [pc, #40]	@ (8003498 <EaseOutBounce+0x138>)
 800346e:	4618      	mov	r0, r3
 8003470:	f7fc fe84 	bl	800017c <__addsf3>
 8003474:	4603      	mov	r3, r0
    }
}
 8003476:	4618      	mov	r0, r3
 8003478:	3710      	adds	r7, #16
 800347a:	46bd      	mov	sp, r7
 800347c:	bd80      	pop	{r7, pc}
 800347e:	bf00      	nop
 8003480:	40f20000 	.word	0x40f20000
 8003484:	40300000 	.word	0x40300000
 8003488:	40200000 	.word	0x40200000
 800348c:	40100000 	.word	0x40100000
 8003490:	3f700000 	.word	0x3f700000
 8003494:	40280000 	.word	0x40280000
 8003498:	3f7c0000 	.word	0x3f7c0000

0800349c <EaseInBounce>:

// 反弹缓动
static float EaseInBounce(float t)
{
 800349c:	b580      	push	{r7, lr}
 800349e:	b082      	sub	sp, #8
 80034a0:	af00      	add	r7, sp, #0
 80034a2:	6078      	str	r0, [r7, #4]
    return 1 - EaseOutBounce(1 - t);
 80034a4:	6879      	ldr	r1, [r7, #4]
 80034a6:	f04f 507e 	mov.w	r0, #1065353216	@ 0x3f800000
 80034aa:	f7fc fe65 	bl	8000178 <__aeabi_fsub>
 80034ae:	4603      	mov	r3, r0
 80034b0:	4618      	mov	r0, r3
 80034b2:	f7ff ff55 	bl	8003360 <EaseOutBounce>
 80034b6:	4603      	mov	r3, r0
 80034b8:	4619      	mov	r1, r3
 80034ba:	f04f 507e 	mov.w	r0, #1065353216	@ 0x3f800000
 80034be:	f7fc fe5b 	bl	8000178 <__aeabi_fsub>
 80034c2:	4603      	mov	r3, r0
}
 80034c4:	4618      	mov	r0, r3
 80034c6:	3708      	adds	r7, #8
 80034c8:	46bd      	mov	sp, r7
 80034ca:	bd80      	pop	{r7, pc}

080034cc <EaseInOutBounce>:

static float EaseInOutBounce(float t)
{
 80034cc:	b580      	push	{r7, lr}
 80034ce:	b082      	sub	sp, #8
 80034d0:	af00      	add	r7, sp, #0
 80034d2:	6078      	str	r0, [r7, #4]
    if (t < 0.5f)
 80034d4:	f04f 517c 	mov.w	r1, #1056964608	@ 0x3f000000
 80034d8:	6878      	ldr	r0, [r7, #4]
 80034da:	f7fd f8f5 	bl	80006c8 <__aeabi_fcmplt>
 80034de:	4603      	mov	r3, r0
 80034e0:	2b00      	cmp	r3, #0
 80034e2:	d010      	beq.n	8003506 <EaseInOutBounce+0x3a>
        return EaseInBounce(t * 2) * 0.5f;
 80034e4:	687b      	ldr	r3, [r7, #4]
 80034e6:	4619      	mov	r1, r3
 80034e8:	4618      	mov	r0, r3
 80034ea:	f7fc fe47 	bl	800017c <__addsf3>
 80034ee:	4603      	mov	r3, r0
 80034f0:	4618      	mov	r0, r3
 80034f2:	f7ff ffd3 	bl	800349c <EaseInBounce>
 80034f6:	4603      	mov	r3, r0
 80034f8:	f04f 517c 	mov.w	r1, #1056964608	@ 0x3f000000
 80034fc:	4618      	mov	r0, r3
 80034fe:	f7fc ff45 	bl	800038c <__aeabi_fmul>
 8003502:	4603      	mov	r3, r0
 8003504:	e01b      	b.n	800353e <EaseInOutBounce+0x72>
    return EaseOutBounce(t * 2 - 1) * 0.5f + 0.5f;
 8003506:	687b      	ldr	r3, [r7, #4]
 8003508:	4619      	mov	r1, r3
 800350a:	4618      	mov	r0, r3
 800350c:	f7fc fe36 	bl	800017c <__addsf3>
 8003510:	4603      	mov	r3, r0
 8003512:	f04f 517e 	mov.w	r1, #1065353216	@ 0x3f800000
 8003516:	4618      	mov	r0, r3
 8003518:	f7fc fe2e 	bl	8000178 <__aeabi_fsub>
 800351c:	4603      	mov	r3, r0
 800351e:	4618      	mov	r0, r3
 8003520:	f7ff ff1e 	bl	8003360 <EaseOutBounce>
 8003524:	4603      	mov	r3, r0
 8003526:	f04f 517c 	mov.w	r1, #1056964608	@ 0x3f000000
 800352a:	4618      	mov	r0, r3
 800352c:	f7fc ff2e 	bl	800038c <__aeabi_fmul>
 8003530:	4603      	mov	r3, r0
 8003532:	f04f 517c 	mov.w	r1, #1056964608	@ 0x3f000000
 8003536:	4618      	mov	r0, r3
 8003538:	f7fc fe20 	bl	800017c <__addsf3>
 800353c:	4603      	mov	r3, r0
}
 800353e:	4618      	mov	r0, r3
 8003540:	3708      	adds	r7, #8
 8003542:	46bd      	mov	sp, r7
 8003544:	bd80      	pop	{r7, pc}
	...

08003548 <EaseInBack>:

// 背越式缓动
static float EaseInBack(float t)
{
 8003548:	b590      	push	{r4, r7, lr}
 800354a:	b085      	sub	sp, #20
 800354c:	af00      	add	r7, sp, #0
 800354e:	6078      	str	r0, [r7, #4]
    const float c1 = 1.70158f;
 8003550:	4b15      	ldr	r3, [pc, #84]	@ (80035a8 <EaseInBack+0x60>)
 8003552:	60fb      	str	r3, [r7, #12]
    const float c3 = c1 + 1;
 8003554:	f04f 517e 	mov.w	r1, #1065353216	@ 0x3f800000
 8003558:	68f8      	ldr	r0, [r7, #12]
 800355a:	f7fc fe0f 	bl	800017c <__addsf3>
 800355e:	4603      	mov	r3, r0
 8003560:	60bb      	str	r3, [r7, #8]

    return c3 * t * t * t - c1 * t * t;
 8003562:	6879      	ldr	r1, [r7, #4]
 8003564:	68b8      	ldr	r0, [r7, #8]
 8003566:	f7fc ff11 	bl	800038c <__aeabi_fmul>
 800356a:	4603      	mov	r3, r0
 800356c:	6879      	ldr	r1, [r7, #4]
 800356e:	4618      	mov	r0, r3
 8003570:	f7fc ff0c 	bl	800038c <__aeabi_fmul>
 8003574:	4603      	mov	r3, r0
 8003576:	6879      	ldr	r1, [r7, #4]
 8003578:	4618      	mov	r0, r3
 800357a:	f7fc ff07 	bl	800038c <__aeabi_fmul>
 800357e:	4603      	mov	r3, r0
 8003580:	461c      	mov	r4, r3
 8003582:	6879      	ldr	r1, [r7, #4]
 8003584:	68f8      	ldr	r0, [r7, #12]
 8003586:	f7fc ff01 	bl	800038c <__aeabi_fmul>
 800358a:	4603      	mov	r3, r0
 800358c:	6879      	ldr	r1, [r7, #4]
 800358e:	4618      	mov	r0, r3
 8003590:	f7fc fefc 	bl	800038c <__aeabi_fmul>
 8003594:	4603      	mov	r3, r0
 8003596:	4619      	mov	r1, r3
 8003598:	4620      	mov	r0, r4
 800359a:	f7fc fded 	bl	8000178 <__aeabi_fsub>
 800359e:	4603      	mov	r3, r0
}
 80035a0:	4618      	mov	r0, r3
 80035a2:	3714      	adds	r7, #20
 80035a4:	46bd      	mov	sp, r7
 80035a6:	bd90      	pop	{r4, r7, pc}
 80035a8:	3fd9cd60 	.word	0x3fd9cd60

080035ac <EaseOutBack>:

static float EaseOutBack(float t)
{
 80035ac:	b590      	push	{r4, r7, lr}
 80035ae:	b085      	sub	sp, #20
 80035b0:	af00      	add	r7, sp, #0
 80035b2:	6078      	str	r0, [r7, #4]
    const float c1 = 1.70158f;
 80035b4:	4b1c      	ldr	r3, [pc, #112]	@ (8003628 <EaseOutBack+0x7c>)
 80035b6:	60fb      	str	r3, [r7, #12]
    const float c3 = c1 + 1;
 80035b8:	f04f 517e 	mov.w	r1, #1065353216	@ 0x3f800000
 80035bc:	68f8      	ldr	r0, [r7, #12]
 80035be:	f7fc fddd 	bl	800017c <__addsf3>
 80035c2:	4603      	mov	r3, r0
 80035c4:	60bb      	str	r3, [r7, #8]

    return 1 + c3 * powf(t - 1, 3) + c1 * powf(t - 1, 2);
 80035c6:	f04f 517e 	mov.w	r1, #1065353216	@ 0x3f800000
 80035ca:	6878      	ldr	r0, [r7, #4]
 80035cc:	f7fc fdd4 	bl	8000178 <__aeabi_fsub>
 80035d0:	4603      	mov	r3, r0
 80035d2:	4916      	ldr	r1, [pc, #88]	@ (800362c <EaseOutBack+0x80>)
 80035d4:	4618      	mov	r0, r3
 80035d6:	f004 f843 	bl	8007660 <powf>
 80035da:	4603      	mov	r3, r0
 80035dc:	68b9      	ldr	r1, [r7, #8]
 80035de:	4618      	mov	r0, r3
 80035e0:	f7fc fed4 	bl	800038c <__aeabi_fmul>
 80035e4:	4603      	mov	r3, r0
 80035e6:	f04f 517e 	mov.w	r1, #1065353216	@ 0x3f800000
 80035ea:	4618      	mov	r0, r3
 80035ec:	f7fc fdc6 	bl	800017c <__addsf3>
 80035f0:	4603      	mov	r3, r0
 80035f2:	461c      	mov	r4, r3
 80035f4:	f04f 517e 	mov.w	r1, #1065353216	@ 0x3f800000
 80035f8:	6878      	ldr	r0, [r7, #4]
 80035fa:	f7fc fdbd 	bl	8000178 <__aeabi_fsub>
 80035fe:	4603      	mov	r3, r0
 8003600:	f04f 4180 	mov.w	r1, #1073741824	@ 0x40000000
 8003604:	4618      	mov	r0, r3
 8003606:	f004 f82b 	bl	8007660 <powf>
 800360a:	4603      	mov	r3, r0
 800360c:	68f9      	ldr	r1, [r7, #12]
 800360e:	4618      	mov	r0, r3
 8003610:	f7fc febc 	bl	800038c <__aeabi_fmul>
 8003614:	4603      	mov	r3, r0
 8003616:	4619      	mov	r1, r3
 8003618:	4620      	mov	r0, r4
 800361a:	f7fc fdaf 	bl	800017c <__addsf3>
 800361e:	4603      	mov	r3, r0
}
 8003620:	4618      	mov	r0, r3
 8003622:	3714      	adds	r7, #20
 8003624:	46bd      	mov	sp, r7
 8003626:	bd90      	pop	{r4, r7, pc}
 8003628:	3fd9cd60 	.word	0x3fd9cd60
 800362c:	40400000 	.word	0x40400000

08003630 <EaseInOutBack>:

static float EaseInOutBack(float t)
{
 8003630:	b5b0      	push	{r4, r5, r7, lr}
 8003632:	b084      	sub	sp, #16
 8003634:	af00      	add	r7, sp, #0
 8003636:	6078      	str	r0, [r7, #4]
    const float c1 = 1.70158f;
 8003638:	4b40      	ldr	r3, [pc, #256]	@ (800373c <EaseInOutBack+0x10c>)
 800363a:	60fb      	str	r3, [r7, #12]
    const float c2 = c1 * 1.525f;
 800363c:	4940      	ldr	r1, [pc, #256]	@ (8003740 <EaseInOutBack+0x110>)
 800363e:	68f8      	ldr	r0, [r7, #12]
 8003640:	f7fc fea4 	bl	800038c <__aeabi_fmul>
 8003644:	4603      	mov	r3, r0
 8003646:	60bb      	str	r3, [r7, #8]

    if (t < 0.5f)
 8003648:	f04f 517c 	mov.w	r1, #1056964608	@ 0x3f000000
 800364c:	6878      	ldr	r0, [r7, #4]
 800364e:	f7fd f83b 	bl	80006c8 <__aeabi_fcmplt>
 8003652:	4603      	mov	r3, r0
 8003654:	2b00      	cmp	r3, #0
 8003656:	d02c      	beq.n	80036b2 <EaseInOutBack+0x82>
        return (powf(2 * t, 2) * ((c2 + 1) * 2 * t - c2)) / 2;
 8003658:	687b      	ldr	r3, [r7, #4]
 800365a:	4619      	mov	r1, r3
 800365c:	4618      	mov	r0, r3
 800365e:	f7fc fd8d 	bl	800017c <__addsf3>
 8003662:	4603      	mov	r3, r0
 8003664:	f04f 4180 	mov.w	r1, #1073741824	@ 0x40000000
 8003668:	4618      	mov	r0, r3
 800366a:	f003 fff9 	bl	8007660 <powf>
 800366e:	4604      	mov	r4, r0
 8003670:	f04f 517e 	mov.w	r1, #1065353216	@ 0x3f800000
 8003674:	68b8      	ldr	r0, [r7, #8]
 8003676:	f7fc fd81 	bl	800017c <__addsf3>
 800367a:	4603      	mov	r3, r0
 800367c:	4619      	mov	r1, r3
 800367e:	4618      	mov	r0, r3
 8003680:	f7fc fd7c 	bl	800017c <__addsf3>
 8003684:	4603      	mov	r3, r0
 8003686:	6879      	ldr	r1, [r7, #4]
 8003688:	4618      	mov	r0, r3
 800368a:	f7fc fe7f 	bl	800038c <__aeabi_fmul>
 800368e:	4603      	mov	r3, r0
 8003690:	68b9      	ldr	r1, [r7, #8]
 8003692:	4618      	mov	r0, r3
 8003694:	f7fc fd70 	bl	8000178 <__aeabi_fsub>
 8003698:	4603      	mov	r3, r0
 800369a:	4619      	mov	r1, r3
 800369c:	4620      	mov	r0, r4
 800369e:	f7fc fe75 	bl	800038c <__aeabi_fmul>
 80036a2:	4603      	mov	r3, r0
 80036a4:	f04f 4180 	mov.w	r1, #1073741824	@ 0x40000000
 80036a8:	4618      	mov	r0, r3
 80036aa:	f7fc ff23 	bl	80004f4 <__aeabi_fdiv>
 80036ae:	4603      	mov	r3, r0
 80036b0:	e03f      	b.n	8003732 <EaseInOutBack+0x102>
    return (powf(2 * t - 2, 2) * ((c2 + 1) * (t * 2 - 2) + c2) + 2) / 2;
 80036b2:	687b      	ldr	r3, [r7, #4]
 80036b4:	4619      	mov	r1, r3
 80036b6:	4618      	mov	r0, r3
 80036b8:	f7fc fd60 	bl	800017c <__addsf3>
 80036bc:	4603      	mov	r3, r0
 80036be:	f04f 4180 	mov.w	r1, #1073741824	@ 0x40000000
 80036c2:	4618      	mov	r0, r3
 80036c4:	f7fc fd58 	bl	8000178 <__aeabi_fsub>
 80036c8:	4603      	mov	r3, r0
 80036ca:	f04f 4180 	mov.w	r1, #1073741824	@ 0x40000000
 80036ce:	4618      	mov	r0, r3
 80036d0:	f003 ffc6 	bl	8007660 <powf>
 80036d4:	4604      	mov	r4, r0
 80036d6:	f04f 517e 	mov.w	r1, #1065353216	@ 0x3f800000
 80036da:	68b8      	ldr	r0, [r7, #8]
 80036dc:	f7fc fd4e 	bl	800017c <__addsf3>
 80036e0:	4603      	mov	r3, r0
 80036e2:	461d      	mov	r5, r3
 80036e4:	687b      	ldr	r3, [r7, #4]
 80036e6:	4619      	mov	r1, r3
 80036e8:	4618      	mov	r0, r3
 80036ea:	f7fc fd47 	bl	800017c <__addsf3>
 80036ee:	4603      	mov	r3, r0
 80036f0:	f04f 4180 	mov.w	r1, #1073741824	@ 0x40000000
 80036f4:	4618      	mov	r0, r3
 80036f6:	f7fc fd3f 	bl	8000178 <__aeabi_fsub>
 80036fa:	4603      	mov	r3, r0
 80036fc:	4619      	mov	r1, r3
 80036fe:	4628      	mov	r0, r5
 8003700:	f7fc fe44 	bl	800038c <__aeabi_fmul>
 8003704:	4603      	mov	r3, r0
 8003706:	68b9      	ldr	r1, [r7, #8]
 8003708:	4618      	mov	r0, r3
 800370a:	f7fc fd37 	bl	800017c <__addsf3>
 800370e:	4603      	mov	r3, r0
 8003710:	4619      	mov	r1, r3
 8003712:	4620      	mov	r0, r4
 8003714:	f7fc fe3a 	bl	800038c <__aeabi_fmul>
 8003718:	4603      	mov	r3, r0
 800371a:	f04f 4180 	mov.w	r1, #1073741824	@ 0x40000000
 800371e:	4618      	mov	r0, r3
 8003720:	f7fc fd2c 	bl	800017c <__addsf3>
 8003724:	4603      	mov	r3, r0
 8003726:	f04f 4180 	mov.w	r1, #1073741824	@ 0x40000000
 800372a:	4618      	mov	r0, r3
 800372c:	f7fc fee2 	bl	80004f4 <__aeabi_fdiv>
 8003730:	4603      	mov	r3, r0
}
 8003732:	4618      	mov	r0, r3
 8003734:	3710      	adds	r7, #16
 8003736:	46bd      	mov	sp, r7
 8003738:	bdb0      	pop	{r4, r5, r7, pc}
 800373a:	bf00      	nop
 800373c:	3fd9cd60 	.word	0x3fd9cd60
 8003740:	3fc33333 	.word	0x3fc33333

08003744 <EaseInSine>:

// 正弦缓动
static float EaseInSine(float t)
{
 8003744:	b580      	push	{r7, lr}
 8003746:	b082      	sub	sp, #8
 8003748:	af00      	add	r7, sp, #0
 800374a:	6078      	str	r0, [r7, #4]
    return 1 - cosf((t * 3.14159f) / 2);
 800374c:	490c      	ldr	r1, [pc, #48]	@ (8003780 <EaseInSine+0x3c>)
 800374e:	6878      	ldr	r0, [r7, #4]
 8003750:	f7fc fe1c 	bl	800038c <__aeabi_fmul>
 8003754:	4603      	mov	r3, r0
 8003756:	f04f 4180 	mov.w	r1, #1073741824	@ 0x40000000
 800375a:	4618      	mov	r0, r3
 800375c:	f7fc feca 	bl	80004f4 <__aeabi_fdiv>
 8003760:	4603      	mov	r3, r0
 8003762:	4618      	mov	r0, r3
 8003764:	f003 ffe4 	bl	8007730 <cosf>
 8003768:	4603      	mov	r3, r0
 800376a:	4619      	mov	r1, r3
 800376c:	f04f 507e 	mov.w	r0, #1065353216	@ 0x3f800000
 8003770:	f7fc fd02 	bl	8000178 <__aeabi_fsub>
 8003774:	4603      	mov	r3, r0
}
 8003776:	4618      	mov	r0, r3
 8003778:	3708      	adds	r7, #8
 800377a:	46bd      	mov	sp, r7
 800377c:	bd80      	pop	{r7, pc}
 800377e:	bf00      	nop
 8003780:	40490fd0 	.word	0x40490fd0

08003784 <EaseOutSine>:

static float EaseOutSine(float t)
{
 8003784:	b580      	push	{r7, lr}
 8003786:	b082      	sub	sp, #8
 8003788:	af00      	add	r7, sp, #0
 800378a:	6078      	str	r0, [r7, #4]
    return sinf((t * 3.14159f) / 2);
 800378c:	4909      	ldr	r1, [pc, #36]	@ (80037b4 <EaseOutSine+0x30>)
 800378e:	6878      	ldr	r0, [r7, #4]
 8003790:	f7fc fdfc 	bl	800038c <__aeabi_fmul>
 8003794:	4603      	mov	r3, r0
 8003796:	f04f 4180 	mov.w	r1, #1073741824	@ 0x40000000
 800379a:	4618      	mov	r0, r3
 800379c:	f7fc feaa 	bl	80004f4 <__aeabi_fdiv>
 80037a0:	4603      	mov	r3, r0
 80037a2:	4618      	mov	r0, r3
 80037a4:	f003 fffc 	bl	80077a0 <sinf>
 80037a8:	4603      	mov	r3, r0
}
 80037aa:	4618      	mov	r0, r3
 80037ac:	3708      	adds	r7, #8
 80037ae:	46bd      	mov	sp, r7
 80037b0:	bd80      	pop	{r7, pc}
 80037b2:	bf00      	nop
 80037b4:	40490fd0 	.word	0x40490fd0

080037b8 <EaseInOutSine>:

static float EaseInOutSine(float t)
{
 80037b8:	b580      	push	{r7, lr}
 80037ba:	b082      	sub	sp, #8
 80037bc:	af00      	add	r7, sp, #0
 80037be:	6078      	str	r0, [r7, #4]
    return -(cosf(3.14159f * t) - 1) / 2;
 80037c0:	490d      	ldr	r1, [pc, #52]	@ (80037f8 <EaseInOutSine+0x40>)
 80037c2:	6878      	ldr	r0, [r7, #4]
 80037c4:	f7fc fde2 	bl	800038c <__aeabi_fmul>
 80037c8:	4603      	mov	r3, r0
 80037ca:	4618      	mov	r0, r3
 80037cc:	f003 ffb0 	bl	8007730 <cosf>
 80037d0:	4603      	mov	r3, r0
 80037d2:	f04f 517e 	mov.w	r1, #1065353216	@ 0x3f800000
 80037d6:	4618      	mov	r0, r3
 80037d8:	f7fc fcce 	bl	8000178 <__aeabi_fsub>
 80037dc:	4603      	mov	r3, r0
 80037de:	f083 4300 	eor.w	r3, r3, #2147483648	@ 0x80000000
 80037e2:	f04f 4180 	mov.w	r1, #1073741824	@ 0x40000000
 80037e6:	4618      	mov	r0, r3
 80037e8:	f7fc fe84 	bl	80004f4 <__aeabi_fdiv>
 80037ec:	4603      	mov	r3, r0
}
 80037ee:	4618      	mov	r0, r3
 80037f0:	3708      	adds	r7, #8
 80037f2:	46bd      	mov	sp, r7
 80037f4:	bd80      	pop	{r7, pc}
 80037f6:	bf00      	nop
 80037f8:	40490fd0 	.word	0x40490fd0

080037fc <GetEaseValue>:

static float GetEaseValue(float progress, EaseType_t easeType)
{
 80037fc:	b580      	push	{r7, lr}
 80037fe:	b082      	sub	sp, #8
 8003800:	af00      	add	r7, sp, #0
 8003802:	6078      	str	r0, [r7, #4]
 8003804:	460b      	mov	r3, r1
 8003806:	70fb      	strb	r3, [r7, #3]
    switch (easeType)
 8003808:	78fb      	ldrb	r3, [r7, #3]
 800380a:	2b18      	cmp	r3, #24
 800380c:	f200 80b3 	bhi.w	8003976 <GetEaseValue+0x17a>
 8003810:	a201      	add	r2, pc, #4	@ (adr r2, 8003818 <GetEaseValue+0x1c>)
 8003812:	f852 f023 	ldr.w	pc, [r2, r3, lsl #2]
 8003816:	bf00      	nop
 8003818:	0800387d 	.word	0x0800387d
 800381c:	08003887 	.word	0x08003887
 8003820:	08003891 	.word	0x08003891
 8003824:	0800389b 	.word	0x0800389b
 8003828:	080038a5 	.word	0x080038a5
 800382c:	080038af 	.word	0x080038af
 8003830:	080038b9 	.word	0x080038b9
 8003834:	080038c3 	.word	0x080038c3
 8003838:	080038cd 	.word	0x080038cd
 800383c:	080038d7 	.word	0x080038d7
 8003840:	080038e1 	.word	0x080038e1
 8003844:	080038eb 	.word	0x080038eb
 8003848:	080038f5 	.word	0x080038f5
 800384c:	080038ff 	.word	0x080038ff
 8003850:	08003909 	.word	0x08003909
 8003854:	08003913 	.word	0x08003913
 8003858:	0800391d 	.word	0x0800391d
 800385c:	08003927 	.word	0x08003927
 8003860:	08003931 	.word	0x08003931
 8003864:	0800393b 	.word	0x0800393b
 8003868:	08003945 	.word	0x08003945
 800386c:	0800394f 	.word	0x0800394f
 8003870:	08003959 	.word	0x08003959
 8003874:	08003963 	.word	0x08003963
 8003878:	0800396d 	.word	0x0800396d
    {
    case EASE_LINEAR:
        return EaseLinear(progress);
 800387c:	6878      	ldr	r0, [r7, #4]
 800387e:	f7ff fa15 	bl	8002cac <EaseLinear>
 8003882:	4603      	mov	r3, r0
 8003884:	e078      	b.n	8003978 <GetEaseValue+0x17c>
    case EASE_IN_QUAD:
        return EaseInQuad(progress);
 8003886:	6878      	ldr	r0, [r7, #4]
 8003888:	f7ff fa1a 	bl	8002cc0 <EaseInQuad>
 800388c:	4603      	mov	r3, r0
 800388e:	e073      	b.n	8003978 <GetEaseValue+0x17c>
    case EASE_OUT_QUAD:
        return EaseOutQuad(progress);
 8003890:	6878      	ldr	r0, [r7, #4]
 8003892:	f7ff fa22 	bl	8002cda <EaseOutQuad>
 8003896:	4603      	mov	r3, r0
 8003898:	e06e      	b.n	8003978 <GetEaseValue+0x17c>
    case EASE_INOUT_QUAD:
        return EaseInOutQuad(progress);
 800389a:	6878      	ldr	r0, [r7, #4]
 800389c:	f7ff fa30 	bl	8002d00 <EaseInOutQuad>
 80038a0:	4603      	mov	r3, r0
 80038a2:	e069      	b.n	8003978 <GetEaseValue+0x17c>
    case EASE_IN_CUBIC:
        return EaseInCubic(progress);
 80038a4:	6878      	ldr	r0, [r7, #4]
 80038a6:	f7ff fa5e 	bl	8002d66 <EaseInCubic>
 80038aa:	4603      	mov	r3, r0
 80038ac:	e064      	b.n	8003978 <GetEaseValue+0x17c>
    case EASE_OUT_CUBIC:
        return EaseOutCubic(progress);
 80038ae:	6878      	ldr	r0, [r7, #4]
 80038b0:	f7ff fa6b 	bl	8002d8a <EaseOutCubic>
 80038b4:	4603      	mov	r3, r0
 80038b6:	e05f      	b.n	8003978 <GetEaseValue+0x17c>
    case EASE_INOUT_CUBIC:
        return EaseInOutCubic(progress);
 80038b8:	6878      	ldr	r0, [r7, #4]
 80038ba:	f7ff fa85 	bl	8002dc8 <EaseInOutCubic>
 80038be:	4603      	mov	r3, r0
 80038c0:	e05a      	b.n	8003978 <GetEaseValue+0x17c>
    case EASE_IN_EXPO:
        return EaseInExpo(progress);
 80038c2:	6878      	ldr	r0, [r7, #4]
 80038c4:	f7ff fad2 	bl	8002e6c <EaseInExpo>
 80038c8:	4603      	mov	r3, r0
 80038ca:	e055      	b.n	8003978 <GetEaseValue+0x17c>
    case EASE_OUT_EXPO:
        return EaseOutExpo(progress);
 80038cc:	6878      	ldr	r0, [r7, #4]
 80038ce:	f7ff faf3 	bl	8002eb8 <EaseOutExpo>
 80038d2:	4603      	mov	r3, r0
 80038d4:	e050      	b.n	8003978 <GetEaseValue+0x17c>
    case EASE_INOUT_EXPO:
        return EaseInOutExpo(progress);
 80038d6:	6878      	ldr	r0, [r7, #4]
 80038d8:	f7ff fb14 	bl	8002f04 <EaseInOutExpo>
 80038dc:	4603      	mov	r3, r0
 80038de:	e04b      	b.n	8003978 <GetEaseValue+0x17c>
    case EASE_IN_CIRC:
        return EaseInCirc(progress);
 80038e0:	6878      	ldr	r0, [r7, #4]
 80038e2:	f7ff fb6f 	bl	8002fc4 <EaseInCirc>
 80038e6:	4603      	mov	r3, r0
 80038e8:	e046      	b.n	8003978 <GetEaseValue+0x17c>
    case EASE_OUT_CIRC:
        return EaseOutCirc(progress);
 80038ea:	6878      	ldr	r0, [r7, #4]
 80038ec:	f7ff fb87 	bl	8002ffe <EaseOutCirc>
 80038f0:	4603      	mov	r3, r0
 80038f2:	e041      	b.n	8003978 <GetEaseValue+0x17c>
    case EASE_INOUT_CIRC:
        return EaseInOutCirc(progress);
 80038f4:	6878      	ldr	r0, [r7, #4]
 80038f6:	f7ff fba0 	bl	800303a <EaseInOutCirc>
 80038fa:	4603      	mov	r3, r0
 80038fc:	e03c      	b.n	8003978 <GetEaseValue+0x17c>
    case EASE_IN_ELASTIC:
        return EaseInElastic(progress);
 80038fe:	6878      	ldr	r0, [r7, #4]
 8003900:	f7ff fbf6 	bl	80030f0 <EaseInElastic>
 8003904:	4603      	mov	r3, r0
 8003906:	e037      	b.n	8003978 <GetEaseValue+0x17c>
    case EASE_OUT_ELASTIC:
        return EaseOutElastic(progress);
 8003908:	6878      	ldr	r0, [r7, #4]
 800390a:	f7ff fc41 	bl	8003190 <EaseOutElastic>
 800390e:	4603      	mov	r3, r0
 8003910:	e032      	b.n	8003978 <GetEaseValue+0x17c>
    case EASE_INOUT_ELASTIC:
        return EaseInOutElastic(progress);
 8003912:	6878      	ldr	r0, [r7, #4]
 8003914:	f7ff fc8c 	bl	8003230 <EaseInOutElastic>
 8003918:	4603      	mov	r3, r0
 800391a:	e02d      	b.n	8003978 <GetEaseValue+0x17c>
    case EASE_IN_BOUNCE:
        return EaseInBounce(progress);
 800391c:	6878      	ldr	r0, [r7, #4]
 800391e:	f7ff fdbd 	bl	800349c <EaseInBounce>
 8003922:	4603      	mov	r3, r0
 8003924:	e028      	b.n	8003978 <GetEaseValue+0x17c>
    case EASE_OUT_BOUNCE:
        return EaseOutBounce(progress);
 8003926:	6878      	ldr	r0, [r7, #4]
 8003928:	f7ff fd1a 	bl	8003360 <EaseOutBounce>
 800392c:	4603      	mov	r3, r0
 800392e:	e023      	b.n	8003978 <GetEaseValue+0x17c>
    case EASE_INOUT_BOUNCE:
        return EaseInOutBounce(progress);
 8003930:	6878      	ldr	r0, [r7, #4]
 8003932:	f7ff fdcb 	bl	80034cc <EaseInOutBounce>
 8003936:	4603      	mov	r3, r0
 8003938:	e01e      	b.n	8003978 <GetEaseValue+0x17c>
    case EASE_IN_BACK:
        return EaseInBack(progress);
 800393a:	6878      	ldr	r0, [r7, #4]
 800393c:	f7ff fe04 	bl	8003548 <EaseInBack>
 8003940:	4603      	mov	r3, r0
 8003942:	e019      	b.n	8003978 <GetEaseValue+0x17c>
    case EASE_OUT_BACK:
        return EaseOutBack(progress);
 8003944:	6878      	ldr	r0, [r7, #4]
 8003946:	f7ff fe31 	bl	80035ac <EaseOutBack>
 800394a:	4603      	mov	r3, r0
 800394c:	e014      	b.n	8003978 <GetEaseValue+0x17c>
    case EASE_INOUT_BACK:
        return EaseInOutBack(progress);
 800394e:	6878      	ldr	r0, [r7, #4]
 8003950:	f7ff fe6e 	bl	8003630 <EaseInOutBack>
 8003954:	4603      	mov	r3, r0
 8003956:	e00f      	b.n	8003978 <GetEaseValue+0x17c>
    case EASE_IN_SINE:
        return EaseInSine(progress);
 8003958:	6878      	ldr	r0, [r7, #4]
 800395a:	f7ff fef3 	bl	8003744 <EaseInSine>
 800395e:	4603      	mov	r3, r0
 8003960:	e00a      	b.n	8003978 <GetEaseValue+0x17c>
    case EASE_OUT_SINE:
        return EaseOutSine(progress);
 8003962:	6878      	ldr	r0, [r7, #4]
 8003964:	f7ff ff0e 	bl	8003784 <EaseOutSine>
 8003968:	4603      	mov	r3, r0
 800396a:	e005      	b.n	8003978 <GetEaseValue+0x17c>
    case EASE_INOUT_SINE:
        return EaseInOutSine(progress);
 800396c:	6878      	ldr	r0, [r7, #4]
 800396e:	f7ff ff23 	bl	80037b8 <EaseInOutSine>
 8003972:	4603      	mov	r3, r0
 8003974:	e000      	b.n	8003978 <GetEaseValue+0x17c>
    default:
        return progress;
 8003976:	687b      	ldr	r3, [r7, #4]
    }
}
 8003978:	4618      	mov	r0, r3
 800397a:	3708      	adds	r7, #8
 800397c:	46bd      	mov	sp, r7
 800397e:	bd80      	pop	{r7, pc}

08003980 <OLED_InitAnimation>:

#pragma region ANIMATIONTWEENS
// 这里是底层动画实现
void OLED_InitAnimation(Animation_t *anim, float startValue, float endValue,
                        uint32_t duration, EaseType_t easeType)
{
 8003980:	b580      	push	{r7, lr}
 8003982:	b084      	sub	sp, #16
 8003984:	af00      	add	r7, sp, #0
 8003986:	60f8      	str	r0, [r7, #12]
 8003988:	60b9      	str	r1, [r7, #8]
 800398a:	607a      	str	r2, [r7, #4]
 800398c:	603b      	str	r3, [r7, #0]
    anim->startTime = HAL_GetTick();
 800398e:	f000 fd57 	bl	8004440 <HAL_GetTick>
 8003992:	4602      	mov	r2, r0
 8003994:	68fb      	ldr	r3, [r7, #12]
 8003996:	601a      	str	r2, [r3, #0]
    anim->duration = duration;
 8003998:	68fb      	ldr	r3, [r7, #12]
 800399a:	683a      	ldr	r2, [r7, #0]
 800399c:	605a      	str	r2, [r3, #4]
    anim->startValue = startValue;
 800399e:	68fb      	ldr	r3, [r7, #12]
 80039a0:	68ba      	ldr	r2, [r7, #8]
 80039a2:	609a      	str	r2, [r3, #8]
    anim->endValue = endValue;
 80039a4:	68fb      	ldr	r3, [r7, #12]
 80039a6:	687a      	ldr	r2, [r7, #4]
 80039a8:	60da      	str	r2, [r3, #12]
    anim->currentValue = startValue;
 80039aa:	68fb      	ldr	r3, [r7, #12]
 80039ac:	68ba      	ldr	r2, [r7, #8]
 80039ae:	611a      	str	r2, [r3, #16]
    anim->isActive = 1;
 80039b0:	68fb      	ldr	r3, [r7, #12]
 80039b2:	2201      	movs	r2, #1
 80039b4:	751a      	strb	r2, [r3, #20]
    anim->easeType = easeType;
 80039b6:	68fb      	ldr	r3, [r7, #12]
 80039b8:	7e3a      	ldrb	r2, [r7, #24]
 80039ba:	755a      	strb	r2, [r3, #21]
}
 80039bc:	bf00      	nop
 80039be:	3710      	adds	r7, #16
 80039c0:	46bd      	mov	sp, r7
 80039c2:	bd80      	pop	{r7, pc}

080039c4 <OLED_UpdateAnimation>:

// 更新动画状态，返回isActive的值
uint8_t OLED_UpdateAnimation(Animation_t *anim, uint32_t currentTime)
{
 80039c4:	b590      	push	{r4, r7, lr}
 80039c6:	b087      	sub	sp, #28
 80039c8:	af00      	add	r7, sp, #0
 80039ca:	6078      	str	r0, [r7, #4]
 80039cc:	6039      	str	r1, [r7, #0]
    if (!anim->isActive)
 80039ce:	687b      	ldr	r3, [r7, #4]
 80039d0:	7d1b      	ldrb	r3, [r3, #20]
 80039d2:	2b00      	cmp	r3, #0
 80039d4:	d101      	bne.n	80039da <OLED_UpdateAnimation+0x16>
        return 0;
 80039d6:	2300      	movs	r3, #0
 80039d8:	e04d      	b.n	8003a76 <OLED_UpdateAnimation+0xb2>

    uint32_t elapsedTime = currentTime - anim->startTime;
 80039da:	687b      	ldr	r3, [r7, #4]
 80039dc:	681b      	ldr	r3, [r3, #0]
 80039de:	683a      	ldr	r2, [r7, #0]
 80039e0:	1ad3      	subs	r3, r2, r3
 80039e2:	617b      	str	r3, [r7, #20]
    // 动画完成
    if (elapsedTime >= anim->duration || anim->currentValue == anim->endValue) // 如果我的目标在指定的点上，也关闭isActive
 80039e4:	687b      	ldr	r3, [r7, #4]
 80039e6:	685b      	ldr	r3, [r3, #4]
 80039e8:	697a      	ldr	r2, [r7, #20]
 80039ea:	429a      	cmp	r2, r3
 80039ec:	d20a      	bcs.n	8003a04 <OLED_UpdateAnimation+0x40>
 80039ee:	687b      	ldr	r3, [r7, #4]
 80039f0:	691a      	ldr	r2, [r3, #16]
 80039f2:	687b      	ldr	r3, [r7, #4]
 80039f4:	68db      	ldr	r3, [r3, #12]
 80039f6:	4619      	mov	r1, r3
 80039f8:	4610      	mov	r0, r2
 80039fa:	f7fc fe5b 	bl	80006b4 <__aeabi_fcmpeq>
 80039fe:	4603      	mov	r3, r0
 8003a00:	2b00      	cmp	r3, #0
 8003a02:	d008      	beq.n	8003a16 <OLED_UpdateAnimation+0x52>
    {
        anim->currentValue = anim->endValue;
 8003a04:	687b      	ldr	r3, [r7, #4]
 8003a06:	68da      	ldr	r2, [r3, #12]
 8003a08:	687b      	ldr	r3, [r7, #4]
 8003a0a:	611a      	str	r2, [r3, #16]
        anim->isActive = 0;
 8003a0c:	687b      	ldr	r3, [r7, #4]
 8003a0e:	2200      	movs	r2, #0
 8003a10:	751a      	strb	r2, [r3, #20]
        return 0;
 8003a12:	2300      	movs	r3, #0
 8003a14:	e02f      	b.n	8003a76 <OLED_UpdateAnimation+0xb2>
    }

    // 计算当前进度 (0.0 - 1.0)
    float progress = (float)elapsedTime / anim->duration;
 8003a16:	6978      	ldr	r0, [r7, #20]
 8003a18:	f7fc fc60 	bl	80002dc <__aeabi_ui2f>
 8003a1c:	4604      	mov	r4, r0
 8003a1e:	687b      	ldr	r3, [r7, #4]
 8003a20:	685b      	ldr	r3, [r3, #4]
 8003a22:	4618      	mov	r0, r3
 8003a24:	f7fc fc5a 	bl	80002dc <__aeabi_ui2f>
 8003a28:	4603      	mov	r3, r0
 8003a2a:	4619      	mov	r1, r3
 8003a2c:	4620      	mov	r0, r4
 8003a2e:	f7fc fd61 	bl	80004f4 <__aeabi_fdiv>
 8003a32:	4603      	mov	r3, r0
 8003a34:	613b      	str	r3, [r7, #16]

    // 应用缓动函数
    float easedProgress = GetEaseValue(progress, anim->easeType);
 8003a36:	687b      	ldr	r3, [r7, #4]
 8003a38:	7d5b      	ldrb	r3, [r3, #21]
 8003a3a:	4619      	mov	r1, r3
 8003a3c:	6938      	ldr	r0, [r7, #16]
 8003a3e:	f7ff fedd 	bl	80037fc <GetEaseValue>
 8003a42:	60f8      	str	r0, [r7, #12]

    // 计算当前值
    anim->currentValue = anim->startValue + (anim->endValue - anim->startValue) * easedProgress;
 8003a44:	687b      	ldr	r3, [r7, #4]
 8003a46:	689c      	ldr	r4, [r3, #8]
 8003a48:	687b      	ldr	r3, [r7, #4]
 8003a4a:	68da      	ldr	r2, [r3, #12]
 8003a4c:	687b      	ldr	r3, [r7, #4]
 8003a4e:	689b      	ldr	r3, [r3, #8]
 8003a50:	4619      	mov	r1, r3
 8003a52:	4610      	mov	r0, r2
 8003a54:	f7fc fb90 	bl	8000178 <__aeabi_fsub>
 8003a58:	4603      	mov	r3, r0
 8003a5a:	68f9      	ldr	r1, [r7, #12]
 8003a5c:	4618      	mov	r0, r3
 8003a5e:	f7fc fc95 	bl	800038c <__aeabi_fmul>
 8003a62:	4603      	mov	r3, r0
 8003a64:	4619      	mov	r1, r3
 8003a66:	4620      	mov	r0, r4
 8003a68:	f7fc fb88 	bl	800017c <__addsf3>
 8003a6c:	4603      	mov	r3, r0
 8003a6e:	461a      	mov	r2, r3
 8003a70:	687b      	ldr	r3, [r7, #4]
 8003a72:	611a      	str	r2, [r3, #16]

    return 1;
 8003a74:	2301      	movs	r3, #1
}
 8003a76:	4618      	mov	r0, r3
 8003a78:	371c      	adds	r7, #28
 8003a7a:	46bd      	mov	sp, r7
 8003a7c:	bd90      	pop	{r4, r7, pc}

08003a7e <OLED_GetAnimationValue>:

// 获取当前动画值
float OLED_GetAnimationValue(Animation_t *anim)
{
 8003a7e:	b480      	push	{r7}
 8003a80:	b083      	sub	sp, #12
 8003a82:	af00      	add	r7, sp, #0
 8003a84:	6078      	str	r0, [r7, #4]
    return anim->currentValue;
 8003a86:	687b      	ldr	r3, [r7, #4]
 8003a88:	691b      	ldr	r3, [r3, #16]
}
 8003a8a:	4618      	mov	r0, r3
 8003a8c:	370c      	adds	r7, #12
 8003a8e:	46bd      	mov	sp, r7
 8003a90:	bc80      	pop	{r7}
 8003a92:	4770      	bx	lr

08003a94 <OLED_InitAnimationManager>:
AnimationManager_t Status_AnimationManager;
AnimationManager_t g_Title_AnimationManager; // 菜单动画管理器
AnimationManager_t g_AnimationManager; // 全局动画管理器

void OLED_InitAnimationManager(AnimationManager_t *manager) // 这是初始化一个动画管理器，填入你的manager名字，在系统初始化时候调用它
{
 8003a94:	b580      	push	{r7, lr}
 8003a96:	b082      	sub	sp, #8
 8003a98:	af00      	add	r7, sp, #0
 8003a9a:	6078      	str	r0, [r7, #4]
    manager->count = 0;
 8003a9c:	687b      	ldr	r3, [r7, #4]
 8003a9e:	2200      	movs	r2, #0
 8003aa0:	f883 25f0 	strb.w	r2, [r3, #1520]	@ 0x5f0
    memset(manager->taggedAnimations, 0, sizeof(manager->taggedAnimations));
 8003aa4:	687b      	ldr	r3, [r7, #4]
 8003aa6:	f44f 62be 	mov.w	r2, #1520	@ 0x5f0
 8003aaa:	2100      	movs	r1, #0
 8003aac:	4618      	mov	r0, r3
 8003aae:	f003 f935 	bl	8006d1c <memset>
}
 8003ab2:	bf00      	nop
 8003ab4:	3708      	adds	r7, #8
 8003ab6:	46bd      	mov	sp, r7
 8003ab8:	bd80      	pop	{r7, pc}

08003aba <OLED_FindTaggedAnimation>:

TaggedAnimation_t *OLED_FindTaggedAnimation(AnimationManager_t *manager, const char *tag) // 查找对应manager的标签对应的动画tag
{
 8003aba:	b580      	push	{r7, lr}
 8003abc:	b084      	sub	sp, #16
 8003abe:	af00      	add	r7, sp, #0
 8003ac0:	6078      	str	r0, [r7, #4]
 8003ac2:	6039      	str	r1, [r7, #0]
    for (uint8_t i = 0; i < manager->count; i++)
 8003ac4:	2300      	movs	r3, #0
 8003ac6:	73fb      	strb	r3, [r7, #15]
 8003ac8:	e016      	b.n	8003af8 <OLED_FindTaggedAnimation+0x3e>
    {
        if (strcmp(manager->taggedAnimations[i].tag, tag) == 0)
 8003aca:	7bfb      	ldrb	r3, [r7, #15]
 8003acc:	224c      	movs	r2, #76	@ 0x4c
 8003ace:	fb02 f303 	mul.w	r3, r2, r3
 8003ad2:	687a      	ldr	r2, [r7, #4]
 8003ad4:	4413      	add	r3, r2
 8003ad6:	6839      	ldr	r1, [r7, #0]
 8003ad8:	4618      	mov	r0, r3
 8003ada:	f7fc fb37 	bl	800014c <strcmp>
 8003ade:	4603      	mov	r3, r0
 8003ae0:	2b00      	cmp	r3, #0
 8003ae2:	d106      	bne.n	8003af2 <OLED_FindTaggedAnimation+0x38>
        {
            return &manager->taggedAnimations[i];
 8003ae4:	7bfb      	ldrb	r3, [r7, #15]
 8003ae6:	224c      	movs	r2, #76	@ 0x4c
 8003ae8:	fb02 f303 	mul.w	r3, r2, r3
 8003aec:	687a      	ldr	r2, [r7, #4]
 8003aee:	4413      	add	r3, r2
 8003af0:	e009      	b.n	8003b06 <OLED_FindTaggedAnimation+0x4c>
    for (uint8_t i = 0; i < manager->count; i++)
 8003af2:	7bfb      	ldrb	r3, [r7, #15]
 8003af4:	3301      	adds	r3, #1
 8003af6:	73fb      	strb	r3, [r7, #15]
 8003af8:	687b      	ldr	r3, [r7, #4]
 8003afa:	f893 35f0 	ldrb.w	r3, [r3, #1520]	@ 0x5f0
 8003afe:	7bfa      	ldrb	r2, [r7, #15]
 8003b00:	429a      	cmp	r2, r3
 8003b02:	d3e2      	bcc.n	8003aca <OLED_FindTaggedAnimation+0x10>
        }
    }
    return NULL;
 8003b04:	2300      	movs	r3, #0
}
 8003b06:	4618      	mov	r0, r3
 8003b08:	3710      	adds	r7, #16
 8003b0a:	46bd      	mov	sp, r7
 8003b0c:	bd80      	pop	{r7, pc}

08003b0e <OLED_GetObjectPosition>:

uint8_t OLED_GetObjectPosition(AnimationManager_t *manager, const char *tag, float *x, float *y) // 获取tag当前位置
{
 8003b0e:	b580      	push	{r7, lr}
 8003b10:	b086      	sub	sp, #24
 8003b12:	af00      	add	r7, sp, #0
 8003b14:	60f8      	str	r0, [r7, #12]
 8003b16:	60b9      	str	r1, [r7, #8]
 8003b18:	607a      	str	r2, [r7, #4]
 8003b1a:	603b      	str	r3, [r7, #0]
    TaggedAnimation_t *anim = OLED_FindTaggedAnimation(manager, tag);
 8003b1c:	68b9      	ldr	r1, [r7, #8]
 8003b1e:	68f8      	ldr	r0, [r7, #12]
 8003b20:	f7ff ffcb 	bl	8003aba <OLED_FindTaggedAnimation>
 8003b24:	6178      	str	r0, [r7, #20]
    if (anim)
 8003b26:	697b      	ldr	r3, [r7, #20]
 8003b28:	2b00      	cmp	r3, #0
 8003b2a:	d00f      	beq.n	8003b4c <OLED_GetObjectPosition+0x3e>
    {
        if (x)
 8003b2c:	687b      	ldr	r3, [r7, #4]
 8003b2e:	2b00      	cmp	r3, #0
 8003b30:	d003      	beq.n	8003b3a <OLED_GetObjectPosition+0x2c>
            *x = anim->currentX;
 8003b32:	697b      	ldr	r3, [r7, #20]
 8003b34:	6c5a      	ldr	r2, [r3, #68]	@ 0x44
 8003b36:	687b      	ldr	r3, [r7, #4]
 8003b38:	601a      	str	r2, [r3, #0]
        if (y)
 8003b3a:	683b      	ldr	r3, [r7, #0]
 8003b3c:	2b00      	cmp	r3, #0
 8003b3e:	d003      	beq.n	8003b48 <OLED_GetObjectPosition+0x3a>
            *y = anim->currentY;
 8003b40:	697b      	ldr	r3, [r7, #20]
 8003b42:	6c9a      	ldr	r2, [r3, #72]	@ 0x48
 8003b44:	683b      	ldr	r3, [r7, #0]
 8003b46:	601a      	str	r2, [r3, #0]
        return 1;
 8003b48:	2301      	movs	r3, #1
 8003b4a:	e000      	b.n	8003b4e <OLED_GetObjectPosition+0x40>
    }
    return 0;
 8003b4c:	2300      	movs	r3, #0
}
 8003b4e:	4618      	mov	r0, r3
 8003b50:	3718      	adds	r7, #24
 8003b52:	46bd      	mov	sp, r7
 8003b54:	bd80      	pop	{r7, pc}

08003b56 <OLED_MoveObject>:

// 移动指定标签的对象
void OLED_MoveObject(AnimationManager_t *manager, const char *tag,
                     float startX, float startY, float targetX, float targetY,
                     uint32_t duration, EaseType_t easeType) // 这个函数是用来移动一个对象的，tag是对象的标签，startX和startY是起始坐标，targetX和targetY是目标坐标，duration是动画持续时间，easeType是缓动类型
{
 8003b56:	b580      	push	{r7, lr}
 8003b58:	b088      	sub	sp, #32
 8003b5a:	af02      	add	r7, sp, #8
 8003b5c:	60f8      	str	r0, [r7, #12]
 8003b5e:	60b9      	str	r1, [r7, #8]
 8003b60:	607a      	str	r2, [r7, #4]
 8003b62:	603b      	str	r3, [r7, #0]
    // 查找已存在的动画
    TaggedAnimation_t *anim = OLED_FindTaggedAnimation(manager, tag);
 8003b64:	68b9      	ldr	r1, [r7, #8]
 8003b66:	68f8      	ldr	r0, [r7, #12]
 8003b68:	f7ff ffa7 	bl	8003aba <OLED_FindTaggedAnimation>
 8003b6c:	6178      	str	r0, [r7, #20]

    // 如果没找到并且还有可用槽位，创建新的动画
    if (anim == NULL)
 8003b6e:	697b      	ldr	r3, [r7, #20]
 8003b70:	2b00      	cmp	r3, #0
 8003b72:	d122      	bne.n	8003bba <OLED_MoveObject+0x64>
    {
        if (manager->count >= MAX_ANIMATIONS)
 8003b74:	68fb      	ldr	r3, [r7, #12]
 8003b76:	f893 35f0 	ldrb.w	r3, [r3, #1520]	@ 0x5f0
 8003b7a:	2b13      	cmp	r3, #19
 8003b7c:	d838      	bhi.n	8003bf0 <OLED_MoveObject+0x9a>
            return; // 动画已满，无法添加

        anim = &manager->taggedAnimations[manager->count++];
 8003b7e:	68fb      	ldr	r3, [r7, #12]
 8003b80:	f893 35f0 	ldrb.w	r3, [r3, #1520]	@ 0x5f0
 8003b84:	1c5a      	adds	r2, r3, #1
 8003b86:	b2d1      	uxtb	r1, r2
 8003b88:	68fa      	ldr	r2, [r7, #12]
 8003b8a:	f882 15f0 	strb.w	r1, [r2, #1520]	@ 0x5f0
 8003b8e:	461a      	mov	r2, r3
 8003b90:	234c      	movs	r3, #76	@ 0x4c
 8003b92:	fb02 f303 	mul.w	r3, r2, r3
 8003b96:	68fa      	ldr	r2, [r7, #12]
 8003b98:	4413      	add	r3, r2
 8003b9a:	617b      	str	r3, [r7, #20]
        strncpy(anim->tag, tag, sizeof(anim->tag) - 1);
 8003b9c:	697b      	ldr	r3, [r7, #20]
 8003b9e:	220f      	movs	r2, #15
 8003ba0:	68b9      	ldr	r1, [r7, #8]
 8003ba2:	4618      	mov	r0, r3
 8003ba4:	f003 f8c2 	bl	8006d2c <strncpy>
        anim->tag[sizeof(anim->tag) - 1] = '\0'; // 确保字符串结束
 8003ba8:	697b      	ldr	r3, [r7, #20]
 8003baa:	2200      	movs	r2, #0
 8003bac:	73da      	strb	r2, [r3, #15]
        anim->currentX = startX;
 8003bae:	697b      	ldr	r3, [r7, #20]
 8003bb0:	687a      	ldr	r2, [r7, #4]
 8003bb2:	645a      	str	r2, [r3, #68]	@ 0x44
        anim->currentY = startY;
 8003bb4:	697b      	ldr	r3, [r7, #20]
 8003bb6:	683a      	ldr	r2, [r7, #0]
 8003bb8:	649a      	str	r2, [r3, #72]	@ 0x48
    }

    // 初始化或更新X和Y坐标的动画
    OLED_InitAnimation(&anim->xAnimation, startX, targetX, duration, easeType);
 8003bba:	697b      	ldr	r3, [r7, #20]
 8003bbc:	f103 0010 	add.w	r0, r3, #16
 8003bc0:	f897 302c 	ldrb.w	r3, [r7, #44]	@ 0x2c
 8003bc4:	9300      	str	r3, [sp, #0]
 8003bc6:	6abb      	ldr	r3, [r7, #40]	@ 0x28
 8003bc8:	6a3a      	ldr	r2, [r7, #32]
 8003bca:	6879      	ldr	r1, [r7, #4]
 8003bcc:	f7ff fed8 	bl	8003980 <OLED_InitAnimation>
    OLED_InitAnimation(&anim->yAnimation, startY, targetY, duration, easeType);
 8003bd0:	697b      	ldr	r3, [r7, #20]
 8003bd2:	f103 0028 	add.w	r0, r3, #40	@ 0x28
 8003bd6:	f897 302c 	ldrb.w	r3, [r7, #44]	@ 0x2c
 8003bda:	9300      	str	r3, [sp, #0]
 8003bdc:	6abb      	ldr	r3, [r7, #40]	@ 0x28
 8003bde:	6a7a      	ldr	r2, [r7, #36]	@ 0x24
 8003be0:	6839      	ldr	r1, [r7, #0]
 8003be2:	f7ff fecd 	bl	8003980 <OLED_InitAnimation>
    anim->isActive = 1;
 8003be6:	697b      	ldr	r3, [r7, #20]
 8003be8:	2201      	movs	r2, #1
 8003bea:	f883 2040 	strb.w	r2, [r3, #64]	@ 0x40
 8003bee:	e000      	b.n	8003bf2 <OLED_MoveObject+0x9c>
            return; // 动画已满，无法添加
 8003bf0:	bf00      	nop
}
 8003bf2:	3718      	adds	r7, #24
 8003bf4:	46bd      	mov	sp, r7
 8003bf6:	bd80      	pop	{r7, pc}

08003bf8 <OLED_UpdateAnimationManager>:

// 更新manager里面的所有动画!
void OLED_UpdateAnimationManager(AnimationManager_t *manager) //! 这里需要使用OLED_UpdateDisplayVSync()来更新显示
{
 8003bf8:	b580      	push	{r7, lr}
 8003bfa:	b086      	sub	sp, #24
 8003bfc:	af00      	add	r7, sp, #0
 8003bfe:	6078      	str	r0, [r7, #4]
    uint32_t currentTime = HAL_GetTick();
 8003c00:	f000 fc1e 	bl	8004440 <HAL_GetTick>
 8003c04:	6138      	str	r0, [r7, #16]

    for (uint8_t i = 0; i < manager->count; i++)
 8003c06:	2300      	movs	r3, #0
 8003c08:	75fb      	strb	r3, [r7, #23]
 8003c0a:	e03a      	b.n	8003c82 <OLED_UpdateAnimationManager+0x8a>
    {
        TaggedAnimation_t *anim = &manager->taggedAnimations[i];
 8003c0c:	7dfb      	ldrb	r3, [r7, #23]
 8003c0e:	224c      	movs	r2, #76	@ 0x4c
 8003c10:	fb02 f303 	mul.w	r3, r2, r3
 8003c14:	687a      	ldr	r2, [r7, #4]
 8003c16:	4413      	add	r3, r2
 8003c18:	60fb      	str	r3, [r7, #12]
        if (!anim->isActive)
 8003c1a:	68fb      	ldr	r3, [r7, #12]
 8003c1c:	f893 3040 	ldrb.w	r3, [r3, #64]	@ 0x40
 8003c20:	2b00      	cmp	r3, #0
 8003c22:	d02a      	beq.n	8003c7a <OLED_UpdateAnimationManager+0x82>
            continue;

        uint8_t activeX = OLED_UpdateAnimation(&anim->xAnimation, currentTime);
 8003c24:	68fb      	ldr	r3, [r7, #12]
 8003c26:	3310      	adds	r3, #16
 8003c28:	6939      	ldr	r1, [r7, #16]
 8003c2a:	4618      	mov	r0, r3
 8003c2c:	f7ff feca 	bl	80039c4 <OLED_UpdateAnimation>
 8003c30:	4603      	mov	r3, r0
 8003c32:	72fb      	strb	r3, [r7, #11]
        uint8_t activeY = OLED_UpdateAnimation(&anim->yAnimation, currentTime);
 8003c34:	68fb      	ldr	r3, [r7, #12]
 8003c36:	3328      	adds	r3, #40	@ 0x28
 8003c38:	6939      	ldr	r1, [r7, #16]
 8003c3a:	4618      	mov	r0, r3
 8003c3c:	f7ff fec2 	bl	80039c4 <OLED_UpdateAnimation>
 8003c40:	4603      	mov	r3, r0
 8003c42:	72bb      	strb	r3, [r7, #10]

        anim->currentX = OLED_GetAnimationValue(&anim->xAnimation);
 8003c44:	68fb      	ldr	r3, [r7, #12]
 8003c46:	3310      	adds	r3, #16
 8003c48:	4618      	mov	r0, r3
 8003c4a:	f7ff ff18 	bl	8003a7e <OLED_GetAnimationValue>
 8003c4e:	4602      	mov	r2, r0
 8003c50:	68fb      	ldr	r3, [r7, #12]
 8003c52:	645a      	str	r2, [r3, #68]	@ 0x44
        anim->currentY = OLED_GetAnimationValue(&anim->yAnimation);
 8003c54:	68fb      	ldr	r3, [r7, #12]
 8003c56:	3328      	adds	r3, #40	@ 0x28
 8003c58:	4618      	mov	r0, r3
 8003c5a:	f7ff ff10 	bl	8003a7e <OLED_GetAnimationValue>
 8003c5e:	4602      	mov	r2, r0
 8003c60:	68fb      	ldr	r3, [r7, #12]
 8003c62:	649a      	str	r2, [r3, #72]	@ 0x48

        // 如果两个动画都结束，则标记该对象动画为非活跃
        if (!activeX && !activeY)
 8003c64:	7afb      	ldrb	r3, [r7, #11]
 8003c66:	2b00      	cmp	r3, #0
 8003c68:	d108      	bne.n	8003c7c <OLED_UpdateAnimationManager+0x84>
 8003c6a:	7abb      	ldrb	r3, [r7, #10]
 8003c6c:	2b00      	cmp	r3, #0
 8003c6e:	d105      	bne.n	8003c7c <OLED_UpdateAnimationManager+0x84>
            anim->isActive = 0;
 8003c70:	68fb      	ldr	r3, [r7, #12]
 8003c72:	2200      	movs	r2, #0
 8003c74:	f883 2040 	strb.w	r2, [r3, #64]	@ 0x40
 8003c78:	e000      	b.n	8003c7c <OLED_UpdateAnimationManager+0x84>
            continue;
 8003c7a:	bf00      	nop
    for (uint8_t i = 0; i < manager->count; i++)
 8003c7c:	7dfb      	ldrb	r3, [r7, #23]
 8003c7e:	3301      	adds	r3, #1
 8003c80:	75fb      	strb	r3, [r7, #23]
 8003c82:	687b      	ldr	r3, [r7, #4]
 8003c84:	f893 35f0 	ldrb.w	r3, [r3, #1520]	@ 0x5f0
 8003c88:	7dfa      	ldrb	r2, [r7, #23]
 8003c8a:	429a      	cmp	r2, r3
 8003c8c:	d3be      	bcc.n	8003c0c <OLED_UpdateAnimationManager+0x14>
    }
}
 8003c8e:	bf00      	nop
 8003c90:	bf00      	nop
 8003c92:	3718      	adds	r7, #24
 8003c94:	46bd      	mov	sp, r7
 8003c96:	bd80      	pop	{r7, pc}

08003c98 <OLED_DoTweenObject>:
    return 0; // 如果没有找到，返回0表示非活跃
}

// 这个函数是用来移动一个对象的，tag是对象的标签，targetX和targetY是目标坐标，duration是动画持续时间，easeType是缓动类型 bool为是可以在while循环里面使用
void OLED_DoTweenObject(AnimationManager_t *manager, const char *tag, float targetX, float targetY, uint32_t duration, EaseType_t easeType, bool enablePrevMutiUseCalling)
{
 8003c98:	b580      	push	{r7, lr}
 8003c9a:	b08a      	sub	sp, #40	@ 0x28
 8003c9c:	af04      	add	r7, sp, #16
 8003c9e:	60f8      	str	r0, [r7, #12]
 8003ca0:	60b9      	str	r1, [r7, #8]
 8003ca2:	607a      	str	r2, [r7, #4]
 8003ca4:	603b      	str	r3, [r7, #0]
    TaggedAnimation_t *anim = OLED_FindTaggedAnimation(manager, tag);
 8003ca6:	68b9      	ldr	r1, [r7, #8]
 8003ca8:	68f8      	ldr	r0, [r7, #12]
 8003caa:	f7ff ff06 	bl	8003aba <OLED_FindTaggedAnimation>
 8003cae:	6178      	str	r0, [r7, #20]
    if (enablePrevMutiUseCalling)
 8003cb0:	f897 3028 	ldrb.w	r3, [r7, #40]	@ 0x28
 8003cb4:	2b00      	cmp	r3, #0
 8003cb6:	d01a      	beq.n	8003cee <OLED_DoTweenObject+0x56>
    {
        if (anim && !(anim->isActive)) // 找到了动画，而且它不是正在tween的时候
 8003cb8:	697b      	ldr	r3, [r7, #20]
 8003cba:	2b00      	cmp	r3, #0
 8003cbc:	d03f      	beq.n	8003d3e <OLED_DoTweenObject+0xa6>
 8003cbe:	697b      	ldr	r3, [r7, #20]
 8003cc0:	f893 3040 	ldrb.w	r3, [r3, #64]	@ 0x40
 8003cc4:	2b00      	cmp	r3, #0
 8003cc6:	d13a      	bne.n	8003d3e <OLED_DoTweenObject+0xa6>
        {
            OLED_MoveObject(manager, tag, anim->currentX, anim->currentY, targetX, targetY, duration, easeType);
 8003cc8:	697b      	ldr	r3, [r7, #20]
 8003cca:	6c5a      	ldr	r2, [r3, #68]	@ 0x44
 8003ccc:	697b      	ldr	r3, [r7, #20]
 8003cce:	6c99      	ldr	r1, [r3, #72]	@ 0x48
 8003cd0:	f897 3024 	ldrb.w	r3, [r7, #36]	@ 0x24
 8003cd4:	9303      	str	r3, [sp, #12]
 8003cd6:	6a3b      	ldr	r3, [r7, #32]
 8003cd8:	9302      	str	r3, [sp, #8]
 8003cda:	683b      	ldr	r3, [r7, #0]
 8003cdc:	9301      	str	r3, [sp, #4]
 8003cde:	687b      	ldr	r3, [r7, #4]
 8003ce0:	9300      	str	r3, [sp, #0]
 8003ce2:	460b      	mov	r3, r1
 8003ce4:	68b9      	ldr	r1, [r7, #8]
 8003ce6:	68f8      	ldr	r0, [r7, #12]
 8003ce8:	f7ff ff35 	bl	8003b56 <OLED_MoveObject>
        if (anim && (anim->currentX != targetX || anim->currentY != targetY))
        {
            OLED_MoveObject(manager, tag, anim->currentX, anim->currentY, targetX, targetY, duration, easeType);
        }
    }
}
 8003cec:	e027      	b.n	8003d3e <OLED_DoTweenObject+0xa6>
        if (anim && (anim->currentX != targetX || anim->currentY != targetY))
 8003cee:	697b      	ldr	r3, [r7, #20]
 8003cf0:	2b00      	cmp	r3, #0
 8003cf2:	d024      	beq.n	8003d3e <OLED_DoTweenObject+0xa6>
 8003cf4:	697b      	ldr	r3, [r7, #20]
 8003cf6:	6c5b      	ldr	r3, [r3, #68]	@ 0x44
 8003cf8:	4619      	mov	r1, r3
 8003cfa:	6878      	ldr	r0, [r7, #4]
 8003cfc:	f7fc fcda 	bl	80006b4 <__aeabi_fcmpeq>
 8003d00:	4603      	mov	r3, r0
 8003d02:	2b00      	cmp	r3, #0
 8003d04:	d009      	beq.n	8003d1a <OLED_DoTweenObject+0x82>
 8003d06:	697b      	ldr	r3, [r7, #20]
 8003d08:	6c9b      	ldr	r3, [r3, #72]	@ 0x48
 8003d0a:	4619      	mov	r1, r3
 8003d0c:	6838      	ldr	r0, [r7, #0]
 8003d0e:	f7fc fcd1 	bl	80006b4 <__aeabi_fcmpeq>
 8003d12:	4603      	mov	r3, r0
 8003d14:	2b00      	cmp	r3, #0
 8003d16:	d000      	beq.n	8003d1a <OLED_DoTweenObject+0x82>
}
 8003d18:	e011      	b.n	8003d3e <OLED_DoTweenObject+0xa6>
            OLED_MoveObject(manager, tag, anim->currentX, anim->currentY, targetX, targetY, duration, easeType);
 8003d1a:	697b      	ldr	r3, [r7, #20]
 8003d1c:	6c5a      	ldr	r2, [r3, #68]	@ 0x44
 8003d1e:	697b      	ldr	r3, [r7, #20]
 8003d20:	6c99      	ldr	r1, [r3, #72]	@ 0x48
 8003d22:	f897 3024 	ldrb.w	r3, [r7, #36]	@ 0x24
 8003d26:	9303      	str	r3, [sp, #12]
 8003d28:	6a3b      	ldr	r3, [r7, #32]
 8003d2a:	9302      	str	r3, [sp, #8]
 8003d2c:	683b      	ldr	r3, [r7, #0]
 8003d2e:	9301      	str	r3, [sp, #4]
 8003d30:	687b      	ldr	r3, [r7, #4]
 8003d32:	9300      	str	r3, [sp, #0]
 8003d34:	460b      	mov	r3, r1
 8003d36:	68b9      	ldr	r1, [r7, #8]
 8003d38:	68f8      	ldr	r0, [r7, #12]
 8003d3a:	f7ff ff0c 	bl	8003b56 <OLED_MoveObject>
}
 8003d3e:	bf00      	nop
 8003d40:	3718      	adds	r7, #24
 8003d42:	46bd      	mov	sp, r7
 8003d44:	bd80      	pop	{r7, pc}

08003d46 <OLED_DrawTitleBar>:

#pragma region OLED_EPICFUL_UI

// 绘制UI标题栏
void OLED_DrawTitleBar(char *title) // 确保标题长度不超过22个字符 //! UPDATEDISPLAY REQUIRED
{
 8003d46:	b580      	push	{r7, lr}
 8003d48:	b086      	sub	sp, #24
 8003d4a:	af02      	add	r7, sp, #8
 8003d4c:	6078      	str	r0, [r7, #4]
    unsigned char titleLength = strlen(title) * 6;
 8003d4e:	6878      	ldr	r0, [r7, #4]
 8003d50:	f7fc fa06 	bl	8000160 <strlen>
 8003d54:	4603      	mov	r3, r0
 8003d56:	b2db      	uxtb	r3, r3
 8003d58:	461a      	mov	r2, r3
 8003d5a:	0052      	lsls	r2, r2, #1
 8003d5c:	4413      	add	r3, r2
 8003d5e:	005b      	lsls	r3, r3, #1
 8003d60:	73fb      	strb	r3, [r7, #15]

    // 绘制标题栏背景 (白色填充)
    OLED_DrawFilledRectangle(0, 0, OLED_WIDTH, 8, 1);
 8003d62:	2301      	movs	r3, #1
 8003d64:	9300      	str	r3, [sp, #0]
 8003d66:	2308      	movs	r3, #8
 8003d68:	2280      	movs	r2, #128	@ 0x80
 8003d6a:	2100      	movs	r1, #0
 8003d6c:	2000      	movs	r0, #0
 8003d6e:	f000 f810 	bl	8003d92 <OLED_DrawFilledRectangle>

    // 显示标题 (黑底白字，反色效果)
    OLED_DisplayStringInverted((OLED_WIDTH - titleLength) / 2, 0, title, 1);
 8003d72:	7bfb      	ldrb	r3, [r7, #15]
 8003d74:	f1c3 0380 	rsb	r3, r3, #128	@ 0x80
 8003d78:	0fda      	lsrs	r2, r3, #31
 8003d7a:	4413      	add	r3, r2
 8003d7c:	105b      	asrs	r3, r3, #1
 8003d7e:	b218      	sxth	r0, r3
 8003d80:	2301      	movs	r3, #1
 8003d82:	687a      	ldr	r2, [r7, #4]
 8003d84:	2100      	movs	r1, #0
 8003d86:	f7fd fc26 	bl	80015d6 <OLED_DisplayStringInverted>
}
 8003d8a:	bf00      	nop
 8003d8c:	3710      	adds	r7, #16
 8003d8e:	46bd      	mov	sp, r7
 8003d90:	bd80      	pop	{r7, pc}

08003d92 <OLED_DrawFilledRectangle>:
    }
}

// 绘制填充矩形
void OLED_DrawFilledRectangle(int16_t x, int16_t y, uint8_t width, uint8_t height, uint8_t color) //! UPDATEDISPLAY REQUIRED
{
 8003d92:	b590      	push	{r4, r7, lr}
 8003d94:	b087      	sub	sp, #28
 8003d96:	af00      	add	r7, sp, #0
 8003d98:	4604      	mov	r4, r0
 8003d9a:	4608      	mov	r0, r1
 8003d9c:	4611      	mov	r1, r2
 8003d9e:	461a      	mov	r2, r3
 8003da0:	4623      	mov	r3, r4
 8003da2:	80fb      	strh	r3, [r7, #6]
 8003da4:	4603      	mov	r3, r0
 8003da6:	80bb      	strh	r3, [r7, #4]
 8003da8:	460b      	mov	r3, r1
 8003daa:	70fb      	strb	r3, [r7, #3]
 8003dac:	4613      	mov	r3, r2
 8003dae:	70bb      	strb	r3, [r7, #2]
    // Initial check for zero dimensions
    if (width == 0 || height == 0)
 8003db0:	78fb      	ldrb	r3, [r7, #3]
 8003db2:	2b00      	cmp	r3, #0
 8003db4:	d07e      	beq.n	8003eb4 <OLED_DrawFilledRectangle+0x122>
 8003db6:	78bb      	ldrb	r3, [r7, #2]
 8003db8:	2b00      	cmp	r3, #0
 8003dba:	d07b      	beq.n	8003eb4 <OLED_DrawFilledRectangle+0x122>
    {
        return;
    }

    // Use int16_t for width and height internally for clipping calculations
    int16_t current_width = width;
 8003dbc:	78fb      	ldrb	r3, [r7, #3]
 8003dbe:	82fb      	strh	r3, [r7, #22]
    int16_t current_height = height;
 8003dc0:	78bb      	ldrb	r3, [r7, #2]
 8003dc2:	82bb      	strh	r3, [r7, #20]

    // Clip left edge: if x is negative, adjust width and set x to 0
    if (x < 0)
 8003dc4:	f9b7 3006 	ldrsh.w	r3, [r7, #6]
 8003dc8:	2b00      	cmp	r3, #0
 8003dca:	da06      	bge.n	8003dda <OLED_DrawFilledRectangle+0x48>
    {
        current_width += x; // x is negative, so this reduces width
 8003dcc:	8afa      	ldrh	r2, [r7, #22]
 8003dce:	88fb      	ldrh	r3, [r7, #6]
 8003dd0:	4413      	add	r3, r2
 8003dd2:	b29b      	uxth	r3, r3
 8003dd4:	82fb      	strh	r3, [r7, #22]
        x = 0;
 8003dd6:	2300      	movs	r3, #0
 8003dd8:	80fb      	strh	r3, [r7, #6]
    }

    // Clip top edge: if y is negative, adjust height and set y to 0
    if (y < 0)
 8003dda:	f9b7 3004 	ldrsh.w	r3, [r7, #4]
 8003dde:	2b00      	cmp	r3, #0
 8003de0:	da06      	bge.n	8003df0 <OLED_DrawFilledRectangle+0x5e>
    {
        current_height += y; // y is negative, so this reduces height
 8003de2:	8aba      	ldrh	r2, [r7, #20]
 8003de4:	88bb      	ldrh	r3, [r7, #4]
 8003de6:	4413      	add	r3, r2
 8003de8:	b29b      	uxth	r3, r3
 8003dea:	82bb      	strh	r3, [r7, #20]
        y = 0;
 8003dec:	2300      	movs	r3, #0
 8003dee:	80bb      	strh	r3, [r7, #4]
    }

    // If width or height became non-positive after left/top clipping, nothing to draw
    if (current_width <= 0 || current_height <= 0)
 8003df0:	f9b7 3016 	ldrsh.w	r3, [r7, #22]
 8003df4:	2b00      	cmp	r3, #0
 8003df6:	dd5f      	ble.n	8003eb8 <OLED_DrawFilledRectangle+0x126>
 8003df8:	f9b7 3014 	ldrsh.w	r3, [r7, #20]
 8003dfc:	2b00      	cmp	r3, #0
 8003dfe:	dd5b      	ble.n	8003eb8 <OLED_DrawFilledRectangle+0x126>
        return;
    }

    // Check if the adjusted rectangle is entirely off-screen to the right or bottom
    // At this point, x and y are >= 0.
    if (x >= OLED_WIDTH || y >= OLED_HEIGHT)
 8003e00:	f9b7 3006 	ldrsh.w	r3, [r7, #6]
 8003e04:	2b7f      	cmp	r3, #127	@ 0x7f
 8003e06:	dc59      	bgt.n	8003ebc <OLED_DrawFilledRectangle+0x12a>
 8003e08:	f9b7 3004 	ldrsh.w	r3, [r7, #4]
 8003e0c:	2b3f      	cmp	r3, #63	@ 0x3f
 8003e0e:	dc55      	bgt.n	8003ebc <OLED_DrawFilledRectangle+0x12a>
    {
        return;
    }

    // Clip right edge: if x + current_width extends beyond OLED_WIDTH
    if (x + current_width > OLED_WIDTH)
 8003e10:	f9b7 2006 	ldrsh.w	r2, [r7, #6]
 8003e14:	f9b7 3016 	ldrsh.w	r3, [r7, #22]
 8003e18:	4413      	add	r3, r2
 8003e1a:	2b80      	cmp	r3, #128	@ 0x80
 8003e1c:	dd04      	ble.n	8003e28 <OLED_DrawFilledRectangle+0x96>
    {
        current_width = OLED_WIDTH - x;
 8003e1e:	88fb      	ldrh	r3, [r7, #6]
 8003e20:	f1c3 0380 	rsb	r3, r3, #128	@ 0x80
 8003e24:	b29b      	uxth	r3, r3
 8003e26:	82fb      	strh	r3, [r7, #22]
    }

    // Clip bottom edge: if y + current_height extends beyond OLED_HEIGHT
    if (y + current_height > OLED_HEIGHT)
 8003e28:	f9b7 2004 	ldrsh.w	r2, [r7, #4]
 8003e2c:	f9b7 3014 	ldrsh.w	r3, [r7, #20]
 8003e30:	4413      	add	r3, r2
 8003e32:	2b40      	cmp	r3, #64	@ 0x40
 8003e34:	dd04      	ble.n	8003e40 <OLED_DrawFilledRectangle+0xae>
    {
        current_height = OLED_HEIGHT - y;
 8003e36:	88bb      	ldrh	r3, [r7, #4]
 8003e38:	f1c3 0340 	rsb	r3, r3, #64	@ 0x40
 8003e3c:	b29b      	uxth	r3, r3
 8003e3e:	82bb      	strh	r3, [r7, #20]
    }

    // If width or height became non-positive after right/bottom clipping, nothing to draw
    if (current_width <= 0 || current_height <= 0)
 8003e40:	f9b7 3016 	ldrsh.w	r3, [r7, #22]
 8003e44:	2b00      	cmp	r3, #0
 8003e46:	dd3b      	ble.n	8003ec0 <OLED_DrawFilledRectangle+0x12e>
 8003e48:	f9b7 3014 	ldrsh.w	r3, [r7, #20]
 8003e4c:	2b00      	cmp	r3, #0
 8003e4e:	dd37      	ble.n	8003ec0 <OLED_DrawFilledRectangle+0x12e>
    {
        return;
    }

    // Cast coordinates and dimensions to uint8_t for drawing
    uint8_t final_x = (uint8_t)x;
 8003e50:	88fb      	ldrh	r3, [r7, #6]
 8003e52:	747b      	strb	r3, [r7, #17]
    uint8_t final_y = (uint8_t)y;
 8003e54:	88bb      	ldrh	r3, [r7, #4]
 8003e56:	743b      	strb	r3, [r7, #16]
    uint8_t final_width = (uint8_t)current_width;
 8003e58:	8afb      	ldrh	r3, [r7, #22]
 8003e5a:	73fb      	strb	r3, [r7, #15]
    uint8_t final_height = (uint8_t)current_height;
 8003e5c:	8abb      	ldrh	r3, [r7, #20]
 8003e5e:	73bb      	strb	r3, [r7, #14]

    uint8_t x2 = final_x + final_width - 1;
 8003e60:	7c7a      	ldrb	r2, [r7, #17]
 8003e62:	7bfb      	ldrb	r3, [r7, #15]
 8003e64:	4413      	add	r3, r2
 8003e66:	b2db      	uxtb	r3, r3
 8003e68:	3b01      	subs	r3, #1
 8003e6a:	737b      	strb	r3, [r7, #13]
    uint8_t y2 = final_y + final_height - 1;
 8003e6c:	7c3a      	ldrb	r2, [r7, #16]
 8003e6e:	7bbb      	ldrb	r3, [r7, #14]
 8003e70:	4413      	add	r3, r2
 8003e72:	b2db      	uxtb	r3, r3
 8003e74:	3b01      	subs	r3, #1
 8003e76:	733b      	strb	r3, [r7, #12]

    // 逐像素填充
    for (uint8_t j = final_y; j <= y2; j++)
 8003e78:	7c3b      	ldrb	r3, [r7, #16]
 8003e7a:	74fb      	strb	r3, [r7, #19]
 8003e7c:	e015      	b.n	8003eaa <OLED_DrawFilledRectangle+0x118>
    {
        for (uint8_t i = final_x; i <= x2; i++)
 8003e7e:	7c7b      	ldrb	r3, [r7, #17]
 8003e80:	74bb      	strb	r3, [r7, #18]
 8003e82:	e00b      	b.n	8003e9c <OLED_DrawFilledRectangle+0x10a>
        {
            OLED_WritePixel(i, j, color);
 8003e84:	7cbb      	ldrb	r3, [r7, #18]
 8003e86:	b21b      	sxth	r3, r3
 8003e88:	7cfa      	ldrb	r2, [r7, #19]
 8003e8a:	b211      	sxth	r1, r2
 8003e8c:	f897 2028 	ldrb.w	r2, [r7, #40]	@ 0x28
 8003e90:	4618      	mov	r0, r3
 8003e92:	f7fd f833 	bl	8000efc <OLED_WritePixel>
        for (uint8_t i = final_x; i <= x2; i++)
 8003e96:	7cbb      	ldrb	r3, [r7, #18]
 8003e98:	3301      	adds	r3, #1
 8003e9a:	74bb      	strb	r3, [r7, #18]
 8003e9c:	7cba      	ldrb	r2, [r7, #18]
 8003e9e:	7b7b      	ldrb	r3, [r7, #13]
 8003ea0:	429a      	cmp	r2, r3
 8003ea2:	d9ef      	bls.n	8003e84 <OLED_DrawFilledRectangle+0xf2>
    for (uint8_t j = final_y; j <= y2; j++)
 8003ea4:	7cfb      	ldrb	r3, [r7, #19]
 8003ea6:	3301      	adds	r3, #1
 8003ea8:	74fb      	strb	r3, [r7, #19]
 8003eaa:	7cfa      	ldrb	r2, [r7, #19]
 8003eac:	7b3b      	ldrb	r3, [r7, #12]
 8003eae:	429a      	cmp	r2, r3
 8003eb0:	d9e5      	bls.n	8003e7e <OLED_DrawFilledRectangle+0xec>
 8003eb2:	e006      	b.n	8003ec2 <OLED_DrawFilledRectangle+0x130>
        return;
 8003eb4:	bf00      	nop
 8003eb6:	e004      	b.n	8003ec2 <OLED_DrawFilledRectangle+0x130>
        return;
 8003eb8:	bf00      	nop
 8003eba:	e002      	b.n	8003ec2 <OLED_DrawFilledRectangle+0x130>
        return;
 8003ebc:	bf00      	nop
 8003ebe:	e000      	b.n	8003ec2 <OLED_DrawFilledRectangle+0x130>
        return;
 8003ec0:	bf00      	nop
        }
    }
}
 8003ec2:	371c      	adds	r7, #28
 8003ec4:	46bd      	mov	sp, r7
 8003ec6:	bd90      	pop	{r4, r7, pc}

08003ec8 <HAL_MspInit>:
/* USER CODE END 0 */
/**
  * Initializes the Global MSP.
  */
void HAL_MspInit(void)
{
 8003ec8:	b480      	push	{r7}
 8003eca:	b085      	sub	sp, #20
 8003ecc:	af00      	add	r7, sp, #0

  /* USER CODE BEGIN MspInit 0 */

  /* USER CODE END MspInit 0 */

  __HAL_RCC_AFIO_CLK_ENABLE();
 8003ece:	4b15      	ldr	r3, [pc, #84]	@ (8003f24 <HAL_MspInit+0x5c>)
 8003ed0:	699b      	ldr	r3, [r3, #24]
 8003ed2:	4a14      	ldr	r2, [pc, #80]	@ (8003f24 <HAL_MspInit+0x5c>)
 8003ed4:	f043 0301 	orr.w	r3, r3, #1
 8003ed8:	6193      	str	r3, [r2, #24]
 8003eda:	4b12      	ldr	r3, [pc, #72]	@ (8003f24 <HAL_MspInit+0x5c>)
 8003edc:	699b      	ldr	r3, [r3, #24]
 8003ede:	f003 0301 	and.w	r3, r3, #1
 8003ee2:	60bb      	str	r3, [r7, #8]
 8003ee4:	68bb      	ldr	r3, [r7, #8]
  __HAL_RCC_PWR_CLK_ENABLE();
 8003ee6:	4b0f      	ldr	r3, [pc, #60]	@ (8003f24 <HAL_MspInit+0x5c>)
 8003ee8:	69db      	ldr	r3, [r3, #28]
 8003eea:	4a0e      	ldr	r2, [pc, #56]	@ (8003f24 <HAL_MspInit+0x5c>)
 8003eec:	f043 5380 	orr.w	r3, r3, #268435456	@ 0x10000000
 8003ef0:	61d3      	str	r3, [r2, #28]
 8003ef2:	4b0c      	ldr	r3, [pc, #48]	@ (8003f24 <HAL_MspInit+0x5c>)
 8003ef4:	69db      	ldr	r3, [r3, #28]
 8003ef6:	f003 5380 	and.w	r3, r3, #268435456	@ 0x10000000
 8003efa:	607b      	str	r3, [r7, #4]
 8003efc:	687b      	ldr	r3, [r7, #4]

  /* System interrupt init*/

  /** NOJTAG: JTAG-DP Disabled and SW-DP Enabled
  */
  __HAL_AFIO_REMAP_SWJ_NOJTAG();
 8003efe:	4b0a      	ldr	r3, [pc, #40]	@ (8003f28 <HAL_MspInit+0x60>)
 8003f00:	685b      	ldr	r3, [r3, #4]
 8003f02:	60fb      	str	r3, [r7, #12]
 8003f04:	68fb      	ldr	r3, [r7, #12]
 8003f06:	f023 63e0 	bic.w	r3, r3, #117440512	@ 0x7000000
 8003f0a:	60fb      	str	r3, [r7, #12]
 8003f0c:	68fb      	ldr	r3, [r7, #12]
 8003f0e:	f043 7300 	orr.w	r3, r3, #33554432	@ 0x2000000
 8003f12:	60fb      	str	r3, [r7, #12]
 8003f14:	4a04      	ldr	r2, [pc, #16]	@ (8003f28 <HAL_MspInit+0x60>)
 8003f16:	68fb      	ldr	r3, [r7, #12]
 8003f18:	6053      	str	r3, [r2, #4]

  /* USER CODE BEGIN MspInit 1 */

  /* USER CODE END MspInit 1 */
}
 8003f1a:	bf00      	nop
 8003f1c:	3714      	adds	r7, #20
 8003f1e:	46bd      	mov	sp, r7
 8003f20:	bc80      	pop	{r7}
 8003f22:	4770      	bx	lr
 8003f24:	40021000 	.word	0x40021000
 8003f28:	40010000 	.word	0x40010000

08003f2c <NMI_Handler>:
/******************************************************************************/
/**
  * @brief This function handles Non maskable interrupt.
  */
void NMI_Handler(void)
{
 8003f2c:	b480      	push	{r7}
 8003f2e:	af00      	add	r7, sp, #0
  /* USER CODE BEGIN NonMaskableInt_IRQn 0 */

  /* USER CODE END NonMaskableInt_IRQn 0 */
  /* USER CODE BEGIN NonMaskableInt_IRQn 1 */
   while (1)
 8003f30:	bf00      	nop
 8003f32:	e7fd      	b.n	8003f30 <NMI_Handler+0x4>

08003f34 <HardFault_Handler>:

/**
  * @brief This function handles Hard fault interrupt.
  */
void HardFault_Handler(void)
{
 8003f34:	b480      	push	{r7}
 8003f36:	af00      	add	r7, sp, #0
  /* USER CODE BEGIN HardFault_IRQn 0 */

  /* USER CODE END HardFault_IRQn 0 */
  while (1)
 8003f38:	bf00      	nop
 8003f3a:	e7fd      	b.n	8003f38 <HardFault_Handler+0x4>

08003f3c <MemManage_Handler>:

/**
  * @brief This function handles Memory management fault.
  */
void MemManage_Handler(void)
{
 8003f3c:	b480      	push	{r7}
 8003f3e:	af00      	add	r7, sp, #0
  /* USER CODE BEGIN MemoryManagement_IRQn 0 */

  /* USER CODE END MemoryManagement_IRQn 0 */
  while (1)
 8003f40:	bf00      	nop
 8003f42:	e7fd      	b.n	8003f40 <MemManage_Handler+0x4>

08003f44 <BusFault_Handler>:

/**
  * @brief This function handles Prefetch fault, memory access fault.
  */
void BusFault_Handler(void)
{
 8003f44:	b480      	push	{r7}
 8003f46:	af00      	add	r7, sp, #0
  /* USER CODE BEGIN BusFault_IRQn 0 */

  /* USER CODE END BusFault_IRQn 0 */
  while (1)
 8003f48:	bf00      	nop
 8003f4a:	e7fd      	b.n	8003f48 <BusFault_Handler+0x4>

08003f4c <UsageFault_Handler>:

/**
  * @brief This function handles Undefined instruction or illegal state.
  */
void UsageFault_Handler(void)
{
 8003f4c:	b480      	push	{r7}
 8003f4e:	af00      	add	r7, sp, #0
  /* USER CODE BEGIN UsageFault_IRQn 0 */

  /* USER CODE END UsageFault_IRQn 0 */
  while (1)
 8003f50:	bf00      	nop
 8003f52:	e7fd      	b.n	8003f50 <UsageFault_Handler+0x4>

08003f54 <SVC_Handler>:

/**
  * @brief This function handles System service call via SWI instruction.
  */
void SVC_Handler(void)
{
 8003f54:	b480      	push	{r7}
 8003f56:	af00      	add	r7, sp, #0

  /* USER CODE END SVCall_IRQn 0 */
  /* USER CODE BEGIN SVCall_IRQn 1 */

  /* USER CODE END SVCall_IRQn 1 */
}
 8003f58:	bf00      	nop
 8003f5a:	46bd      	mov	sp, r7
 8003f5c:	bc80      	pop	{r7}
 8003f5e:	4770      	bx	lr

08003f60 <DebugMon_Handler>:

/**
  * @brief This function handles Debug monitor.
  */
void DebugMon_Handler(void)
{
 8003f60:	b480      	push	{r7}
 8003f62:	af00      	add	r7, sp, #0

  /* USER CODE END DebugMonitor_IRQn 0 */
  /* USER CODE BEGIN DebugMonitor_IRQn 1 */

  /* USER CODE END DebugMonitor_IRQn 1 */
}
 8003f64:	bf00      	nop
 8003f66:	46bd      	mov	sp, r7
 8003f68:	bc80      	pop	{r7}
 8003f6a:	4770      	bx	lr

08003f6c <PendSV_Handler>:

/**
  * @brief This function handles Pendable request for system service.
  */
void PendSV_Handler(void)
{
 8003f6c:	b480      	push	{r7}
 8003f6e:	af00      	add	r7, sp, #0

  /* USER CODE END PendSV_IRQn 0 */
  /* USER CODE BEGIN PendSV_IRQn 1 */

  /* USER CODE END PendSV_IRQn 1 */
}
 8003f70:	bf00      	nop
 8003f72:	46bd      	mov	sp, r7
 8003f74:	bc80      	pop	{r7}
 8003f76:	4770      	bx	lr

08003f78 <SysTick_Handler>:

/**
  * @brief This function handles System tick timer.
  */
void SysTick_Handler(void)
{
 8003f78:	b580      	push	{r7, lr}
 8003f7a:	af00      	add	r7, sp, #0
  /* USER CODE BEGIN SysTick_IRQn 0 */

  /* USER CODE END SysTick_IRQn 0 */
  HAL_IncTick();
 8003f7c:	f000 fa4e 	bl	800441c <HAL_IncTick>
  /* USER CODE BEGIN SysTick_IRQn 1 */

  /* USER CODE END SysTick_IRQn 1 */
}
 8003f80:	bf00      	nop
 8003f82:	bd80      	pop	{r7, pc}

08003f84 <DMA1_Channel6_IRQHandler>:

/**
  * @brief This function handles DMA1 channel6 global interrupt.
  */
void DMA1_Channel6_IRQHandler(void)
{
 8003f84:	b580      	push	{r7, lr}
 8003f86:	af00      	add	r7, sp, #0
  /* USER CODE BEGIN DMA1_Channel6_IRQn 0 */

  /* USER CODE END DMA1_Channel6_IRQn 0 */
  HAL_DMA_IRQHandler(&hdma_i2c1_tx);
 8003f88:	4802      	ldr	r0, [pc, #8]	@ (8003f94 <DMA1_Channel6_IRQHandler+0x10>)
 8003f8a:	f000 fbef 	bl	800476c <HAL_DMA_IRQHandler>
  /* USER CODE BEGIN DMA1_Channel6_IRQn 1 */

  /* USER CODE END DMA1_Channel6_IRQn 1 */
}
 8003f8e:	bf00      	nop
 8003f90:	bd80      	pop	{r7, pc}
 8003f92:	bf00      	nop
 8003f94:	20000138 	.word	0x20000138

08003f98 <_sbrk>:
 *
 * @param incr Memory size
 * @return Pointer to allocated memory
 */
void *_sbrk(ptrdiff_t incr)
{
 8003f98:	b580      	push	{r7, lr}
 8003f9a:	b086      	sub	sp, #24
 8003f9c:	af00      	add	r7, sp, #0
 8003f9e:	6078      	str	r0, [r7, #4]
  extern uint8_t _end; /* Symbol defined in the linker script */
  extern uint8_t _estack; /* Symbol defined in the linker script */
  extern uint32_t _Min_Stack_Size; /* Symbol defined in the linker script */
  const uint32_t stack_limit = (uint32_t)&_estack - (uint32_t)&_Min_Stack_Size;
 8003fa0:	4a14      	ldr	r2, [pc, #80]	@ (8003ff4 <_sbrk+0x5c>)
 8003fa2:	4b15      	ldr	r3, [pc, #84]	@ (8003ff8 <_sbrk+0x60>)
 8003fa4:	1ad3      	subs	r3, r2, r3
 8003fa6:	617b      	str	r3, [r7, #20]
  const uint8_t *max_heap = (uint8_t *)stack_limit;
 8003fa8:	697b      	ldr	r3, [r7, #20]
 8003faa:	613b      	str	r3, [r7, #16]
  uint8_t *prev_heap_end;

  /* Initialize heap end at first call */
  if (NULL == __sbrk_heap_end)
 8003fac:	4b13      	ldr	r3, [pc, #76]	@ (8003ffc <_sbrk+0x64>)
 8003fae:	681b      	ldr	r3, [r3, #0]
 8003fb0:	2b00      	cmp	r3, #0
 8003fb2:	d102      	bne.n	8003fba <_sbrk+0x22>
  {
    __sbrk_heap_end = &_end;
 8003fb4:	4b11      	ldr	r3, [pc, #68]	@ (8003ffc <_sbrk+0x64>)
 8003fb6:	4a12      	ldr	r2, [pc, #72]	@ (8004000 <_sbrk+0x68>)
 8003fb8:	601a      	str	r2, [r3, #0]
  }

  /* Protect heap from growing into the reserved MSP stack */
  if (__sbrk_heap_end + incr > max_heap)
 8003fba:	4b10      	ldr	r3, [pc, #64]	@ (8003ffc <_sbrk+0x64>)
 8003fbc:	681a      	ldr	r2, [r3, #0]
 8003fbe:	687b      	ldr	r3, [r7, #4]
 8003fc0:	4413      	add	r3, r2
 8003fc2:	693a      	ldr	r2, [r7, #16]
 8003fc4:	429a      	cmp	r2, r3
 8003fc6:	d207      	bcs.n	8003fd8 <_sbrk+0x40>
  {
    errno = ENOMEM;
 8003fc8:	f002 fec4 	bl	8006d54 <__errno>
 8003fcc:	4603      	mov	r3, r0
 8003fce:	220c      	movs	r2, #12
 8003fd0:	601a      	str	r2, [r3, #0]
    return (void *)-1;
 8003fd2:	f04f 33ff 	mov.w	r3, #4294967295
 8003fd6:	e009      	b.n	8003fec <_sbrk+0x54>
  }

  prev_heap_end = __sbrk_heap_end;
 8003fd8:	4b08      	ldr	r3, [pc, #32]	@ (8003ffc <_sbrk+0x64>)
 8003fda:	681b      	ldr	r3, [r3, #0]
 8003fdc:	60fb      	str	r3, [r7, #12]
  __sbrk_heap_end += incr;
 8003fde:	4b07      	ldr	r3, [pc, #28]	@ (8003ffc <_sbrk+0x64>)
 8003fe0:	681a      	ldr	r2, [r3, #0]
 8003fe2:	687b      	ldr	r3, [r7, #4]
 8003fe4:	4413      	add	r3, r2
 8003fe6:	4a05      	ldr	r2, [pc, #20]	@ (8003ffc <_sbrk+0x64>)
 8003fe8:	6013      	str	r3, [r2, #0]

  return (void *)prev_heap_end;
 8003fea:	68fb      	ldr	r3, [r7, #12]
}
 8003fec:	4618      	mov	r0, r3
 8003fee:	3718      	adds	r7, #24
 8003ff0:	46bd      	mov	sp, r7
 8003ff2:	bd80      	pop	{r7, pc}
 8003ff4:	20005000 	.word	0x20005000
 8003ff8:	00000400 	.word	0x00000400
 8003ffc:	20003d44 	.word	0x20003d44
 8004000:	20003f28 	.word	0x20003f28

08004004 <SystemInit>:
  * @note   This function should be used only after reset.
  * @param  None
  * @retval None
  */
void SystemInit (void)
{
 8004004:	b480      	push	{r7}
 8004006:	af00      	add	r7, sp, #0

  /* Configure the Vector Table location -------------------------------------*/
#if defined(USER_VECT_TAB_ADDRESS)
  SCB->VTOR = VECT_TAB_BASE_ADDRESS | VECT_TAB_OFFSET; /* Vector Table Relocation in Internal SRAM. */
#endif /* USER_VECT_TAB_ADDRESS */
}
 8004008:	bf00      	nop
 800400a:	46bd      	mov	sp, r7
 800400c:	bc80      	pop	{r7}
 800400e:	4770      	bx	lr

08004010 <MX_TIM1_Init>:
TIM_HandleTypeDef htim1;
TIM_HandleTypeDef htim3;

/* TIM1 init function */
void MX_TIM1_Init(void)
{
 8004010:	b580      	push	{r7, lr}
 8004012:	b096      	sub	sp, #88	@ 0x58
 8004014:	af00      	add	r7, sp, #0

  /* USER CODE BEGIN TIM1_Init 0 */

  /* USER CODE END TIM1_Init 0 */

  TIM_ClockConfigTypeDef sClockSourceConfig = {0};
 8004016:	f107 0348 	add.w	r3, r7, #72	@ 0x48
 800401a:	2200      	movs	r2, #0
 800401c:	601a      	str	r2, [r3, #0]
 800401e:	605a      	str	r2, [r3, #4]
 8004020:	609a      	str	r2, [r3, #8]
 8004022:	60da      	str	r2, [r3, #12]
  TIM_MasterConfigTypeDef sMasterConfig = {0};
 8004024:	f107 0340 	add.w	r3, r7, #64	@ 0x40
 8004028:	2200      	movs	r2, #0
 800402a:	601a      	str	r2, [r3, #0]
 800402c:	605a      	str	r2, [r3, #4]
  TIM_OC_InitTypeDef sConfigOC = {0};
 800402e:	f107 0324 	add.w	r3, r7, #36	@ 0x24
 8004032:	2200      	movs	r2, #0
 8004034:	601a      	str	r2, [r3, #0]
 8004036:	605a      	str	r2, [r3, #4]
 8004038:	609a      	str	r2, [r3, #8]
 800403a:	60da      	str	r2, [r3, #12]
 800403c:	611a      	str	r2, [r3, #16]
 800403e:	615a      	str	r2, [r3, #20]
 8004040:	619a      	str	r2, [r3, #24]
  TIM_BreakDeadTimeConfigTypeDef sBreakDeadTimeConfig = {0};
 8004042:	1d3b      	adds	r3, r7, #4
 8004044:	2220      	movs	r2, #32
 8004046:	2100      	movs	r1, #0
 8004048:	4618      	mov	r0, r3
 800404a:	f002 fe67 	bl	8006d1c <memset>

  /* USER CODE BEGIN TIM1_Init 1 */

  /* USER CODE END TIM1_Init 1 */
  htim1.Instance = TIM1;
 800404e:	4b3f      	ldr	r3, [pc, #252]	@ (800414c <MX_TIM1_Init+0x13c>)
 8004050:	4a3f      	ldr	r2, [pc, #252]	@ (8004150 <MX_TIM1_Init+0x140>)
 8004052:	601a      	str	r2, [r3, #0]
  htim1.Init.Prescaler = 720-1;
 8004054:	4b3d      	ldr	r3, [pc, #244]	@ (800414c <MX_TIM1_Init+0x13c>)
 8004056:	f240 22cf 	movw	r2, #719	@ 0x2cf
 800405a:	605a      	str	r2, [r3, #4]
  htim1.Init.CounterMode = TIM_COUNTERMODE_UP;
 800405c:	4b3b      	ldr	r3, [pc, #236]	@ (800414c <MX_TIM1_Init+0x13c>)
 800405e:	2200      	movs	r2, #0
 8004060:	609a      	str	r2, [r3, #8]
  htim1.Init.Period = 2000-1;
 8004062:	4b3a      	ldr	r3, [pc, #232]	@ (800414c <MX_TIM1_Init+0x13c>)
 8004064:	f240 72cf 	movw	r2, #1999	@ 0x7cf
 8004068:	60da      	str	r2, [r3, #12]
  htim1.Init.ClockDivision = TIM_CLOCKDIVISION_DIV1;
 800406a:	4b38      	ldr	r3, [pc, #224]	@ (800414c <MX_TIM1_Init+0x13c>)
 800406c:	2200      	movs	r2, #0
 800406e:	611a      	str	r2, [r3, #16]
  htim1.Init.RepetitionCounter = 0;
 8004070:	4b36      	ldr	r3, [pc, #216]	@ (800414c <MX_TIM1_Init+0x13c>)
 8004072:	2200      	movs	r2, #0
 8004074:	615a      	str	r2, [r3, #20]
  htim1.Init.AutoReloadPreload = TIM_AUTORELOAD_PRELOAD_DISABLE;
 8004076:	4b35      	ldr	r3, [pc, #212]	@ (800414c <MX_TIM1_Init+0x13c>)
 8004078:	2200      	movs	r2, #0
 800407a:	619a      	str	r2, [r3, #24]
  if (HAL_TIM_Base_Init(&htim1) != HAL_OK)
 800407c:	4833      	ldr	r0, [pc, #204]	@ (800414c <MX_TIM1_Init+0x13c>)
 800407e:	f001 fec7 	bl	8005e10 <HAL_TIM_Base_Init>
 8004082:	4603      	mov	r3, r0
 8004084:	2b00      	cmp	r3, #0
 8004086:	d001      	beq.n	800408c <MX_TIM1_Init+0x7c>
  {
    Error_Handler();
 8004088:	f7fc fde5 	bl	8000c56 <Error_Handler>
  }
  sClockSourceConfig.ClockSource = TIM_CLOCKSOURCE_INTERNAL;
 800408c:	f44f 5380 	mov.w	r3, #4096	@ 0x1000
 8004090:	64bb      	str	r3, [r7, #72]	@ 0x48
  if (HAL_TIM_ConfigClockSource(&htim1, &sClockSourceConfig) != HAL_OK)
 8004092:	f107 0348 	add.w	r3, r7, #72	@ 0x48
 8004096:	4619      	mov	r1, r3
 8004098:	482c      	ldr	r0, [pc, #176]	@ (800414c <MX_TIM1_Init+0x13c>)
 800409a:	f002 f9f5 	bl	8006488 <HAL_TIM_ConfigClockSource>
 800409e:	4603      	mov	r3, r0
 80040a0:	2b00      	cmp	r3, #0
 80040a2:	d001      	beq.n	80040a8 <MX_TIM1_Init+0x98>
  {
    Error_Handler();
 80040a4:	f7fc fdd7 	bl	8000c56 <Error_Handler>
  }
  if (HAL_TIM_PWM_Init(&htim1) != HAL_OK)
 80040a8:	4828      	ldr	r0, [pc, #160]	@ (800414c <MX_TIM1_Init+0x13c>)
 80040aa:	f001 ff00 	bl	8005eae <HAL_TIM_PWM_Init>
 80040ae:	4603      	mov	r3, r0
 80040b0:	2b00      	cmp	r3, #0
 80040b2:	d001      	beq.n	80040b8 <MX_TIM1_Init+0xa8>
  {
    Error_Handler();
 80040b4:	f7fc fdcf 	bl	8000c56 <Error_Handler>
  }
  sMasterConfig.MasterOutputTrigger = TIM_TRGO_RESET;
 80040b8:	2300      	movs	r3, #0
 80040ba:	643b      	str	r3, [r7, #64]	@ 0x40
  sMasterConfig.MasterSlaveMode = TIM_MASTERSLAVEMODE_DISABLE;
 80040bc:	2300      	movs	r3, #0
 80040be:	647b      	str	r3, [r7, #68]	@ 0x44
  if (HAL_TIMEx_MasterConfigSynchronization(&htim1, &sMasterConfig) != HAL_OK)
 80040c0:	f107 0340 	add.w	r3, r7, #64	@ 0x40
 80040c4:	4619      	mov	r1, r3
 80040c6:	4821      	ldr	r0, [pc, #132]	@ (800414c <MX_TIM1_Init+0x13c>)
 80040c8:	f002 fd56 	bl	8006b78 <HAL_TIMEx_MasterConfigSynchronization>
 80040cc:	4603      	mov	r3, r0
 80040ce:	2b00      	cmp	r3, #0
 80040d0:	d001      	beq.n	80040d6 <MX_TIM1_Init+0xc6>
  {
    Error_Handler();
 80040d2:	f7fc fdc0 	bl	8000c56 <Error_Handler>
  }
  sConfigOC.OCMode = TIM_OCMODE_PWM1;
 80040d6:	2360      	movs	r3, #96	@ 0x60
 80040d8:	627b      	str	r3, [r7, #36]	@ 0x24
  sConfigOC.Pulse = 0;
 80040da:	2300      	movs	r3, #0
 80040dc:	62bb      	str	r3, [r7, #40]	@ 0x28
  sConfigOC.OCPolarity = TIM_OCPOLARITY_HIGH;
 80040de:	2300      	movs	r3, #0
 80040e0:	62fb      	str	r3, [r7, #44]	@ 0x2c
  sConfigOC.OCNPolarity = TIM_OCNPOLARITY_HIGH;
 80040e2:	2300      	movs	r3, #0
 80040e4:	633b      	str	r3, [r7, #48]	@ 0x30
  sConfigOC.OCFastMode = TIM_OCFAST_DISABLE;
 80040e6:	2300      	movs	r3, #0
 80040e8:	637b      	str	r3, [r7, #52]	@ 0x34
  sConfigOC.OCIdleState = TIM_OCIDLESTATE_RESET;
 80040ea:	2300      	movs	r3, #0
 80040ec:	63bb      	str	r3, [r7, #56]	@ 0x38
  sConfigOC.OCNIdleState = TIM_OCNIDLESTATE_RESET;
 80040ee:	2300      	movs	r3, #0
 80040f0:	63fb      	str	r3, [r7, #60]	@ 0x3c
  if (HAL_TIM_PWM_ConfigChannel(&htim1, &sConfigOC, TIM_CHANNEL_2) != HAL_OK)
 80040f2:	f107 0324 	add.w	r3, r7, #36	@ 0x24
 80040f6:	2204      	movs	r2, #4
 80040f8:	4619      	mov	r1, r3
 80040fa:	4814      	ldr	r0, [pc, #80]	@ (800414c <MX_TIM1_Init+0x13c>)
 80040fc:	f002 f902 	bl	8006304 <HAL_TIM_PWM_ConfigChannel>
 8004100:	4603      	mov	r3, r0
 8004102:	2b00      	cmp	r3, #0
 8004104:	d001      	beq.n	800410a <MX_TIM1_Init+0xfa>
  {
    Error_Handler();
 8004106:	f7fc fda6 	bl	8000c56 <Error_Handler>
  }
  sBreakDeadTimeConfig.OffStateRunMode = TIM_OSSR_DISABLE;
 800410a:	2300      	movs	r3, #0
 800410c:	607b      	str	r3, [r7, #4]
  sBreakDeadTimeConfig.OffStateIDLEMode = TIM_OSSI_DISABLE;
 800410e:	2300      	movs	r3, #0
 8004110:	60bb      	str	r3, [r7, #8]
  sBreakDeadTimeConfig.LockLevel = TIM_LOCKLEVEL_OFF;
 8004112:	2300      	movs	r3, #0
 8004114:	60fb      	str	r3, [r7, #12]
  sBreakDeadTimeConfig.DeadTime = 0;
 8004116:	2300      	movs	r3, #0
 8004118:	613b      	str	r3, [r7, #16]
  sBreakDeadTimeConfig.BreakState = TIM_BREAK_DISABLE;
 800411a:	2300      	movs	r3, #0
 800411c:	617b      	str	r3, [r7, #20]
  sBreakDeadTimeConfig.BreakPolarity = TIM_BREAKPOLARITY_HIGH;
 800411e:	f44f 5300 	mov.w	r3, #8192	@ 0x2000
 8004122:	61bb      	str	r3, [r7, #24]
  sBreakDeadTimeConfig.AutomaticOutput = TIM_AUTOMATICOUTPUT_DISABLE;
 8004124:	2300      	movs	r3, #0
 8004126:	623b      	str	r3, [r7, #32]
  if (HAL_TIMEx_ConfigBreakDeadTime(&htim1, &sBreakDeadTimeConfig) != HAL_OK)
 8004128:	1d3b      	adds	r3, r7, #4
 800412a:	4619      	mov	r1, r3
 800412c:	4807      	ldr	r0, [pc, #28]	@ (800414c <MX_TIM1_Init+0x13c>)
 800412e:	f002 fd81 	bl	8006c34 <HAL_TIMEx_ConfigBreakDeadTime>
 8004132:	4603      	mov	r3, r0
 8004134:	2b00      	cmp	r3, #0
 8004136:	d001      	beq.n	800413c <MX_TIM1_Init+0x12c>
  {
    Error_Handler();
 8004138:	f7fc fd8d 	bl	8000c56 <Error_Handler>
  }
  /* USER CODE BEGIN TIM1_Init 2 */

  /* USER CODE END TIM1_Init 2 */
  HAL_TIM_MspPostInit(&htim1);
 800413c:	4803      	ldr	r0, [pc, #12]	@ (800414c <MX_TIM1_Init+0x13c>)
 800413e:	f000 f8cd 	bl	80042dc <HAL_TIM_MspPostInit>

}
 8004142:	bf00      	nop
 8004144:	3758      	adds	r7, #88	@ 0x58
 8004146:	46bd      	mov	sp, r7
 8004148:	bd80      	pop	{r7, pc}
 800414a:	bf00      	nop
 800414c:	20003d48 	.word	0x20003d48
 8004150:	40012c00 	.word	0x40012c00

08004154 <MX_TIM3_Init>:
/* TIM3 init function */
void MX_TIM3_Init(void)
{
 8004154:	b580      	push	{r7, lr}
 8004156:	b08c      	sub	sp, #48	@ 0x30
 8004158:	af00      	add	r7, sp, #0

  /* USER CODE BEGIN TIM3_Init 0 */

  /* USER CODE END TIM3_Init 0 */

  TIM_Encoder_InitTypeDef sConfig = {0};
 800415a:	f107 030c 	add.w	r3, r7, #12
 800415e:	2224      	movs	r2, #36	@ 0x24
 8004160:	2100      	movs	r1, #0
 8004162:	4618      	mov	r0, r3
 8004164:	f002 fdda 	bl	8006d1c <memset>
  TIM_MasterConfigTypeDef sMasterConfig = {0};
 8004168:	1d3b      	adds	r3, r7, #4
 800416a:	2200      	movs	r2, #0
 800416c:	601a      	str	r2, [r3, #0]
 800416e:	605a      	str	r2, [r3, #4]

  /* USER CODE BEGIN TIM3_Init 1 */

  /* USER CODE END TIM3_Init 1 */
  htim3.Instance = TIM3;
 8004170:	4b20      	ldr	r3, [pc, #128]	@ (80041f4 <MX_TIM3_Init+0xa0>)
 8004172:	4a21      	ldr	r2, [pc, #132]	@ (80041f8 <MX_TIM3_Init+0xa4>)
 8004174:	601a      	str	r2, [r3, #0]
  htim3.Init.Prescaler = 0;
 8004176:	4b1f      	ldr	r3, [pc, #124]	@ (80041f4 <MX_TIM3_Init+0xa0>)
 8004178:	2200      	movs	r2, #0
 800417a:	605a      	str	r2, [r3, #4]
  htim3.Init.CounterMode = TIM_COUNTERMODE_UP;
 800417c:	4b1d      	ldr	r3, [pc, #116]	@ (80041f4 <MX_TIM3_Init+0xa0>)
 800417e:	2200      	movs	r2, #0
 8004180:	609a      	str	r2, [r3, #8]
  htim3.Init.Period = 65535;
 8004182:	4b1c      	ldr	r3, [pc, #112]	@ (80041f4 <MX_TIM3_Init+0xa0>)
 8004184:	f64f 72ff 	movw	r2, #65535	@ 0xffff
 8004188:	60da      	str	r2, [r3, #12]
  htim3.Init.ClockDivision = TIM_CLOCKDIVISION_DIV1;
 800418a:	4b1a      	ldr	r3, [pc, #104]	@ (80041f4 <MX_TIM3_Init+0xa0>)
 800418c:	2200      	movs	r2, #0
 800418e:	611a      	str	r2, [r3, #16]
  htim3.Init.AutoReloadPreload = TIM_AUTORELOAD_PRELOAD_DISABLE;
 8004190:	4b18      	ldr	r3, [pc, #96]	@ (80041f4 <MX_TIM3_Init+0xa0>)
 8004192:	2200      	movs	r2, #0
 8004194:	619a      	str	r2, [r3, #24]
  sConfig.EncoderMode = TIM_ENCODERMODE_TI1;
 8004196:	2301      	movs	r3, #1
 8004198:	60fb      	str	r3, [r7, #12]
  sConfig.IC1Polarity = TIM_ICPOLARITY_RISING;
 800419a:	2300      	movs	r3, #0
 800419c:	613b      	str	r3, [r7, #16]
  sConfig.IC1Selection = TIM_ICSELECTION_DIRECTTI;
 800419e:	2301      	movs	r3, #1
 80041a0:	617b      	str	r3, [r7, #20]
  sConfig.IC1Prescaler = TIM_ICPSC_DIV1;
 80041a2:	2300      	movs	r3, #0
 80041a4:	61bb      	str	r3, [r7, #24]
  sConfig.IC1Filter = 0;
 80041a6:	2300      	movs	r3, #0
 80041a8:	61fb      	str	r3, [r7, #28]
  sConfig.IC2Polarity = TIM_ICPOLARITY_RISING;
 80041aa:	2300      	movs	r3, #0
 80041ac:	623b      	str	r3, [r7, #32]
  sConfig.IC2Selection = TIM_ICSELECTION_DIRECTTI;
 80041ae:	2301      	movs	r3, #1
 80041b0:	627b      	str	r3, [r7, #36]	@ 0x24
  sConfig.IC2Prescaler = TIM_ICPSC_DIV1;
 80041b2:	2300      	movs	r3, #0
 80041b4:	62bb      	str	r3, [r7, #40]	@ 0x28
  sConfig.IC2Filter = 0;
 80041b6:	2300      	movs	r3, #0
 80041b8:	62fb      	str	r3, [r7, #44]	@ 0x2c
  if (HAL_TIM_Encoder_Init(&htim3, &sConfig) != HAL_OK)
 80041ba:	f107 030c 	add.w	r3, r7, #12
 80041be:	4619      	mov	r1, r3
 80041c0:	480c      	ldr	r0, [pc, #48]	@ (80041f4 <MX_TIM3_Init+0xa0>)
 80041c2:	f001 ff6f 	bl	80060a4 <HAL_TIM_Encoder_Init>
 80041c6:	4603      	mov	r3, r0
 80041c8:	2b00      	cmp	r3, #0
 80041ca:	d001      	beq.n	80041d0 <MX_TIM3_Init+0x7c>
  {
    Error_Handler();
 80041cc:	f7fc fd43 	bl	8000c56 <Error_Handler>
  }
  sMasterConfig.MasterOutputTrigger = TIM_TRGO_RESET;
 80041d0:	2300      	movs	r3, #0
 80041d2:	607b      	str	r3, [r7, #4]
  sMasterConfig.MasterSlaveMode = TIM_MASTERSLAVEMODE_DISABLE;
 80041d4:	2300      	movs	r3, #0
 80041d6:	60bb      	str	r3, [r7, #8]
  if (HAL_TIMEx_MasterConfigSynchronization(&htim3, &sMasterConfig) != HAL_OK)
 80041d8:	1d3b      	adds	r3, r7, #4
 80041da:	4619      	mov	r1, r3
 80041dc:	4805      	ldr	r0, [pc, #20]	@ (80041f4 <MX_TIM3_Init+0xa0>)
 80041de:	f002 fccb 	bl	8006b78 <HAL_TIMEx_MasterConfigSynchronization>
 80041e2:	4603      	mov	r3, r0
 80041e4:	2b00      	cmp	r3, #0
 80041e6:	d001      	beq.n	80041ec <MX_TIM3_Init+0x98>
  {
    Error_Handler();
 80041e8:	f7fc fd35 	bl	8000c56 <Error_Handler>
  }
  /* USER CODE BEGIN TIM3_Init 2 */

  /* USER CODE END TIM3_Init 2 */

}
 80041ec:	bf00      	nop
 80041ee:	3730      	adds	r7, #48	@ 0x30
 80041f0:	46bd      	mov	sp, r7
 80041f2:	bd80      	pop	{r7, pc}
 80041f4:	20003d90 	.word	0x20003d90
 80041f8:	40000400 	.word	0x40000400

080041fc <HAL_TIM_Base_MspInit>:

void HAL_TIM_Base_MspInit(TIM_HandleTypeDef* tim_baseHandle)
{
 80041fc:	b480      	push	{r7}
 80041fe:	b085      	sub	sp, #20
 8004200:	af00      	add	r7, sp, #0
 8004202:	6078      	str	r0, [r7, #4]

  if(tim_baseHandle->Instance==TIM1)
 8004204:	687b      	ldr	r3, [r7, #4]
 8004206:	681b      	ldr	r3, [r3, #0]
 8004208:	4a09      	ldr	r2, [pc, #36]	@ (8004230 <HAL_TIM_Base_MspInit+0x34>)
 800420a:	4293      	cmp	r3, r2
 800420c:	d10b      	bne.n	8004226 <HAL_TIM_Base_MspInit+0x2a>
  {
  /* USER CODE BEGIN TIM1_MspInit 0 */

  /* USER CODE END TIM1_MspInit 0 */
    /* TIM1 clock enable */
    __HAL_RCC_TIM1_CLK_ENABLE();
 800420e:	4b09      	ldr	r3, [pc, #36]	@ (8004234 <HAL_TIM_Base_MspInit+0x38>)
 8004210:	699b      	ldr	r3, [r3, #24]
 8004212:	4a08      	ldr	r2, [pc, #32]	@ (8004234 <HAL_TIM_Base_MspInit+0x38>)
 8004214:	f443 6300 	orr.w	r3, r3, #2048	@ 0x800
 8004218:	6193      	str	r3, [r2, #24]
 800421a:	4b06      	ldr	r3, [pc, #24]	@ (8004234 <HAL_TIM_Base_MspInit+0x38>)
 800421c:	699b      	ldr	r3, [r3, #24]
 800421e:	f403 6300 	and.w	r3, r3, #2048	@ 0x800
 8004222:	60fb      	str	r3, [r7, #12]
 8004224:	68fb      	ldr	r3, [r7, #12]
  /* USER CODE BEGIN TIM1_MspInit 1 */

  /* USER CODE END TIM1_MspInit 1 */
  }
}
 8004226:	bf00      	nop
 8004228:	3714      	adds	r7, #20
 800422a:	46bd      	mov	sp, r7
 800422c:	bc80      	pop	{r7}
 800422e:	4770      	bx	lr
 8004230:	40012c00 	.word	0x40012c00
 8004234:	40021000 	.word	0x40021000

08004238 <HAL_TIM_Encoder_MspInit>:

void HAL_TIM_Encoder_MspInit(TIM_HandleTypeDef* tim_encoderHandle)
{
 8004238:	b580      	push	{r7, lr}
 800423a:	b08a      	sub	sp, #40	@ 0x28
 800423c:	af00      	add	r7, sp, #0
 800423e:	6078      	str	r0, [r7, #4]

  GPIO_InitTypeDef GPIO_InitStruct = {0};
 8004240:	f107 0314 	add.w	r3, r7, #20
 8004244:	2200      	movs	r2, #0
 8004246:	601a      	str	r2, [r3, #0]
 8004248:	605a      	str	r2, [r3, #4]
 800424a:	609a      	str	r2, [r3, #8]
 800424c:	60da      	str	r2, [r3, #12]
  if(tim_encoderHandle->Instance==TIM3)
 800424e:	687b      	ldr	r3, [r7, #4]
 8004250:	681b      	ldr	r3, [r3, #0]
 8004252:	4a1e      	ldr	r2, [pc, #120]	@ (80042cc <HAL_TIM_Encoder_MspInit+0x94>)
 8004254:	4293      	cmp	r3, r2
 8004256:	d135      	bne.n	80042c4 <HAL_TIM_Encoder_MspInit+0x8c>
  {
  /* USER CODE BEGIN TIM3_MspInit 0 */

  /* USER CODE END TIM3_MspInit 0 */
    /* TIM3 clock enable */
    __HAL_RCC_TIM3_CLK_ENABLE();
 8004258:	4b1d      	ldr	r3, [pc, #116]	@ (80042d0 <HAL_TIM_Encoder_MspInit+0x98>)
 800425a:	69db      	ldr	r3, [r3, #28]
 800425c:	4a1c      	ldr	r2, [pc, #112]	@ (80042d0 <HAL_TIM_Encoder_MspInit+0x98>)
 800425e:	f043 0302 	orr.w	r3, r3, #2
 8004262:	61d3      	str	r3, [r2, #28]
 8004264:	4b1a      	ldr	r3, [pc, #104]	@ (80042d0 <HAL_TIM_Encoder_MspInit+0x98>)
 8004266:	69db      	ldr	r3, [r3, #28]
 8004268:	f003 0302 	and.w	r3, r3, #2
 800426c:	613b      	str	r3, [r7, #16]
 800426e:	693b      	ldr	r3, [r7, #16]

    __HAL_RCC_GPIOB_CLK_ENABLE();
 8004270:	4b17      	ldr	r3, [pc, #92]	@ (80042d0 <HAL_TIM_Encoder_MspInit+0x98>)
 8004272:	699b      	ldr	r3, [r3, #24]
 8004274:	4a16      	ldr	r2, [pc, #88]	@ (80042d0 <HAL_TIM_Encoder_MspInit+0x98>)
 8004276:	f043 0308 	orr.w	r3, r3, #8
 800427a:	6193      	str	r3, [r2, #24]
 800427c:	4b14      	ldr	r3, [pc, #80]	@ (80042d0 <HAL_TIM_Encoder_MspInit+0x98>)
 800427e:	699b      	ldr	r3, [r3, #24]
 8004280:	f003 0308 	and.w	r3, r3, #8
 8004284:	60fb      	str	r3, [r7, #12]
 8004286:	68fb      	ldr	r3, [r7, #12]
    /**TIM3 GPIO Configuration
    PB4     ------> TIM3_CH1
    PB5     ------> TIM3_CH2
    */
    GPIO_InitStruct.Pin = Encoder_CH1_Pin|Encoder_CH2_Pin;
 8004288:	2330      	movs	r3, #48	@ 0x30
 800428a:	617b      	str	r3, [r7, #20]
    GPIO_InitStruct.Mode = GPIO_MODE_INPUT;
 800428c:	2300      	movs	r3, #0
 800428e:	61bb      	str	r3, [r7, #24]
    GPIO_InitStruct.Pull = GPIO_NOPULL;
 8004290:	2300      	movs	r3, #0
 8004292:	61fb      	str	r3, [r7, #28]
    HAL_GPIO_Init(GPIOB, &GPIO_InitStruct);
 8004294:	f107 0314 	add.w	r3, r7, #20
 8004298:	4619      	mov	r1, r3
 800429a:	480e      	ldr	r0, [pc, #56]	@ (80042d4 <HAL_TIM_Encoder_MspInit+0x9c>)
 800429c:	f000 fb6c 	bl	8004978 <HAL_GPIO_Init>

    __HAL_AFIO_REMAP_TIM3_PARTIAL();
 80042a0:	4b0d      	ldr	r3, [pc, #52]	@ (80042d8 <HAL_TIM_Encoder_MspInit+0xa0>)
 80042a2:	685b      	ldr	r3, [r3, #4]
 80042a4:	627b      	str	r3, [r7, #36]	@ 0x24
 80042a6:	6a7b      	ldr	r3, [r7, #36]	@ 0x24
 80042a8:	f423 6340 	bic.w	r3, r3, #3072	@ 0xc00
 80042ac:	627b      	str	r3, [r7, #36]	@ 0x24
 80042ae:	6a7b      	ldr	r3, [r7, #36]	@ 0x24
 80042b0:	f043 63e0 	orr.w	r3, r3, #117440512	@ 0x7000000
 80042b4:	627b      	str	r3, [r7, #36]	@ 0x24
 80042b6:	6a7b      	ldr	r3, [r7, #36]	@ 0x24
 80042b8:	f443 6300 	orr.w	r3, r3, #2048	@ 0x800
 80042bc:	627b      	str	r3, [r7, #36]	@ 0x24
 80042be:	4a06      	ldr	r2, [pc, #24]	@ (80042d8 <HAL_TIM_Encoder_MspInit+0xa0>)
 80042c0:	6a7b      	ldr	r3, [r7, #36]	@ 0x24
 80042c2:	6053      	str	r3, [r2, #4]

  /* USER CODE BEGIN TIM3_MspInit 1 */

  /* USER CODE END TIM3_MspInit 1 */
  }
}
 80042c4:	bf00      	nop
 80042c6:	3728      	adds	r7, #40	@ 0x28
 80042c8:	46bd      	mov	sp, r7
 80042ca:	bd80      	pop	{r7, pc}
 80042cc:	40000400 	.word	0x40000400
 80042d0:	40021000 	.word	0x40021000
 80042d4:	40010c00 	.word	0x40010c00
 80042d8:	40010000 	.word	0x40010000

080042dc <HAL_TIM_MspPostInit>:
void HAL_TIM_MspPostInit(TIM_HandleTypeDef* timHandle)
{
 80042dc:	b580      	push	{r7, lr}
 80042de:	b088      	sub	sp, #32
 80042e0:	af00      	add	r7, sp, #0
 80042e2:	6078      	str	r0, [r7, #4]

  GPIO_InitTypeDef GPIO_InitStruct = {0};
 80042e4:	f107 0310 	add.w	r3, r7, #16
 80042e8:	2200      	movs	r2, #0
 80042ea:	601a      	str	r2, [r3, #0]
 80042ec:	605a      	str	r2, [r3, #4]
 80042ee:	609a      	str	r2, [r3, #8]
 80042f0:	60da      	str	r2, [r3, #12]
  if(timHandle->Instance==TIM1)
 80042f2:	687b      	ldr	r3, [r7, #4]
 80042f4:	681b      	ldr	r3, [r3, #0]
 80042f6:	4a10      	ldr	r2, [pc, #64]	@ (8004338 <HAL_TIM_MspPostInit+0x5c>)
 80042f8:	4293      	cmp	r3, r2
 80042fa:	d118      	bne.n	800432e <HAL_TIM_MspPostInit+0x52>
  {
  /* USER CODE BEGIN TIM1_MspPostInit 0 */

  /* USER CODE END TIM1_MspPostInit 0 */

    __HAL_RCC_GPIOA_CLK_ENABLE();
 80042fc:	4b0f      	ldr	r3, [pc, #60]	@ (800433c <HAL_TIM_MspPostInit+0x60>)
 80042fe:	699b      	ldr	r3, [r3, #24]
 8004300:	4a0e      	ldr	r2, [pc, #56]	@ (800433c <HAL_TIM_MspPostInit+0x60>)
 8004302:	f043 0304 	orr.w	r3, r3, #4
 8004306:	6193      	str	r3, [r2, #24]
 8004308:	4b0c      	ldr	r3, [pc, #48]	@ (800433c <HAL_TIM_MspPostInit+0x60>)
 800430a:	699b      	ldr	r3, [r3, #24]
 800430c:	f003 0304 	and.w	r3, r3, #4
 8004310:	60fb      	str	r3, [r7, #12]
 8004312:	68fb      	ldr	r3, [r7, #12]
    /**TIM1 GPIO Configuration
    PA9     ------> TIM1_CH2
    */
    GPIO_InitStruct.Pin = GPIO_PIN_9;
 8004314:	f44f 7300 	mov.w	r3, #512	@ 0x200
 8004318:	613b      	str	r3, [r7, #16]
    GPIO_InitStruct.Mode = GPIO_MODE_AF_PP;
 800431a:	2302      	movs	r3, #2
 800431c:	617b      	str	r3, [r7, #20]
    GPIO_InitStruct.Speed = GPIO_SPEED_FREQ_LOW;
 800431e:	2302      	movs	r3, #2
 8004320:	61fb      	str	r3, [r7, #28]
    HAL_GPIO_Init(GPIOA, &GPIO_InitStruct);
 8004322:	f107 0310 	add.w	r3, r7, #16
 8004326:	4619      	mov	r1, r3
 8004328:	4805      	ldr	r0, [pc, #20]	@ (8004340 <HAL_TIM_MspPostInit+0x64>)
 800432a:	f000 fb25 	bl	8004978 <HAL_GPIO_Init>
  /* USER CODE BEGIN TIM1_MspPostInit 1 */

  /* USER CODE END TIM1_MspPostInit 1 */
  }

}
 800432e:	bf00      	nop
 8004330:	3720      	adds	r7, #32
 8004332:	46bd      	mov	sp, r7
 8004334:	bd80      	pop	{r7, pc}
 8004336:	bf00      	nop
 8004338:	40012c00 	.word	0x40012c00
 800433c:	40021000 	.word	0x40021000
 8004340:	40010800 	.word	0x40010800

08004344 <Reset_Handler>:
  .weak Reset_Handler
  .type Reset_Handler, %function
Reset_Handler:

/* Call the clock system initialization function.*/
    bl  SystemInit
 8004344:	f7ff fe5e 	bl	8004004 <SystemInit>

/* Copy the data segment initializers from flash to SRAM */
  ldr r0, =_sdata
 8004348:	480b      	ldr	r0, [pc, #44]	@ (8004378 <LoopFillZerobss+0xe>)
  ldr r1, =_edata
 800434a:	490c      	ldr	r1, [pc, #48]	@ (800437c <LoopFillZerobss+0x12>)
  ldr r2, =_sidata
 800434c:	4a0c      	ldr	r2, [pc, #48]	@ (8004380 <LoopFillZerobss+0x16>)
  movs r3, #0
 800434e:	2300      	movs	r3, #0
  b LoopCopyDataInit
 8004350:	e002      	b.n	8004358 <LoopCopyDataInit>

08004352 <CopyDataInit>:

CopyDataInit:
  ldr r4, [r2, r3]
 8004352:	58d4      	ldr	r4, [r2, r3]
  str r4, [r0, r3]
 8004354:	50c4      	str	r4, [r0, r3]
  adds r3, r3, #4
 8004356:	3304      	adds	r3, #4

08004358 <LoopCopyDataInit>:

LoopCopyDataInit:
  adds r4, r0, r3
 8004358:	18c4      	adds	r4, r0, r3
  cmp r4, r1
 800435a:	428c      	cmp	r4, r1
  bcc CopyDataInit
 800435c:	d3f9      	bcc.n	8004352 <CopyDataInit>

/* Zero fill the bss segment. */
  ldr r2, =_sbss
 800435e:	4a09      	ldr	r2, [pc, #36]	@ (8004384 <LoopFillZerobss+0x1a>)
  ldr r4, =_ebss
 8004360:	4c09      	ldr	r4, [pc, #36]	@ (8004388 <LoopFillZerobss+0x1e>)
  movs r3, #0
 8004362:	2300      	movs	r3, #0
  b LoopFillZerobss
 8004364:	e001      	b.n	800436a <LoopFillZerobss>

08004366 <FillZerobss>:

FillZerobss:
  str  r3, [r2]
 8004366:	6013      	str	r3, [r2, #0]
  adds r2, r2, #4
 8004368:	3204      	adds	r2, #4

0800436a <LoopFillZerobss>:

LoopFillZerobss:
  cmp r2, r4
 800436a:	42a2      	cmp	r2, r4
  bcc FillZerobss
 800436c:	d3fb      	bcc.n	8004366 <FillZerobss>

/* Call static constructors */
    bl __libc_init_array
 800436e:	f002 fcf7 	bl	8006d60 <__libc_init_array>
/* Call the application's entry point.*/
  bl main
 8004372:	f7fc fba3 	bl	8000abc <main>
  bx lr
 8004376:	4770      	bx	lr
  ldr r0, =_sdata
 8004378:	20000000 	.word	0x20000000
  ldr r1, =_edata
 800437c:	20000074 	.word	0x20000074
  ldr r2, =_sidata
 8004380:	0800936c 	.word	0x0800936c
  ldr r2, =_sbss
 8004384:	20000074 	.word	0x20000074
  ldr r4, =_ebss
 8004388:	20003f24 	.word	0x20003f24

0800438c <ADC1_2_IRQHandler>:
 * @retval : None
*/
    .section .text.Default_Handler,"ax",%progbits
Default_Handler:
Infinite_Loop:
  b Infinite_Loop
 800438c:	e7fe      	b.n	800438c <ADC1_2_IRQHandler>
	...

08004390 <HAL_Init>:
  *         need to ensure that the SysTick time base is always set to 1 millisecond
  *         to have correct HAL operation.
  * @retval HAL status
  */
HAL_StatusTypeDef HAL_Init(void)
{
 8004390:	b580      	push	{r7, lr}
 8004392:	af00      	add	r7, sp, #0
    defined(STM32F102x6) || defined(STM32F102xB) || \
    defined(STM32F103x6) || defined(STM32F103xB) || defined(STM32F103xE) || defined(STM32F103xG) || \
    defined(STM32F105xC) || defined(STM32F107xC)

  /* Prefetch buffer is not available on value line devices */
  __HAL_FLASH_PREFETCH_BUFFER_ENABLE();
 8004394:	4b08      	ldr	r3, [pc, #32]	@ (80043b8 <HAL_Init+0x28>)
 8004396:	681b      	ldr	r3, [r3, #0]
 8004398:	4a07      	ldr	r2, [pc, #28]	@ (80043b8 <HAL_Init+0x28>)
 800439a:	f043 0310 	orr.w	r3, r3, #16
 800439e:	6013      	str	r3, [r2, #0]
#endif
#endif /* PREFETCH_ENABLE */

  /* Set Interrupt Group Priority */
  HAL_NVIC_SetPriorityGrouping(NVIC_PRIORITYGROUP_4);
 80043a0:	2003      	movs	r0, #3
 80043a2:	f000 f947 	bl	8004634 <HAL_NVIC_SetPriorityGrouping>

  /* Use systick as time base source and configure 1ms tick (default clock after Reset is HSI) */
  HAL_InitTick(TICK_INT_PRIORITY);
 80043a6:	200f      	movs	r0, #15
 80043a8:	f000 f808 	bl	80043bc <HAL_InitTick>

  /* Init the low level hardware */
  HAL_MspInit();
 80043ac:	f7ff fd8c 	bl	8003ec8 <HAL_MspInit>

  /* Return function status */
  return HAL_OK;
 80043b0:	2300      	movs	r3, #0
}
 80043b2:	4618      	mov	r0, r3
 80043b4:	bd80      	pop	{r7, pc}
 80043b6:	bf00      	nop
 80043b8:	40022000 	.word	0x40022000

080043bc <HAL_InitTick>:
  *       implementation  in user file.
  * @param TickPriority Tick interrupt priority.
  * @retval HAL status
  */
__weak HAL_StatusTypeDef HAL_InitTick(uint32_t TickPriority)
{
 80043bc:	b580      	push	{r7, lr}
 80043be:	b082      	sub	sp, #8
 80043c0:	af00      	add	r7, sp, #0
 80043c2:	6078      	str	r0, [r7, #4]
  /* Configure the SysTick to have interrupt in 1ms time basis*/
  if (HAL_SYSTICK_Config(SystemCoreClock / (1000U / uwTickFreq)) > 0U)
 80043c4:	4b12      	ldr	r3, [pc, #72]	@ (8004410 <HAL_InitTick+0x54>)
 80043c6:	681a      	ldr	r2, [r3, #0]
 80043c8:	4b12      	ldr	r3, [pc, #72]	@ (8004414 <HAL_InitTick+0x58>)
 80043ca:	781b      	ldrb	r3, [r3, #0]
 80043cc:	4619      	mov	r1, r3
 80043ce:	f44f 737a 	mov.w	r3, #1000	@ 0x3e8
 80043d2:	fbb3 f3f1 	udiv	r3, r3, r1
 80043d6:	fbb2 f3f3 	udiv	r3, r2, r3
 80043da:	4618      	mov	r0, r3
 80043dc:	f000 f95f 	bl	800469e <HAL_SYSTICK_Config>
 80043e0:	4603      	mov	r3, r0
 80043e2:	2b00      	cmp	r3, #0
 80043e4:	d001      	beq.n	80043ea <HAL_InitTick+0x2e>
  {
    return HAL_ERROR;
 80043e6:	2301      	movs	r3, #1
 80043e8:	e00e      	b.n	8004408 <HAL_InitTick+0x4c>
  }

  /* Configure the SysTick IRQ priority */
  if (TickPriority < (1UL << __NVIC_PRIO_BITS))
 80043ea:	687b      	ldr	r3, [r7, #4]
 80043ec:	2b0f      	cmp	r3, #15
 80043ee:	d80a      	bhi.n	8004406 <HAL_InitTick+0x4a>
  {
    HAL_NVIC_SetPriority(SysTick_IRQn, TickPriority, 0U);
 80043f0:	2200      	movs	r2, #0
 80043f2:	6879      	ldr	r1, [r7, #4]
 80043f4:	f04f 30ff 	mov.w	r0, #4294967295
 80043f8:	f000 f927 	bl	800464a <HAL_NVIC_SetPriority>
    uwTickPrio = TickPriority;
 80043fc:	4a06      	ldr	r2, [pc, #24]	@ (8004418 <HAL_InitTick+0x5c>)
 80043fe:	687b      	ldr	r3, [r7, #4]
 8004400:	6013      	str	r3, [r2, #0]
  {
    return HAL_ERROR;
  }

  /* Return function status */
  return HAL_OK;
 8004402:	2300      	movs	r3, #0
 8004404:	e000      	b.n	8004408 <HAL_InitTick+0x4c>
    return HAL_ERROR;
 8004406:	2301      	movs	r3, #1
}
 8004408:	4618      	mov	r0, r3
 800440a:	3708      	adds	r7, #8
 800440c:	46bd      	mov	sp, r7
 800440e:	bd80      	pop	{r7, pc}
 8004410:	20000018 	.word	0x20000018
 8004414:	20000020 	.word	0x20000020
 8004418:	2000001c 	.word	0x2000001c

0800441c <HAL_IncTick>:
  * @note This function is declared as __weak to be overwritten in case of other
  *      implementations in user file.
  * @retval None
  */
__weak void HAL_IncTick(void)
{
 800441c:	b480      	push	{r7}
 800441e:	af00      	add	r7, sp, #0
  uwTick += uwTickFreq;
 8004420:	4b05      	ldr	r3, [pc, #20]	@ (8004438 <HAL_IncTick+0x1c>)
 8004422:	781b      	ldrb	r3, [r3, #0]
 8004424:	461a      	mov	r2, r3
 8004426:	4b05      	ldr	r3, [pc, #20]	@ (800443c <HAL_IncTick+0x20>)
 8004428:	681b      	ldr	r3, [r3, #0]
 800442a:	4413      	add	r3, r2
 800442c:	4a03      	ldr	r2, [pc, #12]	@ (800443c <HAL_IncTick+0x20>)
 800442e:	6013      	str	r3, [r2, #0]
}
 8004430:	bf00      	nop
 8004432:	46bd      	mov	sp, r7
 8004434:	bc80      	pop	{r7}
 8004436:	4770      	bx	lr
 8004438:	20000020 	.word	0x20000020
 800443c:	20003dd8 	.word	0x20003dd8

08004440 <HAL_GetTick>:
  * @note  This function is declared as __weak to be overwritten in case of other
  *       implementations in user file.
  * @retval tick value
  */
__weak uint32_t HAL_GetTick(void)
{
 8004440:	b480      	push	{r7}
 8004442:	af00      	add	r7, sp, #0
  return uwTick;
 8004444:	4b02      	ldr	r3, [pc, #8]	@ (8004450 <HAL_GetTick+0x10>)
 8004446:	681b      	ldr	r3, [r3, #0]
}
 8004448:	4618      	mov	r0, r3
 800444a:	46bd      	mov	sp, r7
 800444c:	bc80      	pop	{r7}
 800444e:	4770      	bx	lr
 8004450:	20003dd8 	.word	0x20003dd8

08004454 <HAL_Delay>:
  *       implementations in user file.
  * @param Delay specifies the delay time length, in milliseconds.
  * @retval None
  */
__weak void HAL_Delay(uint32_t Delay)
{
 8004454:	b580      	push	{r7, lr}
 8004456:	b084      	sub	sp, #16
 8004458:	af00      	add	r7, sp, #0
 800445a:	6078      	str	r0, [r7, #4]
  uint32_t tickstart = HAL_GetTick();
 800445c:	f7ff fff0 	bl	8004440 <HAL_GetTick>
 8004460:	60b8      	str	r0, [r7, #8]
  uint32_t wait = Delay;
 8004462:	687b      	ldr	r3, [r7, #4]
 8004464:	60fb      	str	r3, [r7, #12]

  /* Add a freq to guarantee minimum wait */
  if (wait < HAL_MAX_DELAY)
 8004466:	68fb      	ldr	r3, [r7, #12]
 8004468:	f1b3 3fff 	cmp.w	r3, #4294967295
 800446c:	d005      	beq.n	800447a <HAL_Delay+0x26>
  {
    wait += (uint32_t)(uwTickFreq);
 800446e:	4b0a      	ldr	r3, [pc, #40]	@ (8004498 <HAL_Delay+0x44>)
 8004470:	781b      	ldrb	r3, [r3, #0]
 8004472:	461a      	mov	r2, r3
 8004474:	68fb      	ldr	r3, [r7, #12]
 8004476:	4413      	add	r3, r2
 8004478:	60fb      	str	r3, [r7, #12]
  }

  while ((HAL_GetTick() - tickstart) < wait)
 800447a:	bf00      	nop
 800447c:	f7ff ffe0 	bl	8004440 <HAL_GetTick>
 8004480:	4602      	mov	r2, r0
 8004482:	68bb      	ldr	r3, [r7, #8]
 8004484:	1ad3      	subs	r3, r2, r3
 8004486:	68fa      	ldr	r2, [r7, #12]
 8004488:	429a      	cmp	r2, r3
 800448a:	d8f7      	bhi.n	800447c <HAL_Delay+0x28>
  {
  }
}
 800448c:	bf00      	nop
 800448e:	bf00      	nop
 8004490:	3710      	adds	r7, #16
 8004492:	46bd      	mov	sp, r7
 8004494:	bd80      	pop	{r7, pc}
 8004496:	bf00      	nop
 8004498:	20000020 	.word	0x20000020

0800449c <__NVIC_SetPriorityGrouping>:
           In case of a conflict between priority grouping and available
           priority bits (__NVIC_PRIO_BITS), the smallest possible priority group is set.
  \param [in]      PriorityGroup  Priority grouping field.
 */
__STATIC_INLINE void __NVIC_SetPriorityGrouping(uint32_t PriorityGroup)
{
 800449c:	b480      	push	{r7}
 800449e:	b085      	sub	sp, #20
 80044a0:	af00      	add	r7, sp, #0
 80044a2:	6078      	str	r0, [r7, #4]
  uint32_t reg_value;
  uint32_t PriorityGroupTmp = (PriorityGroup & (uint32_t)0x07UL);             /* only values 0..7 are used          */
 80044a4:	687b      	ldr	r3, [r7, #4]
 80044a6:	f003 0307 	and.w	r3, r3, #7
 80044aa:	60fb      	str	r3, [r7, #12]

  reg_value  =  SCB->AIRCR;                                                   /* read old register configuration    */
 80044ac:	4b0c      	ldr	r3, [pc, #48]	@ (80044e0 <__NVIC_SetPriorityGrouping+0x44>)
 80044ae:	68db      	ldr	r3, [r3, #12]
 80044b0:	60bb      	str	r3, [r7, #8]
  reg_value &= ~((uint32_t)(SCB_AIRCR_VECTKEY_Msk | SCB_AIRCR_PRIGROUP_Msk)); /* clear bits to change               */
 80044b2:	68ba      	ldr	r2, [r7, #8]
 80044b4:	f64f 03ff 	movw	r3, #63743	@ 0xf8ff
 80044b8:	4013      	ands	r3, r2
 80044ba:	60bb      	str	r3, [r7, #8]
  reg_value  =  (reg_value                                   |
                ((uint32_t)0x5FAUL << SCB_AIRCR_VECTKEY_Pos) |
                (PriorityGroupTmp << SCB_AIRCR_PRIGROUP_Pos) );               /* Insert write key and priority group */
 80044bc:	68fb      	ldr	r3, [r7, #12]
 80044be:	021a      	lsls	r2, r3, #8
                ((uint32_t)0x5FAUL << SCB_AIRCR_VECTKEY_Pos) |
 80044c0:	68bb      	ldr	r3, [r7, #8]
 80044c2:	4313      	orrs	r3, r2
  reg_value  =  (reg_value                                   |
 80044c4:	f043 63bf 	orr.w	r3, r3, #100139008	@ 0x5f80000
 80044c8:	f443 3300 	orr.w	r3, r3, #131072	@ 0x20000
 80044cc:	60bb      	str	r3, [r7, #8]
  SCB->AIRCR =  reg_value;
 80044ce:	4a04      	ldr	r2, [pc, #16]	@ (80044e0 <__NVIC_SetPriorityGrouping+0x44>)
 80044d0:	68bb      	ldr	r3, [r7, #8]
 80044d2:	60d3      	str	r3, [r2, #12]
}
 80044d4:	bf00      	nop
 80044d6:	3714      	adds	r7, #20
 80044d8:	46bd      	mov	sp, r7
 80044da:	bc80      	pop	{r7}
 80044dc:	4770      	bx	lr
 80044de:	bf00      	nop
 80044e0:	e000ed00 	.word	0xe000ed00

080044e4 <__NVIC_GetPriorityGrouping>:
  \brief   Get Priority Grouping
  \details Reads the priority grouping field from the NVIC Interrupt Controller.
  \return                Priority grouping field (SCB->AIRCR [10:8] PRIGROUP field).
 */
__STATIC_INLINE uint32_t __NVIC_GetPriorityGrouping(void)
{
 80044e4:	b480      	push	{r7}
 80044e6:	af00      	add	r7, sp, #0
  return ((uint32_t)((SCB->AIRCR & SCB_AIRCR_PRIGROUP_Msk) >> SCB_AIRCR_PRIGROUP_Pos));
 80044e8:	4b04      	ldr	r3, [pc, #16]	@ (80044fc <__NVIC_GetPriorityGrouping+0x18>)
 80044ea:	68db      	ldr	r3, [r3, #12]
 80044ec:	0a1b      	lsrs	r3, r3, #8
 80044ee:	f003 0307 	and.w	r3, r3, #7
}
 80044f2:	4618      	mov	r0, r3
 80044f4:	46bd      	mov	sp, r7
 80044f6:	bc80      	pop	{r7}
 80044f8:	4770      	bx	lr
 80044fa:	bf00      	nop
 80044fc:	e000ed00 	.word	0xe000ed00

08004500 <__NVIC_EnableIRQ>:
  \details Enables a device specific interrupt in the NVIC interrupt controller.
  \param [in]      IRQn  Device specific interrupt number.
  \note    IRQn must not be negative.
 */
__STATIC_INLINE void __NVIC_EnableIRQ(IRQn_Type IRQn)
{
 8004500:	b480      	push	{r7}
 8004502:	b083      	sub	sp, #12
 8004504:	af00      	add	r7, sp, #0
 8004506:	4603      	mov	r3, r0
 8004508:	71fb      	strb	r3, [r7, #7]
  if ((int32_t)(IRQn) >= 0)
 800450a:	f997 3007 	ldrsb.w	r3, [r7, #7]
 800450e:	2b00      	cmp	r3, #0
 8004510:	db0b      	blt.n	800452a <__NVIC_EnableIRQ+0x2a>
  {
    NVIC->ISER[(((uint32_t)IRQn) >> 5UL)] = (uint32_t)(1UL << (((uint32_t)IRQn) & 0x1FUL));
 8004512:	79fb      	ldrb	r3, [r7, #7]
 8004514:	f003 021f 	and.w	r2, r3, #31
 8004518:	4906      	ldr	r1, [pc, #24]	@ (8004534 <__NVIC_EnableIRQ+0x34>)
 800451a:	f997 3007 	ldrsb.w	r3, [r7, #7]
 800451e:	095b      	lsrs	r3, r3, #5
 8004520:	2001      	movs	r0, #1
 8004522:	fa00 f202 	lsl.w	r2, r0, r2
 8004526:	f841 2023 	str.w	r2, [r1, r3, lsl #2]
  }
}
 800452a:	bf00      	nop
 800452c:	370c      	adds	r7, #12
 800452e:	46bd      	mov	sp, r7
 8004530:	bc80      	pop	{r7}
 8004532:	4770      	bx	lr
 8004534:	e000e100 	.word	0xe000e100

08004538 <__NVIC_SetPriority>:
  \param [in]      IRQn  Interrupt number.
  \param [in]  priority  Priority to set.
  \note    The priority cannot be set for every processor exception.
 */
__STATIC_INLINE void __NVIC_SetPriority(IRQn_Type IRQn, uint32_t priority)
{
 8004538:	b480      	push	{r7}
 800453a:	b083      	sub	sp, #12
 800453c:	af00      	add	r7, sp, #0
 800453e:	4603      	mov	r3, r0
 8004540:	6039      	str	r1, [r7, #0]
 8004542:	71fb      	strb	r3, [r7, #7]
  if ((int32_t)(IRQn) >= 0)
 8004544:	f997 3007 	ldrsb.w	r3, [r7, #7]
 8004548:	2b00      	cmp	r3, #0
 800454a:	db0a      	blt.n	8004562 <__NVIC_SetPriority+0x2a>
  {
    NVIC->IP[((uint32_t)IRQn)]               = (uint8_t)((priority << (8U - __NVIC_PRIO_BITS)) & (uint32_t)0xFFUL);
 800454c:	683b      	ldr	r3, [r7, #0]
 800454e:	b2da      	uxtb	r2, r3
 8004550:	490c      	ldr	r1, [pc, #48]	@ (8004584 <__NVIC_SetPriority+0x4c>)
 8004552:	f997 3007 	ldrsb.w	r3, [r7, #7]
 8004556:	0112      	lsls	r2, r2, #4
 8004558:	b2d2      	uxtb	r2, r2
 800455a:	440b      	add	r3, r1
 800455c:	f883 2300 	strb.w	r2, [r3, #768]	@ 0x300
  }
  else
  {
    SCB->SHP[(((uint32_t)IRQn) & 0xFUL)-4UL] = (uint8_t)((priority << (8U - __NVIC_PRIO_BITS)) & (uint32_t)0xFFUL);
  }
}
 8004560:	e00a      	b.n	8004578 <__NVIC_SetPriority+0x40>
    SCB->SHP[(((uint32_t)IRQn) & 0xFUL)-4UL] = (uint8_t)((priority << (8U - __NVIC_PRIO_BITS)) & (uint32_t)0xFFUL);
 8004562:	683b      	ldr	r3, [r7, #0]
 8004564:	b2da      	uxtb	r2, r3
 8004566:	4908      	ldr	r1, [pc, #32]	@ (8004588 <__NVIC_SetPriority+0x50>)
 8004568:	79fb      	ldrb	r3, [r7, #7]
 800456a:	f003 030f 	and.w	r3, r3, #15
 800456e:	3b04      	subs	r3, #4
 8004570:	0112      	lsls	r2, r2, #4
 8004572:	b2d2      	uxtb	r2, r2
 8004574:	440b      	add	r3, r1
 8004576:	761a      	strb	r2, [r3, #24]
}
 8004578:	bf00      	nop
 800457a:	370c      	adds	r7, #12
 800457c:	46bd      	mov	sp, r7
 800457e:	bc80      	pop	{r7}
 8004580:	4770      	bx	lr
 8004582:	bf00      	nop
 8004584:	e000e100 	.word	0xe000e100
 8004588:	e000ed00 	.word	0xe000ed00

0800458c <NVIC_EncodePriority>:
  \param [in]   PreemptPriority  Preemptive priority value (starting from 0).
  \param [in]       SubPriority  Subpriority value (starting from 0).
  \return                        Encoded priority. Value can be used in the function \ref NVIC_SetPriority().
 */
__STATIC_INLINE uint32_t NVIC_EncodePriority (uint32_t PriorityGroup, uint32_t PreemptPriority, uint32_t SubPriority)
{
 800458c:	b480      	push	{r7}
 800458e:	b089      	sub	sp, #36	@ 0x24
 8004590:	af00      	add	r7, sp, #0
 8004592:	60f8      	str	r0, [r7, #12]
 8004594:	60b9      	str	r1, [r7, #8]
 8004596:	607a      	str	r2, [r7, #4]
  uint32_t PriorityGroupTmp = (PriorityGroup & (uint32_t)0x07UL);   /* only values 0..7 are used          */
 8004598:	68fb      	ldr	r3, [r7, #12]
 800459a:	f003 0307 	and.w	r3, r3, #7
 800459e:	61fb      	str	r3, [r7, #28]
  uint32_t PreemptPriorityBits;
  uint32_t SubPriorityBits;

  PreemptPriorityBits = ((7UL - PriorityGroupTmp) > (uint32_t)(__NVIC_PRIO_BITS)) ? (uint32_t)(__NVIC_PRIO_BITS) : (uint32_t)(7UL - PriorityGroupTmp);
 80045a0:	69fb      	ldr	r3, [r7, #28]
 80045a2:	f1c3 0307 	rsb	r3, r3, #7
 80045a6:	2b04      	cmp	r3, #4
 80045a8:	bf28      	it	cs
 80045aa:	2304      	movcs	r3, #4
 80045ac:	61bb      	str	r3, [r7, #24]
  SubPriorityBits     = ((PriorityGroupTmp + (uint32_t)(__NVIC_PRIO_BITS)) < (uint32_t)7UL) ? (uint32_t)0UL : (uint32_t)((PriorityGroupTmp - 7UL) + (uint32_t)(__NVIC_PRIO_BITS));
 80045ae:	69fb      	ldr	r3, [r7, #28]
 80045b0:	3304      	adds	r3, #4
 80045b2:	2b06      	cmp	r3, #6
 80045b4:	d902      	bls.n	80045bc <NVIC_EncodePriority+0x30>
 80045b6:	69fb      	ldr	r3, [r7, #28]
 80045b8:	3b03      	subs	r3, #3
 80045ba:	e000      	b.n	80045be <NVIC_EncodePriority+0x32>
 80045bc:	2300      	movs	r3, #0
 80045be:	617b      	str	r3, [r7, #20]

  return (
           ((PreemptPriority & (uint32_t)((1UL << (PreemptPriorityBits)) - 1UL)) << SubPriorityBits) |
 80045c0:	f04f 32ff 	mov.w	r2, #4294967295
 80045c4:	69bb      	ldr	r3, [r7, #24]
 80045c6:	fa02 f303 	lsl.w	r3, r2, r3
 80045ca:	43da      	mvns	r2, r3
 80045cc:	68bb      	ldr	r3, [r7, #8]
 80045ce:	401a      	ands	r2, r3
 80045d0:	697b      	ldr	r3, [r7, #20]
 80045d2:	409a      	lsls	r2, r3
           ((SubPriority     & (uint32_t)((1UL << (SubPriorityBits    )) - 1UL)))
 80045d4:	f04f 31ff 	mov.w	r1, #4294967295
 80045d8:	697b      	ldr	r3, [r7, #20]
 80045da:	fa01 f303 	lsl.w	r3, r1, r3
 80045de:	43d9      	mvns	r1, r3
 80045e0:	687b      	ldr	r3, [r7, #4]
 80045e2:	400b      	ands	r3, r1
           ((PreemptPriority & (uint32_t)((1UL << (PreemptPriorityBits)) - 1UL)) << SubPriorityBits) |
 80045e4:	4313      	orrs	r3, r2
         );
}
 80045e6:	4618      	mov	r0, r3
 80045e8:	3724      	adds	r7, #36	@ 0x24
 80045ea:	46bd      	mov	sp, r7
 80045ec:	bc80      	pop	{r7}
 80045ee:	4770      	bx	lr

080045f0 <SysTick_Config>:
  \note    When the variable <b>__Vendor_SysTickConfig</b> is set to 1, then the
           function <b>SysTick_Config</b> is not included. In this case, the file <b><i>device</i>.h</b>
           must contain a vendor-specific implementation of this function.
 */
__STATIC_INLINE uint32_t SysTick_Config(uint32_t ticks)
{
 80045f0:	b580      	push	{r7, lr}
 80045f2:	b082      	sub	sp, #8
 80045f4:	af00      	add	r7, sp, #0
 80045f6:	6078      	str	r0, [r7, #4]
  if ((ticks - 1UL) > SysTick_LOAD_RELOAD_Msk)
 80045f8:	687b      	ldr	r3, [r7, #4]
 80045fa:	3b01      	subs	r3, #1
 80045fc:	f1b3 7f80 	cmp.w	r3, #16777216	@ 0x1000000
 8004600:	d301      	bcc.n	8004606 <SysTick_Config+0x16>
  {
    return (1UL);                                                   /* Reload value impossible */
 8004602:	2301      	movs	r3, #1
 8004604:	e00f      	b.n	8004626 <SysTick_Config+0x36>
  }

  SysTick->LOAD  = (uint32_t)(ticks - 1UL);                         /* set reload register */
 8004606:	4a0a      	ldr	r2, [pc, #40]	@ (8004630 <SysTick_Config+0x40>)
 8004608:	687b      	ldr	r3, [r7, #4]
 800460a:	3b01      	subs	r3, #1
 800460c:	6053      	str	r3, [r2, #4]
  NVIC_SetPriority (SysTick_IRQn, (1UL << __NVIC_PRIO_BITS) - 1UL); /* set Priority for Systick Interrupt */
 800460e:	210f      	movs	r1, #15
 8004610:	f04f 30ff 	mov.w	r0, #4294967295
 8004614:	f7ff ff90 	bl	8004538 <__NVIC_SetPriority>
  SysTick->VAL   = 0UL;                                             /* Load the SysTick Counter Value */
 8004618:	4b05      	ldr	r3, [pc, #20]	@ (8004630 <SysTick_Config+0x40>)
 800461a:	2200      	movs	r2, #0
 800461c:	609a      	str	r2, [r3, #8]
  SysTick->CTRL  = SysTick_CTRL_CLKSOURCE_Msk |
 800461e:	4b04      	ldr	r3, [pc, #16]	@ (8004630 <SysTick_Config+0x40>)
 8004620:	2207      	movs	r2, #7
 8004622:	601a      	str	r2, [r3, #0]
                   SysTick_CTRL_TICKINT_Msk   |
                   SysTick_CTRL_ENABLE_Msk;                         /* Enable SysTick IRQ and SysTick Timer */
  return (0UL);                                                     /* Function successful */
 8004624:	2300      	movs	r3, #0
}
 8004626:	4618      	mov	r0, r3
 8004628:	3708      	adds	r7, #8
 800462a:	46bd      	mov	sp, r7
 800462c:	bd80      	pop	{r7, pc}
 800462e:	bf00      	nop
 8004630:	e000e010 	.word	0xe000e010

08004634 <HAL_NVIC_SetPriorityGrouping>:
  * @note   When the NVIC_PriorityGroup_0 is selected, IRQ preemption is no more possible. 
  *         The pending IRQ priority will be managed only by the subpriority. 
  * @retval None
  */
void HAL_NVIC_SetPriorityGrouping(uint32_t PriorityGroup)
{
 8004634:	b580      	push	{r7, lr}
 8004636:	b082      	sub	sp, #8
 8004638:	af00      	add	r7, sp, #0
 800463a:	6078      	str	r0, [r7, #4]
  /* Check the parameters */
  assert_param(IS_NVIC_PRIORITY_GROUP(PriorityGroup));
  
  /* Set the PRIGROUP[10:8] bits according to the PriorityGroup parameter value */
  NVIC_SetPriorityGrouping(PriorityGroup);
 800463c:	6878      	ldr	r0, [r7, #4]
 800463e:	f7ff ff2d 	bl	800449c <__NVIC_SetPriorityGrouping>
}
 8004642:	bf00      	nop
 8004644:	3708      	adds	r7, #8
 8004646:	46bd      	mov	sp, r7
 8004648:	bd80      	pop	{r7, pc}

0800464a <HAL_NVIC_SetPriority>:
  *         This parameter can be a value between 0 and 15
  *         A lower priority value indicates a higher priority.          
  * @retval None
  */
void HAL_NVIC_SetPriority(IRQn_Type IRQn, uint32_t PreemptPriority, uint32_t SubPriority)
{ 
 800464a:	b580      	push	{r7, lr}
 800464c:	b086      	sub	sp, #24
 800464e:	af00      	add	r7, sp, #0
 8004650:	4603      	mov	r3, r0
 8004652:	60b9      	str	r1, [r7, #8]
 8004654:	607a      	str	r2, [r7, #4]
 8004656:	73fb      	strb	r3, [r7, #15]
  uint32_t prioritygroup = 0x00U;
 8004658:	2300      	movs	r3, #0
 800465a:	617b      	str	r3, [r7, #20]
  
  /* Check the parameters */
  assert_param(IS_NVIC_SUB_PRIORITY(SubPriority));
  assert_param(IS_NVIC_PREEMPTION_PRIORITY(PreemptPriority));
  
  prioritygroup = NVIC_GetPriorityGrouping();
 800465c:	f7ff ff42 	bl	80044e4 <__NVIC_GetPriorityGrouping>
 8004660:	6178      	str	r0, [r7, #20]
  
  NVIC_SetPriority(IRQn, NVIC_EncodePriority(prioritygroup, PreemptPriority, SubPriority));
 8004662:	687a      	ldr	r2, [r7, #4]
 8004664:	68b9      	ldr	r1, [r7, #8]
 8004666:	6978      	ldr	r0, [r7, #20]
 8004668:	f7ff ff90 	bl	800458c <NVIC_EncodePriority>
 800466c:	4602      	mov	r2, r0
 800466e:	f997 300f 	ldrsb.w	r3, [r7, #15]
 8004672:	4611      	mov	r1, r2
 8004674:	4618      	mov	r0, r3
 8004676:	f7ff ff5f 	bl	8004538 <__NVIC_SetPriority>
}
 800467a:	bf00      	nop
 800467c:	3718      	adds	r7, #24
 800467e:	46bd      	mov	sp, r7
 8004680:	bd80      	pop	{r7, pc}

08004682 <HAL_NVIC_EnableIRQ>:
  *         This parameter can be an enumerator of IRQn_Type enumeration
  *         (For the complete STM32 Devices IRQ Channels list, please refer to the appropriate CMSIS device file (stm32f10xxx.h))
  * @retval None
  */
void HAL_NVIC_EnableIRQ(IRQn_Type IRQn)
{
 8004682:	b580      	push	{r7, lr}
 8004684:	b082      	sub	sp, #8
 8004686:	af00      	add	r7, sp, #0
 8004688:	4603      	mov	r3, r0
 800468a:	71fb      	strb	r3, [r7, #7]
  /* Check the parameters */
  assert_param(IS_NVIC_DEVICE_IRQ(IRQn));

  /* Enable interrupt */
  NVIC_EnableIRQ(IRQn);
 800468c:	f997 3007 	ldrsb.w	r3, [r7, #7]
 8004690:	4618      	mov	r0, r3
 8004692:	f7ff ff35 	bl	8004500 <__NVIC_EnableIRQ>
}
 8004696:	bf00      	nop
 8004698:	3708      	adds	r7, #8
 800469a:	46bd      	mov	sp, r7
 800469c:	bd80      	pop	{r7, pc}

0800469e <HAL_SYSTICK_Config>:
  * @param  TicksNumb: Specifies the ticks Number of ticks between two interrupts.
  * @retval status:  - 0  Function succeeded.
  *                  - 1  Function failed.
  */
uint32_t HAL_SYSTICK_Config(uint32_t TicksNumb)
{
 800469e:	b580      	push	{r7, lr}
 80046a0:	b082      	sub	sp, #8
 80046a2:	af00      	add	r7, sp, #0
 80046a4:	6078      	str	r0, [r7, #4]
   return SysTick_Config(TicksNumb);
 80046a6:	6878      	ldr	r0, [r7, #4]
 80046a8:	f7ff ffa2 	bl	80045f0 <SysTick_Config>
 80046ac:	4603      	mov	r3, r0
}
 80046ae:	4618      	mov	r0, r3
 80046b0:	3708      	adds	r7, #8
 80046b2:	46bd      	mov	sp, r7
 80046b4:	bd80      	pop	{r7, pc}
	...

080046b8 <HAL_DMA_Init>:
  * @param  hdma: Pointer to a DMA_HandleTypeDef structure that contains
  *               the configuration information for the specified DMA Channel.
  * @retval HAL status
  */
HAL_StatusTypeDef HAL_DMA_Init(DMA_HandleTypeDef *hdma)
{
 80046b8:	b480      	push	{r7}
 80046ba:	b085      	sub	sp, #20
 80046bc:	af00      	add	r7, sp, #0
 80046be:	6078      	str	r0, [r7, #4]
  uint32_t tmp = 0U;
 80046c0:	2300      	movs	r3, #0
 80046c2:	60fb      	str	r3, [r7, #12]

  /* Check the DMA handle allocation */
  if(hdma == NULL)
 80046c4:	687b      	ldr	r3, [r7, #4]
 80046c6:	2b00      	cmp	r3, #0
 80046c8:	d101      	bne.n	80046ce <HAL_DMA_Init+0x16>
  {
    return HAL_ERROR;
 80046ca:	2301      	movs	r3, #1
 80046cc:	e043      	b.n	8004756 <HAL_DMA_Init+0x9e>
    hdma->ChannelIndex = (((uint32_t)hdma->Instance - (uint32_t)DMA2_Channel1) / ((uint32_t)DMA2_Channel2 - (uint32_t)DMA2_Channel1)) << 2;
    hdma->DmaBaseAddress = DMA2;
  }
#else
  /* DMA1 */
  hdma->ChannelIndex = (((uint32_t)hdma->Instance - (uint32_t)DMA1_Channel1) / ((uint32_t)DMA1_Channel2 - (uint32_t)DMA1_Channel1)) << 2;
 80046ce:	687b      	ldr	r3, [r7, #4]
 80046d0:	681b      	ldr	r3, [r3, #0]
 80046d2:	461a      	mov	r2, r3
 80046d4:	4b22      	ldr	r3, [pc, #136]	@ (8004760 <HAL_DMA_Init+0xa8>)
 80046d6:	4413      	add	r3, r2
 80046d8:	4a22      	ldr	r2, [pc, #136]	@ (8004764 <HAL_DMA_Init+0xac>)
 80046da:	fba2 2303 	umull	r2, r3, r2, r3
 80046de:	091b      	lsrs	r3, r3, #4
 80046e0:	009a      	lsls	r2, r3, #2
 80046e2:	687b      	ldr	r3, [r7, #4]
 80046e4:	641a      	str	r2, [r3, #64]	@ 0x40
  hdma->DmaBaseAddress = DMA1;
 80046e6:	687b      	ldr	r3, [r7, #4]
 80046e8:	4a1f      	ldr	r2, [pc, #124]	@ (8004768 <HAL_DMA_Init+0xb0>)
 80046ea:	63da      	str	r2, [r3, #60]	@ 0x3c
#endif /* DMA2 */

  /* Change DMA peripheral state */
  hdma->State = HAL_DMA_STATE_BUSY;
 80046ec:	687b      	ldr	r3, [r7, #4]
 80046ee:	2202      	movs	r2, #2
 80046f0:	f883 2021 	strb.w	r2, [r3, #33]	@ 0x21

  /* Get the CR register value */
  tmp = hdma->Instance->CCR;
 80046f4:	687b      	ldr	r3, [r7, #4]
 80046f6:	681b      	ldr	r3, [r3, #0]
 80046f8:	681b      	ldr	r3, [r3, #0]
 80046fa:	60fb      	str	r3, [r7, #12]

  /* Clear PL, MSIZE, PSIZE, MINC, PINC, CIRC and DIR bits */
  tmp &= ((uint32_t)~(DMA_CCR_PL    | DMA_CCR_MSIZE  | DMA_CCR_PSIZE  | \
 80046fc:	68fb      	ldr	r3, [r7, #12]
 80046fe:	f423 537f 	bic.w	r3, r3, #16320	@ 0x3fc0
 8004702:	f023 0330 	bic.w	r3, r3, #48	@ 0x30
 8004706:	60fb      	str	r3, [r7, #12]
                      DMA_CCR_MINC  | DMA_CCR_PINC   | DMA_CCR_CIRC   | \
                      DMA_CCR_DIR));

  /* Prepare the DMA Channel configuration */
  tmp |=  hdma->Init.Direction        |
 8004708:	687b      	ldr	r3, [r7, #4]
 800470a:	685a      	ldr	r2, [r3, #4]
          hdma->Init.PeriphInc           | hdma->Init.MemInc           |
 800470c:	687b      	ldr	r3, [r7, #4]
 800470e:	689b      	ldr	r3, [r3, #8]
  tmp |=  hdma->Init.Direction        |
 8004710:	431a      	orrs	r2, r3
          hdma->Init.PeriphInc           | hdma->Init.MemInc           |
 8004712:	687b      	ldr	r3, [r7, #4]
 8004714:	68db      	ldr	r3, [r3, #12]
 8004716:	431a      	orrs	r2, r3
          hdma->Init.PeriphDataAlignment | hdma->Init.MemDataAlignment |
 8004718:	687b      	ldr	r3, [r7, #4]
 800471a:	691b      	ldr	r3, [r3, #16]
          hdma->Init.PeriphInc           | hdma->Init.MemInc           |
 800471c:	431a      	orrs	r2, r3
          hdma->Init.PeriphDataAlignment | hdma->Init.MemDataAlignment |
 800471e:	687b      	ldr	r3, [r7, #4]
 8004720:	695b      	ldr	r3, [r3, #20]
 8004722:	431a      	orrs	r2, r3
          hdma->Init.Mode                | hdma->Init.Priority;
 8004724:	687b      	ldr	r3, [r7, #4]
 8004726:	699b      	ldr	r3, [r3, #24]
          hdma->Init.PeriphDataAlignment | hdma->Init.MemDataAlignment |
 8004728:	431a      	orrs	r2, r3
          hdma->Init.Mode                | hdma->Init.Priority;
 800472a:	687b      	ldr	r3, [r7, #4]
 800472c:	69db      	ldr	r3, [r3, #28]
 800472e:	4313      	orrs	r3, r2
  tmp |=  hdma->Init.Direction        |
 8004730:	68fa      	ldr	r2, [r7, #12]
 8004732:	4313      	orrs	r3, r2
 8004734:	60fb      	str	r3, [r7, #12]

  /* Write to DMA Channel CR register */
  hdma->Instance->CCR = tmp;
 8004736:	687b      	ldr	r3, [r7, #4]
 8004738:	681b      	ldr	r3, [r3, #0]
 800473a:	68fa      	ldr	r2, [r7, #12]
 800473c:	601a      	str	r2, [r3, #0]

  /* Initialise the error code */
  hdma->ErrorCode = HAL_DMA_ERROR_NONE;
 800473e:	687b      	ldr	r3, [r7, #4]
 8004740:	2200      	movs	r2, #0
 8004742:	639a      	str	r2, [r3, #56]	@ 0x38

  /* Initialize the DMA state*/
  hdma->State = HAL_DMA_STATE_READY;
 8004744:	687b      	ldr	r3, [r7, #4]
 8004746:	2201      	movs	r2, #1
 8004748:	f883 2021 	strb.w	r2, [r3, #33]	@ 0x21
  /* Allocate lock resource and initialize it */
  hdma->Lock = HAL_UNLOCKED;
 800474c:	687b      	ldr	r3, [r7, #4]
 800474e:	2200      	movs	r2, #0
 8004750:	f883 2020 	strb.w	r2, [r3, #32]

  return HAL_OK;
 8004754:	2300      	movs	r3, #0
}
 8004756:	4618      	mov	r0, r3
 8004758:	3714      	adds	r7, #20
 800475a:	46bd      	mov	sp, r7
 800475c:	bc80      	pop	{r7}
 800475e:	4770      	bx	lr
 8004760:	bffdfff8 	.word	0xbffdfff8
 8004764:	cccccccd 	.word	0xcccccccd
 8004768:	40020000 	.word	0x40020000

0800476c <HAL_DMA_IRQHandler>:
  * @param  hdma: pointer to a DMA_HandleTypeDef structure that contains
  *               the configuration information for the specified DMA Channel.  
  * @retval None
  */
void HAL_DMA_IRQHandler(DMA_HandleTypeDef *hdma)
{
 800476c:	b580      	push	{r7, lr}
 800476e:	b084      	sub	sp, #16
 8004770:	af00      	add	r7, sp, #0
 8004772:	6078      	str	r0, [r7, #4]
  uint32_t flag_it = hdma->DmaBaseAddress->ISR;
 8004774:	687b      	ldr	r3, [r7, #4]
 8004776:	6bdb      	ldr	r3, [r3, #60]	@ 0x3c
 8004778:	681b      	ldr	r3, [r3, #0]
 800477a:	60fb      	str	r3, [r7, #12]
  uint32_t source_it = hdma->Instance->CCR;
 800477c:	687b      	ldr	r3, [r7, #4]
 800477e:	681b      	ldr	r3, [r3, #0]
 8004780:	681b      	ldr	r3, [r3, #0]
 8004782:	60bb      	str	r3, [r7, #8]
  
  /* Half Transfer Complete Interrupt management ******************************/
  if (((flag_it & (DMA_FLAG_HT1 << hdma->ChannelIndex)) != RESET) && ((source_it & DMA_IT_HT) != RESET))
 8004784:	687b      	ldr	r3, [r7, #4]
 8004786:	6c1b      	ldr	r3, [r3, #64]	@ 0x40
 8004788:	2204      	movs	r2, #4
 800478a:	409a      	lsls	r2, r3
 800478c:	68fb      	ldr	r3, [r7, #12]
 800478e:	4013      	ands	r3, r2
 8004790:	2b00      	cmp	r3, #0
 8004792:	d04f      	beq.n	8004834 <HAL_DMA_IRQHandler+0xc8>
 8004794:	68bb      	ldr	r3, [r7, #8]
 8004796:	f003 0304 	and.w	r3, r3, #4
 800479a:	2b00      	cmp	r3, #0
 800479c:	d04a      	beq.n	8004834 <HAL_DMA_IRQHandler+0xc8>
  {
    /* Disable the half transfer interrupt if the DMA mode is not CIRCULAR */
    if((hdma->Instance->CCR & DMA_CCR_CIRC) == 0U)
 800479e:	687b      	ldr	r3, [r7, #4]
 80047a0:	681b      	ldr	r3, [r3, #0]
 80047a2:	681b      	ldr	r3, [r3, #0]
 80047a4:	f003 0320 	and.w	r3, r3, #32
 80047a8:	2b00      	cmp	r3, #0
 80047aa:	d107      	bne.n	80047bc <HAL_DMA_IRQHandler+0x50>
    {
      /* Disable the half transfer interrupt */
      __HAL_DMA_DISABLE_IT(hdma, DMA_IT_HT);
 80047ac:	687b      	ldr	r3, [r7, #4]
 80047ae:	681b      	ldr	r3, [r3, #0]
 80047b0:	681a      	ldr	r2, [r3, #0]
 80047b2:	687b      	ldr	r3, [r7, #4]
 80047b4:	681b      	ldr	r3, [r3, #0]
 80047b6:	f022 0204 	bic.w	r2, r2, #4
 80047ba:	601a      	str	r2, [r3, #0]
    }
    /* Clear the half transfer complete flag */
    __HAL_DMA_CLEAR_FLAG(hdma, __HAL_DMA_GET_HT_FLAG_INDEX(hdma));
 80047bc:	687b      	ldr	r3, [r7, #4]
 80047be:	681b      	ldr	r3, [r3, #0]
 80047c0:	4a66      	ldr	r2, [pc, #408]	@ (800495c <HAL_DMA_IRQHandler+0x1f0>)
 80047c2:	4293      	cmp	r3, r2
 80047c4:	d029      	beq.n	800481a <HAL_DMA_IRQHandler+0xae>
 80047c6:	687b      	ldr	r3, [r7, #4]
 80047c8:	681b      	ldr	r3, [r3, #0]
 80047ca:	4a65      	ldr	r2, [pc, #404]	@ (8004960 <HAL_DMA_IRQHandler+0x1f4>)
 80047cc:	4293      	cmp	r3, r2
 80047ce:	d022      	beq.n	8004816 <HAL_DMA_IRQHandler+0xaa>
 80047d0:	687b      	ldr	r3, [r7, #4]
 80047d2:	681b      	ldr	r3, [r3, #0]
 80047d4:	4a63      	ldr	r2, [pc, #396]	@ (8004964 <HAL_DMA_IRQHandler+0x1f8>)
 80047d6:	4293      	cmp	r3, r2
 80047d8:	d01a      	beq.n	8004810 <HAL_DMA_IRQHandler+0xa4>
 80047da:	687b      	ldr	r3, [r7, #4]
 80047dc:	681b      	ldr	r3, [r3, #0]
 80047de:	4a62      	ldr	r2, [pc, #392]	@ (8004968 <HAL_DMA_IRQHandler+0x1fc>)
 80047e0:	4293      	cmp	r3, r2
 80047e2:	d012      	beq.n	800480a <HAL_DMA_IRQHandler+0x9e>
 80047e4:	687b      	ldr	r3, [r7, #4]
 80047e6:	681b      	ldr	r3, [r3, #0]
 80047e8:	4a60      	ldr	r2, [pc, #384]	@ (800496c <HAL_DMA_IRQHandler+0x200>)
 80047ea:	4293      	cmp	r3, r2
 80047ec:	d00a      	beq.n	8004804 <HAL_DMA_IRQHandler+0x98>
 80047ee:	687b      	ldr	r3, [r7, #4]
 80047f0:	681b      	ldr	r3, [r3, #0]
 80047f2:	4a5f      	ldr	r2, [pc, #380]	@ (8004970 <HAL_DMA_IRQHandler+0x204>)
 80047f4:	4293      	cmp	r3, r2
 80047f6:	d102      	bne.n	80047fe <HAL_DMA_IRQHandler+0x92>
 80047f8:	f44f 0380 	mov.w	r3, #4194304	@ 0x400000
 80047fc:	e00e      	b.n	800481c <HAL_DMA_IRQHandler+0xb0>
 80047fe:	f04f 6380 	mov.w	r3, #67108864	@ 0x4000000
 8004802:	e00b      	b.n	800481c <HAL_DMA_IRQHandler+0xb0>
 8004804:	f44f 2380 	mov.w	r3, #262144	@ 0x40000
 8004808:	e008      	b.n	800481c <HAL_DMA_IRQHandler+0xb0>
 800480a:	f44f 4380 	mov.w	r3, #16384	@ 0x4000
 800480e:	e005      	b.n	800481c <HAL_DMA_IRQHandler+0xb0>
 8004810:	f44f 6380 	mov.w	r3, #1024	@ 0x400
 8004814:	e002      	b.n	800481c <HAL_DMA_IRQHandler+0xb0>
 8004816:	2340      	movs	r3, #64	@ 0x40
 8004818:	e000      	b.n	800481c <HAL_DMA_IRQHandler+0xb0>
 800481a:	2304      	movs	r3, #4
 800481c:	4a55      	ldr	r2, [pc, #340]	@ (8004974 <HAL_DMA_IRQHandler+0x208>)
 800481e:	6053      	str	r3, [r2, #4]

    /* DMA peripheral state is not updated in Half Transfer */
    /* but in Transfer Complete case */

    if(hdma->XferHalfCpltCallback != NULL)
 8004820:	687b      	ldr	r3, [r7, #4]
 8004822:	6adb      	ldr	r3, [r3, #44]	@ 0x2c
 8004824:	2b00      	cmp	r3, #0
 8004826:	f000 8094 	beq.w	8004952 <HAL_DMA_IRQHandler+0x1e6>
    {
      /* Half transfer callback */
      hdma->XferHalfCpltCallback(hdma);
 800482a:	687b      	ldr	r3, [r7, #4]
 800482c:	6adb      	ldr	r3, [r3, #44]	@ 0x2c
 800482e:	6878      	ldr	r0, [r7, #4]
 8004830:	4798      	blx	r3
    if(hdma->XferHalfCpltCallback != NULL)
 8004832:	e08e      	b.n	8004952 <HAL_DMA_IRQHandler+0x1e6>
    }
  }

  /* Transfer Complete Interrupt management ***********************************/
  else if (((flag_it & (DMA_FLAG_TC1 << hdma->ChannelIndex)) != RESET) && ((source_it & DMA_IT_TC) != RESET))
 8004834:	687b      	ldr	r3, [r7, #4]
 8004836:	6c1b      	ldr	r3, [r3, #64]	@ 0x40
 8004838:	2202      	movs	r2, #2
 800483a:	409a      	lsls	r2, r3
 800483c:	68fb      	ldr	r3, [r7, #12]
 800483e:	4013      	ands	r3, r2
 8004840:	2b00      	cmp	r3, #0
 8004842:	d056      	beq.n	80048f2 <HAL_DMA_IRQHandler+0x186>
 8004844:	68bb      	ldr	r3, [r7, #8]
 8004846:	f003 0302 	and.w	r3, r3, #2
 800484a:	2b00      	cmp	r3, #0
 800484c:	d051      	beq.n	80048f2 <HAL_DMA_IRQHandler+0x186>
  {
    if((hdma->Instance->CCR & DMA_CCR_CIRC) == 0U)
 800484e:	687b      	ldr	r3, [r7, #4]
 8004850:	681b      	ldr	r3, [r3, #0]
 8004852:	681b      	ldr	r3, [r3, #0]
 8004854:	f003 0320 	and.w	r3, r3, #32
 8004858:	2b00      	cmp	r3, #0
 800485a:	d10b      	bne.n	8004874 <HAL_DMA_IRQHandler+0x108>
    {
      /* Disable the transfer complete and error interrupt */
      __HAL_DMA_DISABLE_IT(hdma, DMA_IT_TE | DMA_IT_TC);  
 800485c:	687b      	ldr	r3, [r7, #4]
 800485e:	681b      	ldr	r3, [r3, #0]
 8004860:	681a      	ldr	r2, [r3, #0]
 8004862:	687b      	ldr	r3, [r7, #4]
 8004864:	681b      	ldr	r3, [r3, #0]
 8004866:	f022 020a 	bic.w	r2, r2, #10
 800486a:	601a      	str	r2, [r3, #0]

      /* Change the DMA state */
      hdma->State = HAL_DMA_STATE_READY;
 800486c:	687b      	ldr	r3, [r7, #4]
 800486e:	2201      	movs	r2, #1
 8004870:	f883 2021 	strb.w	r2, [r3, #33]	@ 0x21
    }
    /* Clear the transfer complete flag */
      __HAL_DMA_CLEAR_FLAG(hdma, __HAL_DMA_GET_TC_FLAG_INDEX(hdma));
 8004874:	687b      	ldr	r3, [r7, #4]
 8004876:	681b      	ldr	r3, [r3, #0]
 8004878:	4a38      	ldr	r2, [pc, #224]	@ (800495c <HAL_DMA_IRQHandler+0x1f0>)
 800487a:	4293      	cmp	r3, r2
 800487c:	d029      	beq.n	80048d2 <HAL_DMA_IRQHandler+0x166>
 800487e:	687b      	ldr	r3, [r7, #4]
 8004880:	681b      	ldr	r3, [r3, #0]
 8004882:	4a37      	ldr	r2, [pc, #220]	@ (8004960 <HAL_DMA_IRQHandler+0x1f4>)
 8004884:	4293      	cmp	r3, r2
 8004886:	d022      	beq.n	80048ce <HAL_DMA_IRQHandler+0x162>
 8004888:	687b      	ldr	r3, [r7, #4]
 800488a:	681b      	ldr	r3, [r3, #0]
 800488c:	4a35      	ldr	r2, [pc, #212]	@ (8004964 <HAL_DMA_IRQHandler+0x1f8>)
 800488e:	4293      	cmp	r3, r2
 8004890:	d01a      	beq.n	80048c8 <HAL_DMA_IRQHandler+0x15c>
 8004892:	687b      	ldr	r3, [r7, #4]
 8004894:	681b      	ldr	r3, [r3, #0]
 8004896:	4a34      	ldr	r2, [pc, #208]	@ (8004968 <HAL_DMA_IRQHandler+0x1fc>)
 8004898:	4293      	cmp	r3, r2
 800489a:	d012      	beq.n	80048c2 <HAL_DMA_IRQHandler+0x156>
 800489c:	687b      	ldr	r3, [r7, #4]
 800489e:	681b      	ldr	r3, [r3, #0]
 80048a0:	4a32      	ldr	r2, [pc, #200]	@ (800496c <HAL_DMA_IRQHandler+0x200>)
 80048a2:	4293      	cmp	r3, r2
 80048a4:	d00a      	beq.n	80048bc <HAL_DMA_IRQHandler+0x150>
 80048a6:	687b      	ldr	r3, [r7, #4]
 80048a8:	681b      	ldr	r3, [r3, #0]
 80048aa:	4a31      	ldr	r2, [pc, #196]	@ (8004970 <HAL_DMA_IRQHandler+0x204>)
 80048ac:	4293      	cmp	r3, r2
 80048ae:	d102      	bne.n	80048b6 <HAL_DMA_IRQHandler+0x14a>
 80048b0:	f44f 1300 	mov.w	r3, #2097152	@ 0x200000
 80048b4:	e00e      	b.n	80048d4 <HAL_DMA_IRQHandler+0x168>
 80048b6:	f04f 7300 	mov.w	r3, #33554432	@ 0x2000000
 80048ba:	e00b      	b.n	80048d4 <HAL_DMA_IRQHandler+0x168>
 80048bc:	f44f 3300 	mov.w	r3, #131072	@ 0x20000
 80048c0:	e008      	b.n	80048d4 <HAL_DMA_IRQHandler+0x168>
 80048c2:	f44f 5300 	mov.w	r3, #8192	@ 0x2000
 80048c6:	e005      	b.n	80048d4 <HAL_DMA_IRQHandler+0x168>
 80048c8:	f44f 7300 	mov.w	r3, #512	@ 0x200
 80048cc:	e002      	b.n	80048d4 <HAL_DMA_IRQHandler+0x168>
 80048ce:	2320      	movs	r3, #32
 80048d0:	e000      	b.n	80048d4 <HAL_DMA_IRQHandler+0x168>
 80048d2:	2302      	movs	r3, #2
 80048d4:	4a27      	ldr	r2, [pc, #156]	@ (8004974 <HAL_DMA_IRQHandler+0x208>)
 80048d6:	6053      	str	r3, [r2, #4]

    /* Process Unlocked */
    __HAL_UNLOCK(hdma);
 80048d8:	687b      	ldr	r3, [r7, #4]
 80048da:	2200      	movs	r2, #0
 80048dc:	f883 2020 	strb.w	r2, [r3, #32]

    if(hdma->XferCpltCallback != NULL)
 80048e0:	687b      	ldr	r3, [r7, #4]
 80048e2:	6a9b      	ldr	r3, [r3, #40]	@ 0x28
 80048e4:	2b00      	cmp	r3, #0
 80048e6:	d034      	beq.n	8004952 <HAL_DMA_IRQHandler+0x1e6>
    {
      /* Transfer complete callback */
      hdma->XferCpltCallback(hdma);
 80048e8:	687b      	ldr	r3, [r7, #4]
 80048ea:	6a9b      	ldr	r3, [r3, #40]	@ 0x28
 80048ec:	6878      	ldr	r0, [r7, #4]
 80048ee:	4798      	blx	r3
    if(hdma->XferCpltCallback != NULL)
 80048f0:	e02f      	b.n	8004952 <HAL_DMA_IRQHandler+0x1e6>
    }
  }

  /* Transfer Error Interrupt management **************************************/
  else if (( RESET != (flag_it & (DMA_FLAG_TE1 << hdma->ChannelIndex))) && (RESET != (source_it & DMA_IT_TE)))
 80048f2:	687b      	ldr	r3, [r7, #4]
 80048f4:	6c1b      	ldr	r3, [r3, #64]	@ 0x40
 80048f6:	2208      	movs	r2, #8
 80048f8:	409a      	lsls	r2, r3
 80048fa:	68fb      	ldr	r3, [r7, #12]
 80048fc:	4013      	ands	r3, r2
 80048fe:	2b00      	cmp	r3, #0
 8004900:	d028      	beq.n	8004954 <HAL_DMA_IRQHandler+0x1e8>
 8004902:	68bb      	ldr	r3, [r7, #8]
 8004904:	f003 0308 	and.w	r3, r3, #8
 8004908:	2b00      	cmp	r3, #0
 800490a:	d023      	beq.n	8004954 <HAL_DMA_IRQHandler+0x1e8>
  {
    /* When a DMA transfer error occurs */
    /* A hardware clear of its EN bits is performed */
    /* Disable ALL DMA IT */
    __HAL_DMA_DISABLE_IT(hdma, (DMA_IT_TC | DMA_IT_HT | DMA_IT_TE));
 800490c:	687b      	ldr	r3, [r7, #4]
 800490e:	681b      	ldr	r3, [r3, #0]
 8004910:	681a      	ldr	r2, [r3, #0]
 8004912:	687b      	ldr	r3, [r7, #4]
 8004914:	681b      	ldr	r3, [r3, #0]
 8004916:	f022 020e 	bic.w	r2, r2, #14
 800491a:	601a      	str	r2, [r3, #0]

    /* Clear all flags */
    hdma->DmaBaseAddress->IFCR = (DMA_ISR_GIF1 << hdma->ChannelIndex);
 800491c:	687b      	ldr	r3, [r7, #4]
 800491e:	6c1a      	ldr	r2, [r3, #64]	@ 0x40
 8004920:	687b      	ldr	r3, [r7, #4]
 8004922:	6bdb      	ldr	r3, [r3, #60]	@ 0x3c
 8004924:	2101      	movs	r1, #1
 8004926:	fa01 f202 	lsl.w	r2, r1, r2
 800492a:	605a      	str	r2, [r3, #4]

    /* Update error code */
    hdma->ErrorCode = HAL_DMA_ERROR_TE;
 800492c:	687b      	ldr	r3, [r7, #4]
 800492e:	2201      	movs	r2, #1
 8004930:	639a      	str	r2, [r3, #56]	@ 0x38

    /* Change the DMA state */
    hdma->State = HAL_DMA_STATE_READY;
 8004932:	687b      	ldr	r3, [r7, #4]
 8004934:	2201      	movs	r2, #1
 8004936:	f883 2021 	strb.w	r2, [r3, #33]	@ 0x21

    /* Process Unlocked */
    __HAL_UNLOCK(hdma);
 800493a:	687b      	ldr	r3, [r7, #4]
 800493c:	2200      	movs	r2, #0
 800493e:	f883 2020 	strb.w	r2, [r3, #32]

    if (hdma->XferErrorCallback != NULL)
 8004942:	687b      	ldr	r3, [r7, #4]
 8004944:	6b1b      	ldr	r3, [r3, #48]	@ 0x30
 8004946:	2b00      	cmp	r3, #0
 8004948:	d004      	beq.n	8004954 <HAL_DMA_IRQHandler+0x1e8>
    {
      /* Transfer error callback */
      hdma->XferErrorCallback(hdma);
 800494a:	687b      	ldr	r3, [r7, #4]
 800494c:	6b1b      	ldr	r3, [r3, #48]	@ 0x30
 800494e:	6878      	ldr	r0, [r7, #4]
 8004950:	4798      	blx	r3
    }
  }
  return;
 8004952:	bf00      	nop
 8004954:	bf00      	nop
}
 8004956:	3710      	adds	r7, #16
 8004958:	46bd      	mov	sp, r7
 800495a:	bd80      	pop	{r7, pc}
 800495c:	40020008 	.word	0x40020008
 8004960:	4002001c 	.word	0x4002001c
 8004964:	40020030 	.word	0x40020030
 8004968:	40020044 	.word	0x40020044
 800496c:	40020058 	.word	0x40020058
 8004970:	4002006c 	.word	0x4002006c
 8004974:	40020000 	.word	0x40020000

08004978 <HAL_GPIO_Init>:
  * @param  GPIO_Init: pointer to a GPIO_InitTypeDef structure that contains
  *         the configuration information for the specified GPIO peripheral.
  * @retval None
  */
void HAL_GPIO_Init(GPIO_TypeDef  *GPIOx, GPIO_InitTypeDef *GPIO_Init)
{
 8004978:	b480      	push	{r7}
 800497a:	b08b      	sub	sp, #44	@ 0x2c
 800497c:	af00      	add	r7, sp, #0
 800497e:	6078      	str	r0, [r7, #4]
 8004980:	6039      	str	r1, [r7, #0]
  uint32_t position = 0x00u;
 8004982:	2300      	movs	r3, #0
 8004984:	627b      	str	r3, [r7, #36]	@ 0x24
  uint32_t ioposition;
  uint32_t iocurrent;
  uint32_t temp;
  uint32_t config = 0x00u;
 8004986:	2300      	movs	r3, #0
 8004988:	623b      	str	r3, [r7, #32]
  assert_param(IS_GPIO_ALL_INSTANCE(GPIOx));
  assert_param(IS_GPIO_PIN(GPIO_Init->Pin));
  assert_param(IS_GPIO_MODE(GPIO_Init->Mode));

  /* Configure the port pins */
  while (((GPIO_Init->Pin) >> position) != 0x00u)
 800498a:	e169      	b.n	8004c60 <HAL_GPIO_Init+0x2e8>
  {
    /* Get the IO position */
    ioposition = (0x01uL << position);
 800498c:	2201      	movs	r2, #1
 800498e:	6a7b      	ldr	r3, [r7, #36]	@ 0x24
 8004990:	fa02 f303 	lsl.w	r3, r2, r3
 8004994:	61fb      	str	r3, [r7, #28]

    /* Get the current IO position */
    iocurrent = (uint32_t)(GPIO_Init->Pin) & ioposition;
 8004996:	683b      	ldr	r3, [r7, #0]
 8004998:	681b      	ldr	r3, [r3, #0]
 800499a:	69fa      	ldr	r2, [r7, #28]
 800499c:	4013      	ands	r3, r2
 800499e:	61bb      	str	r3, [r7, #24]

    if (iocurrent == ioposition)
 80049a0:	69ba      	ldr	r2, [r7, #24]
 80049a2:	69fb      	ldr	r3, [r7, #28]
 80049a4:	429a      	cmp	r2, r3
 80049a6:	f040 8158 	bne.w	8004c5a <HAL_GPIO_Init+0x2e2>
    {
      /* Check the Alternate function parameters */
      assert_param(IS_GPIO_AF_INSTANCE(GPIOx));

      /* Based on the required mode, filling config variable with MODEy[1:0] and CNFy[3:2] corresponding bits */
      switch (GPIO_Init->Mode)
 80049aa:	683b      	ldr	r3, [r7, #0]
 80049ac:	685b      	ldr	r3, [r3, #4]
 80049ae:	4a9a      	ldr	r2, [pc, #616]	@ (8004c18 <HAL_GPIO_Init+0x2a0>)
 80049b0:	4293      	cmp	r3, r2
 80049b2:	d05e      	beq.n	8004a72 <HAL_GPIO_Init+0xfa>
 80049b4:	4a98      	ldr	r2, [pc, #608]	@ (8004c18 <HAL_GPIO_Init+0x2a0>)
 80049b6:	4293      	cmp	r3, r2
 80049b8:	d875      	bhi.n	8004aa6 <HAL_GPIO_Init+0x12e>
 80049ba:	4a98      	ldr	r2, [pc, #608]	@ (8004c1c <HAL_GPIO_Init+0x2a4>)
 80049bc:	4293      	cmp	r3, r2
 80049be:	d058      	beq.n	8004a72 <HAL_GPIO_Init+0xfa>
 80049c0:	4a96      	ldr	r2, [pc, #600]	@ (8004c1c <HAL_GPIO_Init+0x2a4>)
 80049c2:	4293      	cmp	r3, r2
 80049c4:	d86f      	bhi.n	8004aa6 <HAL_GPIO_Init+0x12e>
 80049c6:	4a96      	ldr	r2, [pc, #600]	@ (8004c20 <HAL_GPIO_Init+0x2a8>)
 80049c8:	4293      	cmp	r3, r2
 80049ca:	d052      	beq.n	8004a72 <HAL_GPIO_Init+0xfa>
 80049cc:	4a94      	ldr	r2, [pc, #592]	@ (8004c20 <HAL_GPIO_Init+0x2a8>)
 80049ce:	4293      	cmp	r3, r2
 80049d0:	d869      	bhi.n	8004aa6 <HAL_GPIO_Init+0x12e>
 80049d2:	4a94      	ldr	r2, [pc, #592]	@ (8004c24 <HAL_GPIO_Init+0x2ac>)
 80049d4:	4293      	cmp	r3, r2
 80049d6:	d04c      	beq.n	8004a72 <HAL_GPIO_Init+0xfa>
 80049d8:	4a92      	ldr	r2, [pc, #584]	@ (8004c24 <HAL_GPIO_Init+0x2ac>)
 80049da:	4293      	cmp	r3, r2
 80049dc:	d863      	bhi.n	8004aa6 <HAL_GPIO_Init+0x12e>
 80049de:	4a92      	ldr	r2, [pc, #584]	@ (8004c28 <HAL_GPIO_Init+0x2b0>)
 80049e0:	4293      	cmp	r3, r2
 80049e2:	d046      	beq.n	8004a72 <HAL_GPIO_Init+0xfa>
 80049e4:	4a90      	ldr	r2, [pc, #576]	@ (8004c28 <HAL_GPIO_Init+0x2b0>)
 80049e6:	4293      	cmp	r3, r2
 80049e8:	d85d      	bhi.n	8004aa6 <HAL_GPIO_Init+0x12e>
 80049ea:	2b12      	cmp	r3, #18
 80049ec:	d82a      	bhi.n	8004a44 <HAL_GPIO_Init+0xcc>
 80049ee:	2b12      	cmp	r3, #18
 80049f0:	d859      	bhi.n	8004aa6 <HAL_GPIO_Init+0x12e>
 80049f2:	a201      	add	r2, pc, #4	@ (adr r2, 80049f8 <HAL_GPIO_Init+0x80>)
 80049f4:	f852 f023 	ldr.w	pc, [r2, r3, lsl #2]
 80049f8:	08004a73 	.word	0x08004a73
 80049fc:	08004a4d 	.word	0x08004a4d
 8004a00:	08004a5f 	.word	0x08004a5f
 8004a04:	08004aa1 	.word	0x08004aa1
 8004a08:	08004aa7 	.word	0x08004aa7
 8004a0c:	08004aa7 	.word	0x08004aa7
 8004a10:	08004aa7 	.word	0x08004aa7
 8004a14:	08004aa7 	.word	0x08004aa7
 8004a18:	08004aa7 	.word	0x08004aa7
 8004a1c:	08004aa7 	.word	0x08004aa7
 8004a20:	08004aa7 	.word	0x08004aa7
 8004a24:	08004aa7 	.word	0x08004aa7
 8004a28:	08004aa7 	.word	0x08004aa7
 8004a2c:	08004aa7 	.word	0x08004aa7
 8004a30:	08004aa7 	.word	0x08004aa7
 8004a34:	08004aa7 	.word	0x08004aa7
 8004a38:	08004aa7 	.word	0x08004aa7
 8004a3c:	08004a55 	.word	0x08004a55
 8004a40:	08004a69 	.word	0x08004a69
 8004a44:	4a79      	ldr	r2, [pc, #484]	@ (8004c2c <HAL_GPIO_Init+0x2b4>)
 8004a46:	4293      	cmp	r3, r2
 8004a48:	d013      	beq.n	8004a72 <HAL_GPIO_Init+0xfa>
          config = GPIO_CR_MODE_INPUT + GPIO_CR_CNF_ANALOG;
          break;

        /* Parameters are checked with assert_param */
        default:
          break;
 8004a4a:	e02c      	b.n	8004aa6 <HAL_GPIO_Init+0x12e>
          config = GPIO_Init->Speed + GPIO_CR_CNF_GP_OUTPUT_PP;
 8004a4c:	683b      	ldr	r3, [r7, #0]
 8004a4e:	68db      	ldr	r3, [r3, #12]
 8004a50:	623b      	str	r3, [r7, #32]
          break;
 8004a52:	e029      	b.n	8004aa8 <HAL_GPIO_Init+0x130>
          config = GPIO_Init->Speed + GPIO_CR_CNF_GP_OUTPUT_OD;
 8004a54:	683b      	ldr	r3, [r7, #0]
 8004a56:	68db      	ldr	r3, [r3, #12]
 8004a58:	3304      	adds	r3, #4
 8004a5a:	623b      	str	r3, [r7, #32]
          break;
 8004a5c:	e024      	b.n	8004aa8 <HAL_GPIO_Init+0x130>
          config = GPIO_Init->Speed + GPIO_CR_CNF_AF_OUTPUT_PP;
 8004a5e:	683b      	ldr	r3, [r7, #0]
 8004a60:	68db      	ldr	r3, [r3, #12]
 8004a62:	3308      	adds	r3, #8
 8004a64:	623b      	str	r3, [r7, #32]
          break;
 8004a66:	e01f      	b.n	8004aa8 <HAL_GPIO_Init+0x130>
          config = GPIO_Init->Speed + GPIO_CR_CNF_AF_OUTPUT_OD;
 8004a68:	683b      	ldr	r3, [r7, #0]
 8004a6a:	68db      	ldr	r3, [r3, #12]
 8004a6c:	330c      	adds	r3, #12
 8004a6e:	623b      	str	r3, [r7, #32]
          break;
 8004a70:	e01a      	b.n	8004aa8 <HAL_GPIO_Init+0x130>
          if (GPIO_Init->Pull == GPIO_NOPULL)
 8004a72:	683b      	ldr	r3, [r7, #0]
 8004a74:	689b      	ldr	r3, [r3, #8]
 8004a76:	2b00      	cmp	r3, #0
 8004a78:	d102      	bne.n	8004a80 <HAL_GPIO_Init+0x108>
            config = GPIO_CR_MODE_INPUT + GPIO_CR_CNF_INPUT_FLOATING;
 8004a7a:	2304      	movs	r3, #4
 8004a7c:	623b      	str	r3, [r7, #32]
          break;
 8004a7e:	e013      	b.n	8004aa8 <HAL_GPIO_Init+0x130>
          else if (GPIO_Init->Pull == GPIO_PULLUP)
 8004a80:	683b      	ldr	r3, [r7, #0]
 8004a82:	689b      	ldr	r3, [r3, #8]
 8004a84:	2b01      	cmp	r3, #1
 8004a86:	d105      	bne.n	8004a94 <HAL_GPIO_Init+0x11c>
            config = GPIO_CR_MODE_INPUT + GPIO_CR_CNF_INPUT_PU_PD;
 8004a88:	2308      	movs	r3, #8
 8004a8a:	623b      	str	r3, [r7, #32]
            GPIOx->BSRR = ioposition;
 8004a8c:	687b      	ldr	r3, [r7, #4]
 8004a8e:	69fa      	ldr	r2, [r7, #28]
 8004a90:	611a      	str	r2, [r3, #16]
          break;
 8004a92:	e009      	b.n	8004aa8 <HAL_GPIO_Init+0x130>
            config = GPIO_CR_MODE_INPUT + GPIO_CR_CNF_INPUT_PU_PD;
 8004a94:	2308      	movs	r3, #8
 8004a96:	623b      	str	r3, [r7, #32]
            GPIOx->BRR = ioposition;
 8004a98:	687b      	ldr	r3, [r7, #4]
 8004a9a:	69fa      	ldr	r2, [r7, #28]
 8004a9c:	615a      	str	r2, [r3, #20]
          break;
 8004a9e:	e003      	b.n	8004aa8 <HAL_GPIO_Init+0x130>
          config = GPIO_CR_MODE_INPUT + GPIO_CR_CNF_ANALOG;
 8004aa0:	2300      	movs	r3, #0
 8004aa2:	623b      	str	r3, [r7, #32]
          break;
 8004aa4:	e000      	b.n	8004aa8 <HAL_GPIO_Init+0x130>
          break;
 8004aa6:	bf00      	nop
      }

      /* Check if the current bit belongs to first half or last half of the pin count number
       in order to address CRH or CRL register*/
      configregister = (iocurrent < GPIO_PIN_8) ? &GPIOx->CRL     : &GPIOx->CRH;
 8004aa8:	69bb      	ldr	r3, [r7, #24]
 8004aaa:	2bff      	cmp	r3, #255	@ 0xff
 8004aac:	d801      	bhi.n	8004ab2 <HAL_GPIO_Init+0x13a>
 8004aae:	687b      	ldr	r3, [r7, #4]
 8004ab0:	e001      	b.n	8004ab6 <HAL_GPIO_Init+0x13e>
 8004ab2:	687b      	ldr	r3, [r7, #4]
 8004ab4:	3304      	adds	r3, #4
 8004ab6:	617b      	str	r3, [r7, #20]
      registeroffset = (iocurrent < GPIO_PIN_8) ? (position << 2u) : ((position - 8u) << 2u);
 8004ab8:	69bb      	ldr	r3, [r7, #24]
 8004aba:	2bff      	cmp	r3, #255	@ 0xff
 8004abc:	d802      	bhi.n	8004ac4 <HAL_GPIO_Init+0x14c>
 8004abe:	6a7b      	ldr	r3, [r7, #36]	@ 0x24
 8004ac0:	009b      	lsls	r3, r3, #2
 8004ac2:	e002      	b.n	8004aca <HAL_GPIO_Init+0x152>
 8004ac4:	6a7b      	ldr	r3, [r7, #36]	@ 0x24
 8004ac6:	3b08      	subs	r3, #8
 8004ac8:	009b      	lsls	r3, r3, #2
 8004aca:	613b      	str	r3, [r7, #16]

      /* Apply the new configuration of the pin to the register */
      MODIFY_REG((*configregister), ((GPIO_CRL_MODE0 | GPIO_CRL_CNF0) << registeroffset), (config << registeroffset));
 8004acc:	697b      	ldr	r3, [r7, #20]
 8004ace:	681a      	ldr	r2, [r3, #0]
 8004ad0:	210f      	movs	r1, #15
 8004ad2:	693b      	ldr	r3, [r7, #16]
 8004ad4:	fa01 f303 	lsl.w	r3, r1, r3
 8004ad8:	43db      	mvns	r3, r3
 8004ada:	401a      	ands	r2, r3
 8004adc:	6a39      	ldr	r1, [r7, #32]
 8004ade:	693b      	ldr	r3, [r7, #16]
 8004ae0:	fa01 f303 	lsl.w	r3, r1, r3
 8004ae4:	431a      	orrs	r2, r3
 8004ae6:	697b      	ldr	r3, [r7, #20]
 8004ae8:	601a      	str	r2, [r3, #0]

      /*--------------------- EXTI Mode Configuration ------------------------*/
      /* Configure the External Interrupt or event for the current IO */
      if ((GPIO_Init->Mode & EXTI_MODE) == EXTI_MODE)
 8004aea:	683b      	ldr	r3, [r7, #0]
 8004aec:	685b      	ldr	r3, [r3, #4]
 8004aee:	f003 5380 	and.w	r3, r3, #268435456	@ 0x10000000
 8004af2:	2b00      	cmp	r3, #0
 8004af4:	f000 80b1 	beq.w	8004c5a <HAL_GPIO_Init+0x2e2>
      {
        /* Enable AFIO Clock */
        __HAL_RCC_AFIO_CLK_ENABLE();
 8004af8:	4b4d      	ldr	r3, [pc, #308]	@ (8004c30 <HAL_GPIO_Init+0x2b8>)
 8004afa:	699b      	ldr	r3, [r3, #24]
 8004afc:	4a4c      	ldr	r2, [pc, #304]	@ (8004c30 <HAL_GPIO_Init+0x2b8>)
 8004afe:	f043 0301 	orr.w	r3, r3, #1
 8004b02:	6193      	str	r3, [r2, #24]
 8004b04:	4b4a      	ldr	r3, [pc, #296]	@ (8004c30 <HAL_GPIO_Init+0x2b8>)
 8004b06:	699b      	ldr	r3, [r3, #24]
 8004b08:	f003 0301 	and.w	r3, r3, #1
 8004b0c:	60bb      	str	r3, [r7, #8]
 8004b0e:	68bb      	ldr	r3, [r7, #8]
        temp = AFIO->EXTICR[position >> 2u];
 8004b10:	4a48      	ldr	r2, [pc, #288]	@ (8004c34 <HAL_GPIO_Init+0x2bc>)
 8004b12:	6a7b      	ldr	r3, [r7, #36]	@ 0x24
 8004b14:	089b      	lsrs	r3, r3, #2
 8004b16:	3302      	adds	r3, #2
 8004b18:	f852 3023 	ldr.w	r3, [r2, r3, lsl #2]
 8004b1c:	60fb      	str	r3, [r7, #12]
        CLEAR_BIT(temp, (0x0Fu) << (4u * (position & 0x03u)));
 8004b1e:	6a7b      	ldr	r3, [r7, #36]	@ 0x24
 8004b20:	f003 0303 	and.w	r3, r3, #3
 8004b24:	009b      	lsls	r3, r3, #2
 8004b26:	220f      	movs	r2, #15
 8004b28:	fa02 f303 	lsl.w	r3, r2, r3
 8004b2c:	43db      	mvns	r3, r3
 8004b2e:	68fa      	ldr	r2, [r7, #12]
 8004b30:	4013      	ands	r3, r2
 8004b32:	60fb      	str	r3, [r7, #12]
        SET_BIT(temp, (GPIO_GET_INDEX(GPIOx)) << (4u * (position & 0x03u)));
 8004b34:	687b      	ldr	r3, [r7, #4]
 8004b36:	4a40      	ldr	r2, [pc, #256]	@ (8004c38 <HAL_GPIO_Init+0x2c0>)
 8004b38:	4293      	cmp	r3, r2
 8004b3a:	d013      	beq.n	8004b64 <HAL_GPIO_Init+0x1ec>
 8004b3c:	687b      	ldr	r3, [r7, #4]
 8004b3e:	4a3f      	ldr	r2, [pc, #252]	@ (8004c3c <HAL_GPIO_Init+0x2c4>)
 8004b40:	4293      	cmp	r3, r2
 8004b42:	d00d      	beq.n	8004b60 <HAL_GPIO_Init+0x1e8>
 8004b44:	687b      	ldr	r3, [r7, #4]
 8004b46:	4a3e      	ldr	r2, [pc, #248]	@ (8004c40 <HAL_GPIO_Init+0x2c8>)
 8004b48:	4293      	cmp	r3, r2
 8004b4a:	d007      	beq.n	8004b5c <HAL_GPIO_Init+0x1e4>
 8004b4c:	687b      	ldr	r3, [r7, #4]
 8004b4e:	4a3d      	ldr	r2, [pc, #244]	@ (8004c44 <HAL_GPIO_Init+0x2cc>)
 8004b50:	4293      	cmp	r3, r2
 8004b52:	d101      	bne.n	8004b58 <HAL_GPIO_Init+0x1e0>
 8004b54:	2303      	movs	r3, #3
 8004b56:	e006      	b.n	8004b66 <HAL_GPIO_Init+0x1ee>
 8004b58:	2304      	movs	r3, #4
 8004b5a:	e004      	b.n	8004b66 <HAL_GPIO_Init+0x1ee>
 8004b5c:	2302      	movs	r3, #2
 8004b5e:	e002      	b.n	8004b66 <HAL_GPIO_Init+0x1ee>
 8004b60:	2301      	movs	r3, #1
 8004b62:	e000      	b.n	8004b66 <HAL_GPIO_Init+0x1ee>
 8004b64:	2300      	movs	r3, #0
 8004b66:	6a7a      	ldr	r2, [r7, #36]	@ 0x24
 8004b68:	f002 0203 	and.w	r2, r2, #3
 8004b6c:	0092      	lsls	r2, r2, #2
 8004b6e:	4093      	lsls	r3, r2
 8004b70:	68fa      	ldr	r2, [r7, #12]
 8004b72:	4313      	orrs	r3, r2
 8004b74:	60fb      	str	r3, [r7, #12]
        AFIO->EXTICR[position >> 2u] = temp;
 8004b76:	492f      	ldr	r1, [pc, #188]	@ (8004c34 <HAL_GPIO_Init+0x2bc>)
 8004b78:	6a7b      	ldr	r3, [r7, #36]	@ 0x24
 8004b7a:	089b      	lsrs	r3, r3, #2
 8004b7c:	3302      	adds	r3, #2
 8004b7e:	68fa      	ldr	r2, [r7, #12]
 8004b80:	f841 2023 	str.w	r2, [r1, r3, lsl #2]


        /* Enable or disable the rising trigger */
        if ((GPIO_Init->Mode & RISING_EDGE) == RISING_EDGE)
 8004b84:	683b      	ldr	r3, [r7, #0]
 8004b86:	685b      	ldr	r3, [r3, #4]
 8004b88:	f403 1380 	and.w	r3, r3, #1048576	@ 0x100000
 8004b8c:	2b00      	cmp	r3, #0
 8004b8e:	d006      	beq.n	8004b9e <HAL_GPIO_Init+0x226>
        {
          SET_BIT(EXTI->RTSR, iocurrent);
 8004b90:	4b2d      	ldr	r3, [pc, #180]	@ (8004c48 <HAL_GPIO_Init+0x2d0>)
 8004b92:	689a      	ldr	r2, [r3, #8]
 8004b94:	492c      	ldr	r1, [pc, #176]	@ (8004c48 <HAL_GPIO_Init+0x2d0>)
 8004b96:	69bb      	ldr	r3, [r7, #24]
 8004b98:	4313      	orrs	r3, r2
 8004b9a:	608b      	str	r3, [r1, #8]
 8004b9c:	e006      	b.n	8004bac <HAL_GPIO_Init+0x234>
        }
        else
        {
          CLEAR_BIT(EXTI->RTSR, iocurrent);
 8004b9e:	4b2a      	ldr	r3, [pc, #168]	@ (8004c48 <HAL_GPIO_Init+0x2d0>)
 8004ba0:	689a      	ldr	r2, [r3, #8]
 8004ba2:	69bb      	ldr	r3, [r7, #24]
 8004ba4:	43db      	mvns	r3, r3
 8004ba6:	4928      	ldr	r1, [pc, #160]	@ (8004c48 <HAL_GPIO_Init+0x2d0>)
 8004ba8:	4013      	ands	r3, r2
 8004baa:	608b      	str	r3, [r1, #8]
        }

        /* Enable or disable the falling trigger */
        if ((GPIO_Init->Mode & FALLING_EDGE) == FALLING_EDGE)
 8004bac:	683b      	ldr	r3, [r7, #0]
 8004bae:	685b      	ldr	r3, [r3, #4]
 8004bb0:	f403 1300 	and.w	r3, r3, #2097152	@ 0x200000
 8004bb4:	2b00      	cmp	r3, #0
 8004bb6:	d006      	beq.n	8004bc6 <HAL_GPIO_Init+0x24e>
        {
          SET_BIT(EXTI->FTSR, iocurrent);
 8004bb8:	4b23      	ldr	r3, [pc, #140]	@ (8004c48 <HAL_GPIO_Init+0x2d0>)
 8004bba:	68da      	ldr	r2, [r3, #12]
 8004bbc:	4922      	ldr	r1, [pc, #136]	@ (8004c48 <HAL_GPIO_Init+0x2d0>)
 8004bbe:	69bb      	ldr	r3, [r7, #24]
 8004bc0:	4313      	orrs	r3, r2
 8004bc2:	60cb      	str	r3, [r1, #12]
 8004bc4:	e006      	b.n	8004bd4 <HAL_GPIO_Init+0x25c>
        }
        else
        {
          CLEAR_BIT(EXTI->FTSR, iocurrent);
 8004bc6:	4b20      	ldr	r3, [pc, #128]	@ (8004c48 <HAL_GPIO_Init+0x2d0>)
 8004bc8:	68da      	ldr	r2, [r3, #12]
 8004bca:	69bb      	ldr	r3, [r7, #24]
 8004bcc:	43db      	mvns	r3, r3
 8004bce:	491e      	ldr	r1, [pc, #120]	@ (8004c48 <HAL_GPIO_Init+0x2d0>)
 8004bd0:	4013      	ands	r3, r2
 8004bd2:	60cb      	str	r3, [r1, #12]
        }

        /* Configure the event mask */
        if ((GPIO_Init->Mode & GPIO_MODE_EVT) == GPIO_MODE_EVT)
 8004bd4:	683b      	ldr	r3, [r7, #0]
 8004bd6:	685b      	ldr	r3, [r3, #4]
 8004bd8:	f403 3300 	and.w	r3, r3, #131072	@ 0x20000
 8004bdc:	2b00      	cmp	r3, #0
 8004bde:	d006      	beq.n	8004bee <HAL_GPIO_Init+0x276>
        {
          SET_BIT(EXTI->EMR, iocurrent);
 8004be0:	4b19      	ldr	r3, [pc, #100]	@ (8004c48 <HAL_GPIO_Init+0x2d0>)
 8004be2:	685a      	ldr	r2, [r3, #4]
 8004be4:	4918      	ldr	r1, [pc, #96]	@ (8004c48 <HAL_GPIO_Init+0x2d0>)
 8004be6:	69bb      	ldr	r3, [r7, #24]
 8004be8:	4313      	orrs	r3, r2
 8004bea:	604b      	str	r3, [r1, #4]
 8004bec:	e006      	b.n	8004bfc <HAL_GPIO_Init+0x284>
        }
        else
        {
          CLEAR_BIT(EXTI->EMR, iocurrent);
 8004bee:	4b16      	ldr	r3, [pc, #88]	@ (8004c48 <HAL_GPIO_Init+0x2d0>)
 8004bf0:	685a      	ldr	r2, [r3, #4]
 8004bf2:	69bb      	ldr	r3, [r7, #24]
 8004bf4:	43db      	mvns	r3, r3
 8004bf6:	4914      	ldr	r1, [pc, #80]	@ (8004c48 <HAL_GPIO_Init+0x2d0>)
 8004bf8:	4013      	ands	r3, r2
 8004bfa:	604b      	str	r3, [r1, #4]
        }

        /* Configure the interrupt mask */
        if ((GPIO_Init->Mode & GPIO_MODE_IT) == GPIO_MODE_IT)
 8004bfc:	683b      	ldr	r3, [r7, #0]
 8004bfe:	685b      	ldr	r3, [r3, #4]
 8004c00:	f403 3380 	and.w	r3, r3, #65536	@ 0x10000
 8004c04:	2b00      	cmp	r3, #0
 8004c06:	d021      	beq.n	8004c4c <HAL_GPIO_Init+0x2d4>
        {
          SET_BIT(EXTI->IMR, iocurrent);
 8004c08:	4b0f      	ldr	r3, [pc, #60]	@ (8004c48 <HAL_GPIO_Init+0x2d0>)
 8004c0a:	681a      	ldr	r2, [r3, #0]
 8004c0c:	490e      	ldr	r1, [pc, #56]	@ (8004c48 <HAL_GPIO_Init+0x2d0>)
 8004c0e:	69bb      	ldr	r3, [r7, #24]
 8004c10:	4313      	orrs	r3, r2
 8004c12:	600b      	str	r3, [r1, #0]
 8004c14:	e021      	b.n	8004c5a <HAL_GPIO_Init+0x2e2>
 8004c16:	bf00      	nop
 8004c18:	10320000 	.word	0x10320000
 8004c1c:	10310000 	.word	0x10310000
 8004c20:	10220000 	.word	0x10220000
 8004c24:	10210000 	.word	0x10210000
 8004c28:	10120000 	.word	0x10120000
 8004c2c:	10110000 	.word	0x10110000
 8004c30:	40021000 	.word	0x40021000
 8004c34:	40010000 	.word	0x40010000
 8004c38:	40010800 	.word	0x40010800
 8004c3c:	40010c00 	.word	0x40010c00
 8004c40:	40011000 	.word	0x40011000
 8004c44:	40011400 	.word	0x40011400
 8004c48:	40010400 	.word	0x40010400
        }
        else
        {
          CLEAR_BIT(EXTI->IMR, iocurrent);
 8004c4c:	4b0b      	ldr	r3, [pc, #44]	@ (8004c7c <HAL_GPIO_Init+0x304>)
 8004c4e:	681a      	ldr	r2, [r3, #0]
 8004c50:	69bb      	ldr	r3, [r7, #24]
 8004c52:	43db      	mvns	r3, r3
 8004c54:	4909      	ldr	r1, [pc, #36]	@ (8004c7c <HAL_GPIO_Init+0x304>)
 8004c56:	4013      	ands	r3, r2
 8004c58:	600b      	str	r3, [r1, #0]
        }
      }
    }

	position++;
 8004c5a:	6a7b      	ldr	r3, [r7, #36]	@ 0x24
 8004c5c:	3301      	adds	r3, #1
 8004c5e:	627b      	str	r3, [r7, #36]	@ 0x24
  while (((GPIO_Init->Pin) >> position) != 0x00u)
 8004c60:	683b      	ldr	r3, [r7, #0]
 8004c62:	681a      	ldr	r2, [r3, #0]
 8004c64:	6a7b      	ldr	r3, [r7, #36]	@ 0x24
 8004c66:	fa22 f303 	lsr.w	r3, r2, r3
 8004c6a:	2b00      	cmp	r3, #0
 8004c6c:	f47f ae8e 	bne.w	800498c <HAL_GPIO_Init+0x14>
  }
}
 8004c70:	bf00      	nop
 8004c72:	bf00      	nop
 8004c74:	372c      	adds	r7, #44	@ 0x2c
 8004c76:	46bd      	mov	sp, r7
 8004c78:	bc80      	pop	{r7}
 8004c7a:	4770      	bx	lr
 8004c7c:	40010400 	.word	0x40010400

08004c80 <HAL_GPIO_ReadPin>:
  * @param  GPIO_Pin: specifies the port bit to read.
  *         This parameter can be GPIO_PIN_x where x can be (0..15).
  * @retval The input port pin value.
  */
GPIO_PinState HAL_GPIO_ReadPin(GPIO_TypeDef *GPIOx, uint16_t GPIO_Pin)
{
 8004c80:	b480      	push	{r7}
 8004c82:	b085      	sub	sp, #20
 8004c84:	af00      	add	r7, sp, #0
 8004c86:	6078      	str	r0, [r7, #4]
 8004c88:	460b      	mov	r3, r1
 8004c8a:	807b      	strh	r3, [r7, #2]
  GPIO_PinState bitstatus;

  /* Check the parameters */
  assert_param(IS_GPIO_PIN(GPIO_Pin));

  if ((GPIOx->IDR & GPIO_Pin) != (uint32_t)GPIO_PIN_RESET)
 8004c8c:	687b      	ldr	r3, [r7, #4]
 8004c8e:	689a      	ldr	r2, [r3, #8]
 8004c90:	887b      	ldrh	r3, [r7, #2]
 8004c92:	4013      	ands	r3, r2
 8004c94:	2b00      	cmp	r3, #0
 8004c96:	d002      	beq.n	8004c9e <HAL_GPIO_ReadPin+0x1e>
  {
    bitstatus = GPIO_PIN_SET;
 8004c98:	2301      	movs	r3, #1
 8004c9a:	73fb      	strb	r3, [r7, #15]
 8004c9c:	e001      	b.n	8004ca2 <HAL_GPIO_ReadPin+0x22>
  }
  else
  {
    bitstatus = GPIO_PIN_RESET;
 8004c9e:	2300      	movs	r3, #0
 8004ca0:	73fb      	strb	r3, [r7, #15]
  }
  return bitstatus;
 8004ca2:	7bfb      	ldrb	r3, [r7, #15]
}
 8004ca4:	4618      	mov	r0, r3
 8004ca6:	3714      	adds	r7, #20
 8004ca8:	46bd      	mov	sp, r7
 8004caa:	bc80      	pop	{r7}
 8004cac:	4770      	bx	lr

08004cae <HAL_GPIO_WritePin>:
  *            @arg GPIO_PIN_RESET: to clear the port pin
  *            @arg GPIO_PIN_SET: to set the port pin
  * @retval None
  */
void HAL_GPIO_WritePin(GPIO_TypeDef *GPIOx, uint16_t GPIO_Pin, GPIO_PinState PinState)
{
 8004cae:	b480      	push	{r7}
 8004cb0:	b083      	sub	sp, #12
 8004cb2:	af00      	add	r7, sp, #0
 8004cb4:	6078      	str	r0, [r7, #4]
 8004cb6:	460b      	mov	r3, r1
 8004cb8:	807b      	strh	r3, [r7, #2]
 8004cba:	4613      	mov	r3, r2
 8004cbc:	707b      	strb	r3, [r7, #1]
  /* Check the parameters */
  assert_param(IS_GPIO_PIN(GPIO_Pin));
  assert_param(IS_GPIO_PIN_ACTION(PinState));

  if (PinState != GPIO_PIN_RESET)
 8004cbe:	787b      	ldrb	r3, [r7, #1]
 8004cc0:	2b00      	cmp	r3, #0
 8004cc2:	d003      	beq.n	8004ccc <HAL_GPIO_WritePin+0x1e>
  {
    GPIOx->BSRR = GPIO_Pin;
 8004cc4:	887a      	ldrh	r2, [r7, #2]
 8004cc6:	687b      	ldr	r3, [r7, #4]
 8004cc8:	611a      	str	r2, [r3, #16]
  }
  else
  {
    GPIOx->BSRR = (uint32_t)GPIO_Pin << 16u;
  }
}
 8004cca:	e003      	b.n	8004cd4 <HAL_GPIO_WritePin+0x26>
    GPIOx->BSRR = (uint32_t)GPIO_Pin << 16u;
 8004ccc:	887b      	ldrh	r3, [r7, #2]
 8004cce:	041a      	lsls	r2, r3, #16
 8004cd0:	687b      	ldr	r3, [r7, #4]
 8004cd2:	611a      	str	r2, [r3, #16]
}
 8004cd4:	bf00      	nop
 8004cd6:	370c      	adds	r7, #12
 8004cd8:	46bd      	mov	sp, r7
 8004cda:	bc80      	pop	{r7}
 8004cdc:	4770      	bx	lr
	...

08004ce0 <HAL_I2C_Init>:
  * @param  hi2c Pointer to a I2C_HandleTypeDef structure that contains
  *                the configuration information for the specified I2C.
  * @retval HAL status
  */
HAL_StatusTypeDef HAL_I2C_Init(I2C_HandleTypeDef *hi2c)
{
 8004ce0:	b580      	push	{r7, lr}
 8004ce2:	b084      	sub	sp, #16
 8004ce4:	af00      	add	r7, sp, #0
 8004ce6:	6078      	str	r0, [r7, #4]
  uint32_t freqrange;
  uint32_t pclk1;

  /* Check the I2C handle allocation */
  if (hi2c == NULL)
 8004ce8:	687b      	ldr	r3, [r7, #4]
 8004cea:	2b00      	cmp	r3, #0
 8004cec:	d101      	bne.n	8004cf2 <HAL_I2C_Init+0x12>
  {
    return HAL_ERROR;
 8004cee:	2301      	movs	r3, #1
 8004cf0:	e12b      	b.n	8004f4a <HAL_I2C_Init+0x26a>
  assert_param(IS_I2C_DUAL_ADDRESS(hi2c->Init.DualAddressMode));
  assert_param(IS_I2C_OWN_ADDRESS2(hi2c->Init.OwnAddress2));
  assert_param(IS_I2C_GENERAL_CALL(hi2c->Init.GeneralCallMode));
  assert_param(IS_I2C_NO_STRETCH(hi2c->Init.NoStretchMode));

  if (hi2c->State == HAL_I2C_STATE_RESET)
 8004cf2:	687b      	ldr	r3, [r7, #4]
 8004cf4:	f893 303d 	ldrb.w	r3, [r3, #61]	@ 0x3d
 8004cf8:	b2db      	uxtb	r3, r3
 8004cfa:	2b00      	cmp	r3, #0
 8004cfc:	d106      	bne.n	8004d0c <HAL_I2C_Init+0x2c>
  {
    /* Allocate lock resource and initialize it */
    hi2c->Lock = HAL_UNLOCKED;
 8004cfe:	687b      	ldr	r3, [r7, #4]
 8004d00:	2200      	movs	r2, #0
 8004d02:	f883 203c 	strb.w	r2, [r3, #60]	@ 0x3c

    /* Init the low level hardware : GPIO, CLOCK, NVIC */
    hi2c->MspInitCallback(hi2c);
#else
    /* Init the low level hardware : GPIO, CLOCK, NVIC */
    HAL_I2C_MspInit(hi2c);
 8004d06:	6878      	ldr	r0, [r7, #4]
 8004d08:	f7fb fe42 	bl	8000990 <HAL_I2C_MspInit>
#endif /* USE_HAL_I2C_REGISTER_CALLBACKS */
  }

  hi2c->State = HAL_I2C_STATE_BUSY;
 8004d0c:	687b      	ldr	r3, [r7, #4]
 8004d0e:	2224      	movs	r2, #36	@ 0x24
 8004d10:	f883 203d 	strb.w	r2, [r3, #61]	@ 0x3d

  /* Disable the selected I2C peripheral */
  __HAL_I2C_DISABLE(hi2c);
 8004d14:	687b      	ldr	r3, [r7, #4]
 8004d16:	681b      	ldr	r3, [r3, #0]
 8004d18:	681a      	ldr	r2, [r3, #0]
 8004d1a:	687b      	ldr	r3, [r7, #4]
 8004d1c:	681b      	ldr	r3, [r3, #0]
 8004d1e:	f022 0201 	bic.w	r2, r2, #1
 8004d22:	601a      	str	r2, [r3, #0]

  /*Reset I2C*/
  hi2c->Instance->CR1 |= I2C_CR1_SWRST;
 8004d24:	687b      	ldr	r3, [r7, #4]
 8004d26:	681b      	ldr	r3, [r3, #0]
 8004d28:	681a      	ldr	r2, [r3, #0]
 8004d2a:	687b      	ldr	r3, [r7, #4]
 8004d2c:	681b      	ldr	r3, [r3, #0]
 8004d2e:	f442 4200 	orr.w	r2, r2, #32768	@ 0x8000
 8004d32:	601a      	str	r2, [r3, #0]
  hi2c->Instance->CR1 &= ~I2C_CR1_SWRST;
 8004d34:	687b      	ldr	r3, [r7, #4]
 8004d36:	681b      	ldr	r3, [r3, #0]
 8004d38:	681a      	ldr	r2, [r3, #0]
 8004d3a:	687b      	ldr	r3, [r7, #4]
 8004d3c:	681b      	ldr	r3, [r3, #0]
 8004d3e:	f422 4200 	bic.w	r2, r2, #32768	@ 0x8000
 8004d42:	601a      	str	r2, [r3, #0]

  /* Get PCLK1 frequency */
  pclk1 = HAL_RCC_GetPCLK1Freq();
 8004d44:	f001 f832 	bl	8005dac <HAL_RCC_GetPCLK1Freq>
 8004d48:	60f8      	str	r0, [r7, #12]

  /* Check the minimum allowed PCLK1 frequency */
  if (I2C_MIN_PCLK_FREQ(pclk1, hi2c->Init.ClockSpeed) == 1U)
 8004d4a:	687b      	ldr	r3, [r7, #4]
 8004d4c:	685b      	ldr	r3, [r3, #4]
 8004d4e:	4a81      	ldr	r2, [pc, #516]	@ (8004f54 <HAL_I2C_Init+0x274>)
 8004d50:	4293      	cmp	r3, r2
 8004d52:	d807      	bhi.n	8004d64 <HAL_I2C_Init+0x84>
 8004d54:	68fb      	ldr	r3, [r7, #12]
 8004d56:	4a80      	ldr	r2, [pc, #512]	@ (8004f58 <HAL_I2C_Init+0x278>)
 8004d58:	4293      	cmp	r3, r2
 8004d5a:	bf94      	ite	ls
 8004d5c:	2301      	movls	r3, #1
 8004d5e:	2300      	movhi	r3, #0
 8004d60:	b2db      	uxtb	r3, r3
 8004d62:	e006      	b.n	8004d72 <HAL_I2C_Init+0x92>
 8004d64:	68fb      	ldr	r3, [r7, #12]
 8004d66:	4a7d      	ldr	r2, [pc, #500]	@ (8004f5c <HAL_I2C_Init+0x27c>)
 8004d68:	4293      	cmp	r3, r2
 8004d6a:	bf94      	ite	ls
 8004d6c:	2301      	movls	r3, #1
 8004d6e:	2300      	movhi	r3, #0
 8004d70:	b2db      	uxtb	r3, r3
 8004d72:	2b00      	cmp	r3, #0
 8004d74:	d001      	beq.n	8004d7a <HAL_I2C_Init+0x9a>
  {
    return HAL_ERROR;
 8004d76:	2301      	movs	r3, #1
 8004d78:	e0e7      	b.n	8004f4a <HAL_I2C_Init+0x26a>
  }

  /* Calculate frequency range */
  freqrange = I2C_FREQRANGE(pclk1);
 8004d7a:	68fb      	ldr	r3, [r7, #12]
 8004d7c:	4a78      	ldr	r2, [pc, #480]	@ (8004f60 <HAL_I2C_Init+0x280>)
 8004d7e:	fba2 2303 	umull	r2, r3, r2, r3
 8004d82:	0c9b      	lsrs	r3, r3, #18
 8004d84:	60bb      	str	r3, [r7, #8]

  /*---------------------------- I2Cx CR2 Configuration ----------------------*/
  /* Configure I2Cx: Frequency range */
  MODIFY_REG(hi2c->Instance->CR2, I2C_CR2_FREQ, freqrange);
 8004d86:	687b      	ldr	r3, [r7, #4]
 8004d88:	681b      	ldr	r3, [r3, #0]
 8004d8a:	685b      	ldr	r3, [r3, #4]
 8004d8c:	f023 013f 	bic.w	r1, r3, #63	@ 0x3f
 8004d90:	687b      	ldr	r3, [r7, #4]
 8004d92:	681b      	ldr	r3, [r3, #0]
 8004d94:	68ba      	ldr	r2, [r7, #8]
 8004d96:	430a      	orrs	r2, r1
 8004d98:	605a      	str	r2, [r3, #4]

  /*---------------------------- I2Cx TRISE Configuration --------------------*/
  /* Configure I2Cx: Rise Time */
  MODIFY_REG(hi2c->Instance->TRISE, I2C_TRISE_TRISE, I2C_RISE_TIME(freqrange, hi2c->Init.ClockSpeed));
 8004d9a:	687b      	ldr	r3, [r7, #4]
 8004d9c:	681b      	ldr	r3, [r3, #0]
 8004d9e:	6a1b      	ldr	r3, [r3, #32]
 8004da0:	f023 013f 	bic.w	r1, r3, #63	@ 0x3f
 8004da4:	687b      	ldr	r3, [r7, #4]
 8004da6:	685b      	ldr	r3, [r3, #4]
 8004da8:	4a6a      	ldr	r2, [pc, #424]	@ (8004f54 <HAL_I2C_Init+0x274>)
 8004daa:	4293      	cmp	r3, r2
 8004dac:	d802      	bhi.n	8004db4 <HAL_I2C_Init+0xd4>
 8004dae:	68bb      	ldr	r3, [r7, #8]
 8004db0:	3301      	adds	r3, #1
 8004db2:	e009      	b.n	8004dc8 <HAL_I2C_Init+0xe8>
 8004db4:	68bb      	ldr	r3, [r7, #8]
 8004db6:	f44f 7296 	mov.w	r2, #300	@ 0x12c
 8004dba:	fb02 f303 	mul.w	r3, r2, r3
 8004dbe:	4a69      	ldr	r2, [pc, #420]	@ (8004f64 <HAL_I2C_Init+0x284>)
 8004dc0:	fba2 2303 	umull	r2, r3, r2, r3
 8004dc4:	099b      	lsrs	r3, r3, #6
 8004dc6:	3301      	adds	r3, #1
 8004dc8:	687a      	ldr	r2, [r7, #4]
 8004dca:	6812      	ldr	r2, [r2, #0]
 8004dcc:	430b      	orrs	r3, r1
 8004dce:	6213      	str	r3, [r2, #32]

  /*---------------------------- I2Cx CCR Configuration ----------------------*/
  /* Configure I2Cx: Speed */
  MODIFY_REG(hi2c->Instance->CCR, (I2C_CCR_FS | I2C_CCR_DUTY | I2C_CCR_CCR), I2C_SPEED(pclk1, hi2c->Init.ClockSpeed, hi2c->Init.DutyCycle));
 8004dd0:	687b      	ldr	r3, [r7, #4]
 8004dd2:	681b      	ldr	r3, [r3, #0]
 8004dd4:	69db      	ldr	r3, [r3, #28]
 8004dd6:	f423 424f 	bic.w	r2, r3, #52992	@ 0xcf00
 8004dda:	f022 02ff 	bic.w	r2, r2, #255	@ 0xff
 8004dde:	687b      	ldr	r3, [r7, #4]
 8004de0:	685b      	ldr	r3, [r3, #4]
 8004de2:	495c      	ldr	r1, [pc, #368]	@ (8004f54 <HAL_I2C_Init+0x274>)
 8004de4:	428b      	cmp	r3, r1
 8004de6:	d819      	bhi.n	8004e1c <HAL_I2C_Init+0x13c>
 8004de8:	68fb      	ldr	r3, [r7, #12]
 8004dea:	1e59      	subs	r1, r3, #1
 8004dec:	687b      	ldr	r3, [r7, #4]
 8004dee:	685b      	ldr	r3, [r3, #4]
 8004df0:	005b      	lsls	r3, r3, #1
 8004df2:	fbb1 f3f3 	udiv	r3, r1, r3
 8004df6:	1c59      	adds	r1, r3, #1
 8004df8:	f640 73fc 	movw	r3, #4092	@ 0xffc
 8004dfc:	400b      	ands	r3, r1
 8004dfe:	2b00      	cmp	r3, #0
 8004e00:	d00a      	beq.n	8004e18 <HAL_I2C_Init+0x138>
 8004e02:	68fb      	ldr	r3, [r7, #12]
 8004e04:	1e59      	subs	r1, r3, #1
 8004e06:	687b      	ldr	r3, [r7, #4]
 8004e08:	685b      	ldr	r3, [r3, #4]
 8004e0a:	005b      	lsls	r3, r3, #1
 8004e0c:	fbb1 f3f3 	udiv	r3, r1, r3
 8004e10:	3301      	adds	r3, #1
 8004e12:	f3c3 030b 	ubfx	r3, r3, #0, #12
 8004e16:	e051      	b.n	8004ebc <HAL_I2C_Init+0x1dc>
 8004e18:	2304      	movs	r3, #4
 8004e1a:	e04f      	b.n	8004ebc <HAL_I2C_Init+0x1dc>
 8004e1c:	687b      	ldr	r3, [r7, #4]
 8004e1e:	689b      	ldr	r3, [r3, #8]
 8004e20:	2b00      	cmp	r3, #0
 8004e22:	d111      	bne.n	8004e48 <HAL_I2C_Init+0x168>
 8004e24:	68fb      	ldr	r3, [r7, #12]
 8004e26:	1e58      	subs	r0, r3, #1
 8004e28:	687b      	ldr	r3, [r7, #4]
 8004e2a:	6859      	ldr	r1, [r3, #4]
 8004e2c:	460b      	mov	r3, r1
 8004e2e:	005b      	lsls	r3, r3, #1
 8004e30:	440b      	add	r3, r1
 8004e32:	fbb0 f3f3 	udiv	r3, r0, r3
 8004e36:	3301      	adds	r3, #1
 8004e38:	f3c3 030b 	ubfx	r3, r3, #0, #12
 8004e3c:	2b00      	cmp	r3, #0
 8004e3e:	bf0c      	ite	eq
 8004e40:	2301      	moveq	r3, #1
 8004e42:	2300      	movne	r3, #0
 8004e44:	b2db      	uxtb	r3, r3
 8004e46:	e012      	b.n	8004e6e <HAL_I2C_Init+0x18e>
 8004e48:	68fb      	ldr	r3, [r7, #12]
 8004e4a:	1e58      	subs	r0, r3, #1
 8004e4c:	687b      	ldr	r3, [r7, #4]
 8004e4e:	6859      	ldr	r1, [r3, #4]
 8004e50:	460b      	mov	r3, r1
 8004e52:	009b      	lsls	r3, r3, #2
 8004e54:	440b      	add	r3, r1
 8004e56:	0099      	lsls	r1, r3, #2
 8004e58:	440b      	add	r3, r1
 8004e5a:	fbb0 f3f3 	udiv	r3, r0, r3
 8004e5e:	3301      	adds	r3, #1
 8004e60:	f3c3 030b 	ubfx	r3, r3, #0, #12
 8004e64:	2b00      	cmp	r3, #0
 8004e66:	bf0c      	ite	eq
 8004e68:	2301      	moveq	r3, #1
 8004e6a:	2300      	movne	r3, #0
 8004e6c:	b2db      	uxtb	r3, r3
 8004e6e:	2b00      	cmp	r3, #0
 8004e70:	d001      	beq.n	8004e76 <HAL_I2C_Init+0x196>
 8004e72:	2301      	movs	r3, #1
 8004e74:	e022      	b.n	8004ebc <HAL_I2C_Init+0x1dc>
 8004e76:	687b      	ldr	r3, [r7, #4]
 8004e78:	689b      	ldr	r3, [r3, #8]
 8004e7a:	2b00      	cmp	r3, #0
 8004e7c:	d10e      	bne.n	8004e9c <HAL_I2C_Init+0x1bc>
 8004e7e:	68fb      	ldr	r3, [r7, #12]
 8004e80:	1e58      	subs	r0, r3, #1
 8004e82:	687b      	ldr	r3, [r7, #4]
 8004e84:	6859      	ldr	r1, [r3, #4]
 8004e86:	460b      	mov	r3, r1
 8004e88:	005b      	lsls	r3, r3, #1
 8004e8a:	440b      	add	r3, r1
 8004e8c:	fbb0 f3f3 	udiv	r3, r0, r3
 8004e90:	3301      	adds	r3, #1
 8004e92:	f3c3 030b 	ubfx	r3, r3, #0, #12
 8004e96:	f443 4300 	orr.w	r3, r3, #32768	@ 0x8000
 8004e9a:	e00f      	b.n	8004ebc <HAL_I2C_Init+0x1dc>
 8004e9c:	68fb      	ldr	r3, [r7, #12]
 8004e9e:	1e58      	subs	r0, r3, #1
 8004ea0:	687b      	ldr	r3, [r7, #4]
 8004ea2:	6859      	ldr	r1, [r3, #4]
 8004ea4:	460b      	mov	r3, r1
 8004ea6:	009b      	lsls	r3, r3, #2
 8004ea8:	440b      	add	r3, r1
 8004eaa:	0099      	lsls	r1, r3, #2
 8004eac:	440b      	add	r3, r1
 8004eae:	fbb0 f3f3 	udiv	r3, r0, r3
 8004eb2:	3301      	adds	r3, #1
 8004eb4:	f3c3 030b 	ubfx	r3, r3, #0, #12
 8004eb8:	f443 4340 	orr.w	r3, r3, #49152	@ 0xc000
 8004ebc:	6879      	ldr	r1, [r7, #4]
 8004ebe:	6809      	ldr	r1, [r1, #0]
 8004ec0:	4313      	orrs	r3, r2
 8004ec2:	61cb      	str	r3, [r1, #28]

  /*---------------------------- I2Cx CR1 Configuration ----------------------*/
  /* Configure I2Cx: Generalcall and NoStretch mode */
  MODIFY_REG(hi2c->Instance->CR1, (I2C_CR1_ENGC | I2C_CR1_NOSTRETCH), (hi2c->Init.GeneralCallMode | hi2c->Init.NoStretchMode));
 8004ec4:	687b      	ldr	r3, [r7, #4]
 8004ec6:	681b      	ldr	r3, [r3, #0]
 8004ec8:	681b      	ldr	r3, [r3, #0]
 8004eca:	f023 01c0 	bic.w	r1, r3, #192	@ 0xc0
 8004ece:	687b      	ldr	r3, [r7, #4]
 8004ed0:	69da      	ldr	r2, [r3, #28]
 8004ed2:	687b      	ldr	r3, [r7, #4]
 8004ed4:	6a1b      	ldr	r3, [r3, #32]
 8004ed6:	431a      	orrs	r2, r3
 8004ed8:	687b      	ldr	r3, [r7, #4]
 8004eda:	681b      	ldr	r3, [r3, #0]
 8004edc:	430a      	orrs	r2, r1
 8004ede:	601a      	str	r2, [r3, #0]

  /*---------------------------- I2Cx OAR1 Configuration ---------------------*/
  /* Configure I2Cx: Own Address1 and addressing mode */
  MODIFY_REG(hi2c->Instance->OAR1, (I2C_OAR1_ADDMODE | I2C_OAR1_ADD8_9 | I2C_OAR1_ADD1_7 | I2C_OAR1_ADD0), (hi2c->Init.AddressingMode | hi2c->Init.OwnAddress1));
 8004ee0:	687b      	ldr	r3, [r7, #4]
 8004ee2:	681b      	ldr	r3, [r3, #0]
 8004ee4:	689b      	ldr	r3, [r3, #8]
 8004ee6:	f423 4303 	bic.w	r3, r3, #33536	@ 0x8300
 8004eea:	f023 03ff 	bic.w	r3, r3, #255	@ 0xff
 8004eee:	687a      	ldr	r2, [r7, #4]
 8004ef0:	6911      	ldr	r1, [r2, #16]
 8004ef2:	687a      	ldr	r2, [r7, #4]
 8004ef4:	68d2      	ldr	r2, [r2, #12]
 8004ef6:	4311      	orrs	r1, r2
 8004ef8:	687a      	ldr	r2, [r7, #4]
 8004efa:	6812      	ldr	r2, [r2, #0]
 8004efc:	430b      	orrs	r3, r1
 8004efe:	6093      	str	r3, [r2, #8]

  /*---------------------------- I2Cx OAR2 Configuration ---------------------*/
  /* Configure I2Cx: Dual mode and Own Address2 */
  MODIFY_REG(hi2c->Instance->OAR2, (I2C_OAR2_ENDUAL | I2C_OAR2_ADD2), (hi2c->Init.DualAddressMode | hi2c->Init.OwnAddress2));
 8004f00:	687b      	ldr	r3, [r7, #4]
 8004f02:	681b      	ldr	r3, [r3, #0]
 8004f04:	68db      	ldr	r3, [r3, #12]
 8004f06:	f023 01ff 	bic.w	r1, r3, #255	@ 0xff
 8004f0a:	687b      	ldr	r3, [r7, #4]
 8004f0c:	695a      	ldr	r2, [r3, #20]
 8004f0e:	687b      	ldr	r3, [r7, #4]
 8004f10:	699b      	ldr	r3, [r3, #24]
 8004f12:	431a      	orrs	r2, r3
 8004f14:	687b      	ldr	r3, [r7, #4]
 8004f16:	681b      	ldr	r3, [r3, #0]
 8004f18:	430a      	orrs	r2, r1
 8004f1a:	60da      	str	r2, [r3, #12]

  /* Enable the selected I2C peripheral */
  __HAL_I2C_ENABLE(hi2c);
 8004f1c:	687b      	ldr	r3, [r7, #4]
 8004f1e:	681b      	ldr	r3, [r3, #0]
 8004f20:	681a      	ldr	r2, [r3, #0]
 8004f22:	687b      	ldr	r3, [r7, #4]
 8004f24:	681b      	ldr	r3, [r3, #0]
 8004f26:	f042 0201 	orr.w	r2, r2, #1
 8004f2a:	601a      	str	r2, [r3, #0]

  hi2c->ErrorCode = HAL_I2C_ERROR_NONE;
 8004f2c:	687b      	ldr	r3, [r7, #4]
 8004f2e:	2200      	movs	r2, #0
 8004f30:	641a      	str	r2, [r3, #64]	@ 0x40
  hi2c->State = HAL_I2C_STATE_READY;
 8004f32:	687b      	ldr	r3, [r7, #4]
 8004f34:	2220      	movs	r2, #32
 8004f36:	f883 203d 	strb.w	r2, [r3, #61]	@ 0x3d
  hi2c->PreviousState = I2C_STATE_NONE;
 8004f3a:	687b      	ldr	r3, [r7, #4]
 8004f3c:	2200      	movs	r2, #0
 8004f3e:	631a      	str	r2, [r3, #48]	@ 0x30
  hi2c->Mode = HAL_I2C_MODE_NONE;
 8004f40:	687b      	ldr	r3, [r7, #4]
 8004f42:	2200      	movs	r2, #0
 8004f44:	f883 203e 	strb.w	r2, [r3, #62]	@ 0x3e

  return HAL_OK;
 8004f48:	2300      	movs	r3, #0
}
 8004f4a:	4618      	mov	r0, r3
 8004f4c:	3710      	adds	r7, #16
 8004f4e:	46bd      	mov	sp, r7
 8004f50:	bd80      	pop	{r7, pc}
 8004f52:	bf00      	nop
 8004f54:	000186a0 	.word	0x000186a0
 8004f58:	001e847f 	.word	0x001e847f
 8004f5c:	003d08ff 	.word	0x003d08ff
 8004f60:	431bde83 	.word	0x431bde83
 8004f64:	10624dd3 	.word	0x10624dd3

08004f68 <HAL_I2C_Master_Transmit>:
  * @param  Size Amount of data to be sent
  * @param  Timeout Timeout duration
  * @retval HAL status
  */
HAL_StatusTypeDef HAL_I2C_Master_Transmit(I2C_HandleTypeDef *hi2c, uint16_t DevAddress, uint8_t *pData, uint16_t Size, uint32_t Timeout)
{
 8004f68:	b580      	push	{r7, lr}
 8004f6a:	b088      	sub	sp, #32
 8004f6c:	af02      	add	r7, sp, #8
 8004f6e:	60f8      	str	r0, [r7, #12]
 8004f70:	607a      	str	r2, [r7, #4]
 8004f72:	461a      	mov	r2, r3
 8004f74:	460b      	mov	r3, r1
 8004f76:	817b      	strh	r3, [r7, #10]
 8004f78:	4613      	mov	r3, r2
 8004f7a:	813b      	strh	r3, [r7, #8]
  /* Init tickstart for timeout management*/
  uint32_t tickstart = HAL_GetTick();
 8004f7c:	f7ff fa60 	bl	8004440 <HAL_GetTick>
 8004f80:	6178      	str	r0, [r7, #20]

  if (hi2c->State == HAL_I2C_STATE_READY)
 8004f82:	68fb      	ldr	r3, [r7, #12]
 8004f84:	f893 303d 	ldrb.w	r3, [r3, #61]	@ 0x3d
 8004f88:	b2db      	uxtb	r3, r3
 8004f8a:	2b20      	cmp	r3, #32
 8004f8c:	f040 80e0 	bne.w	8005150 <HAL_I2C_Master_Transmit+0x1e8>
  {
    /* Wait until BUSY flag is reset */
    if (I2C_WaitOnFlagUntilTimeout(hi2c, I2C_FLAG_BUSY, SET, I2C_TIMEOUT_BUSY_FLAG, tickstart) != HAL_OK)
 8004f90:	697b      	ldr	r3, [r7, #20]
 8004f92:	9300      	str	r3, [sp, #0]
 8004f94:	2319      	movs	r3, #25
 8004f96:	2201      	movs	r2, #1
 8004f98:	4970      	ldr	r1, [pc, #448]	@ (800515c <HAL_I2C_Master_Transmit+0x1f4>)
 8004f9a:	68f8      	ldr	r0, [r7, #12]
 8004f9c:	f000 f964 	bl	8005268 <I2C_WaitOnFlagUntilTimeout>
 8004fa0:	4603      	mov	r3, r0
 8004fa2:	2b00      	cmp	r3, #0
 8004fa4:	d001      	beq.n	8004faa <HAL_I2C_Master_Transmit+0x42>
    {
      return HAL_BUSY;
 8004fa6:	2302      	movs	r3, #2
 8004fa8:	e0d3      	b.n	8005152 <HAL_I2C_Master_Transmit+0x1ea>
    }

    /* Process Locked */
    __HAL_LOCK(hi2c);
 8004faa:	68fb      	ldr	r3, [r7, #12]
 8004fac:	f893 303c 	ldrb.w	r3, [r3, #60]	@ 0x3c
 8004fb0:	2b01      	cmp	r3, #1
 8004fb2:	d101      	bne.n	8004fb8 <HAL_I2C_Master_Transmit+0x50>
 8004fb4:	2302      	movs	r3, #2
 8004fb6:	e0cc      	b.n	8005152 <HAL_I2C_Master_Transmit+0x1ea>
 8004fb8:	68fb      	ldr	r3, [r7, #12]
 8004fba:	2201      	movs	r2, #1
 8004fbc:	f883 203c 	strb.w	r2, [r3, #60]	@ 0x3c

    /* Check if the I2C is already enabled */
    if ((hi2c->Instance->CR1 & I2C_CR1_PE) != I2C_CR1_PE)
 8004fc0:	68fb      	ldr	r3, [r7, #12]
 8004fc2:	681b      	ldr	r3, [r3, #0]
 8004fc4:	681b      	ldr	r3, [r3, #0]
 8004fc6:	f003 0301 	and.w	r3, r3, #1
 8004fca:	2b01      	cmp	r3, #1
 8004fcc:	d007      	beq.n	8004fde <HAL_I2C_Master_Transmit+0x76>
    {
      /* Enable I2C peripheral */
      __HAL_I2C_ENABLE(hi2c);
 8004fce:	68fb      	ldr	r3, [r7, #12]
 8004fd0:	681b      	ldr	r3, [r3, #0]
 8004fd2:	681a      	ldr	r2, [r3, #0]
 8004fd4:	68fb      	ldr	r3, [r7, #12]
 8004fd6:	681b      	ldr	r3, [r3, #0]
 8004fd8:	f042 0201 	orr.w	r2, r2, #1
 8004fdc:	601a      	str	r2, [r3, #0]
    }

    /* Disable Pos */
    CLEAR_BIT(hi2c->Instance->CR1, I2C_CR1_POS);
 8004fde:	68fb      	ldr	r3, [r7, #12]
 8004fe0:	681b      	ldr	r3, [r3, #0]
 8004fe2:	681a      	ldr	r2, [r3, #0]
 8004fe4:	68fb      	ldr	r3, [r7, #12]
 8004fe6:	681b      	ldr	r3, [r3, #0]
 8004fe8:	f422 6200 	bic.w	r2, r2, #2048	@ 0x800
 8004fec:	601a      	str	r2, [r3, #0]

    hi2c->State       = HAL_I2C_STATE_BUSY_TX;
 8004fee:	68fb      	ldr	r3, [r7, #12]
 8004ff0:	2221      	movs	r2, #33	@ 0x21
 8004ff2:	f883 203d 	strb.w	r2, [r3, #61]	@ 0x3d
    hi2c->Mode        = HAL_I2C_MODE_MASTER;
 8004ff6:	68fb      	ldr	r3, [r7, #12]
 8004ff8:	2210      	movs	r2, #16
 8004ffa:	f883 203e 	strb.w	r2, [r3, #62]	@ 0x3e
    hi2c->ErrorCode   = HAL_I2C_ERROR_NONE;
 8004ffe:	68fb      	ldr	r3, [r7, #12]
 8005000:	2200      	movs	r2, #0
 8005002:	641a      	str	r2, [r3, #64]	@ 0x40

    /* Prepare transfer parameters */
    hi2c->pBuffPtr    = pData;
 8005004:	68fb      	ldr	r3, [r7, #12]
 8005006:	687a      	ldr	r2, [r7, #4]
 8005008:	625a      	str	r2, [r3, #36]	@ 0x24
    hi2c->XferCount   = Size;
 800500a:	68fb      	ldr	r3, [r7, #12]
 800500c:	893a      	ldrh	r2, [r7, #8]
 800500e:	855a      	strh	r2, [r3, #42]	@ 0x2a
    hi2c->XferSize    = hi2c->XferCount;
 8005010:	68fb      	ldr	r3, [r7, #12]
 8005012:	8d5b      	ldrh	r3, [r3, #42]	@ 0x2a
 8005014:	b29a      	uxth	r2, r3
 8005016:	68fb      	ldr	r3, [r7, #12]
 8005018:	851a      	strh	r2, [r3, #40]	@ 0x28
    hi2c->XferOptions = I2C_NO_OPTION_FRAME;
 800501a:	68fb      	ldr	r3, [r7, #12]
 800501c:	4a50      	ldr	r2, [pc, #320]	@ (8005160 <HAL_I2C_Master_Transmit+0x1f8>)
 800501e:	62da      	str	r2, [r3, #44]	@ 0x2c

    /* Send Slave Address */
    if (I2C_MasterRequestWrite(hi2c, DevAddress, Timeout, tickstart) != HAL_OK)
 8005020:	8979      	ldrh	r1, [r7, #10]
 8005022:	697b      	ldr	r3, [r7, #20]
 8005024:	6a3a      	ldr	r2, [r7, #32]
 8005026:	68f8      	ldr	r0, [r7, #12]
 8005028:	f000 f89c 	bl	8005164 <I2C_MasterRequestWrite>
 800502c:	4603      	mov	r3, r0
 800502e:	2b00      	cmp	r3, #0
 8005030:	d001      	beq.n	8005036 <HAL_I2C_Master_Transmit+0xce>
    {
      return HAL_ERROR;
 8005032:	2301      	movs	r3, #1
 8005034:	e08d      	b.n	8005152 <HAL_I2C_Master_Transmit+0x1ea>
    }

    /* Clear ADDR flag */
    __HAL_I2C_CLEAR_ADDRFLAG(hi2c);
 8005036:	2300      	movs	r3, #0
 8005038:	613b      	str	r3, [r7, #16]
 800503a:	68fb      	ldr	r3, [r7, #12]
 800503c:	681b      	ldr	r3, [r3, #0]
 800503e:	695b      	ldr	r3, [r3, #20]
 8005040:	613b      	str	r3, [r7, #16]
 8005042:	68fb      	ldr	r3, [r7, #12]
 8005044:	681b      	ldr	r3, [r3, #0]
 8005046:	699b      	ldr	r3, [r3, #24]
 8005048:	613b      	str	r3, [r7, #16]
 800504a:	693b      	ldr	r3, [r7, #16]

    while (hi2c->XferSize > 0U)
 800504c:	e066      	b.n	800511c <HAL_I2C_Master_Transmit+0x1b4>
    {
      /* Wait until TXE flag is set */
      if (I2C_WaitOnTXEFlagUntilTimeout(hi2c, Timeout, tickstart) != HAL_OK)
 800504e:	697a      	ldr	r2, [r7, #20]
 8005050:	6a39      	ldr	r1, [r7, #32]
 8005052:	68f8      	ldr	r0, [r7, #12]
 8005054:	f000 fa22 	bl	800549c <I2C_WaitOnTXEFlagUntilTimeout>
 8005058:	4603      	mov	r3, r0
 800505a:	2b00      	cmp	r3, #0
 800505c:	d00d      	beq.n	800507a <HAL_I2C_Master_Transmit+0x112>
      {
        if (hi2c->ErrorCode == HAL_I2C_ERROR_AF)
 800505e:	68fb      	ldr	r3, [r7, #12]
 8005060:	6c1b      	ldr	r3, [r3, #64]	@ 0x40
 8005062:	2b04      	cmp	r3, #4
 8005064:	d107      	bne.n	8005076 <HAL_I2C_Master_Transmit+0x10e>
        {
          /* Generate Stop */
          SET_BIT(hi2c->Instance->CR1, I2C_CR1_STOP);
 8005066:	68fb      	ldr	r3, [r7, #12]
 8005068:	681b      	ldr	r3, [r3, #0]
 800506a:	681a      	ldr	r2, [r3, #0]
 800506c:	68fb      	ldr	r3, [r7, #12]
 800506e:	681b      	ldr	r3, [r3, #0]
 8005070:	f442 7200 	orr.w	r2, r2, #512	@ 0x200
 8005074:	601a      	str	r2, [r3, #0]
        }
        return HAL_ERROR;
 8005076:	2301      	movs	r3, #1
 8005078:	e06b      	b.n	8005152 <HAL_I2C_Master_Transmit+0x1ea>
      }

      /* Write data to DR */
      hi2c->Instance->DR = *hi2c->pBuffPtr;
 800507a:	68fb      	ldr	r3, [r7, #12]
 800507c:	6a5b      	ldr	r3, [r3, #36]	@ 0x24
 800507e:	781a      	ldrb	r2, [r3, #0]
 8005080:	68fb      	ldr	r3, [r7, #12]
 8005082:	681b      	ldr	r3, [r3, #0]
 8005084:	611a      	str	r2, [r3, #16]

      /* Increment Buffer pointer */
      hi2c->pBuffPtr++;
 8005086:	68fb      	ldr	r3, [r7, #12]
 8005088:	6a5b      	ldr	r3, [r3, #36]	@ 0x24
 800508a:	1c5a      	adds	r2, r3, #1
 800508c:	68fb      	ldr	r3, [r7, #12]
 800508e:	625a      	str	r2, [r3, #36]	@ 0x24

      /* Update counter */
      hi2c->XferCount--;
 8005090:	68fb      	ldr	r3, [r7, #12]
 8005092:	8d5b      	ldrh	r3, [r3, #42]	@ 0x2a
 8005094:	b29b      	uxth	r3, r3
 8005096:	3b01      	subs	r3, #1
 8005098:	b29a      	uxth	r2, r3
 800509a:	68fb      	ldr	r3, [r7, #12]
 800509c:	855a      	strh	r2, [r3, #42]	@ 0x2a
      hi2c->XferSize--;
 800509e:	68fb      	ldr	r3, [r7, #12]
 80050a0:	8d1b      	ldrh	r3, [r3, #40]	@ 0x28
 80050a2:	3b01      	subs	r3, #1
 80050a4:	b29a      	uxth	r2, r3
 80050a6:	68fb      	ldr	r3, [r7, #12]
 80050a8:	851a      	strh	r2, [r3, #40]	@ 0x28

      if ((__HAL_I2C_GET_FLAG(hi2c, I2C_FLAG_BTF) == SET) && (hi2c->XferSize != 0U))
 80050aa:	68fb      	ldr	r3, [r7, #12]
 80050ac:	681b      	ldr	r3, [r3, #0]
 80050ae:	695b      	ldr	r3, [r3, #20]
 80050b0:	f003 0304 	and.w	r3, r3, #4
 80050b4:	2b04      	cmp	r3, #4
 80050b6:	d11b      	bne.n	80050f0 <HAL_I2C_Master_Transmit+0x188>
 80050b8:	68fb      	ldr	r3, [r7, #12]
 80050ba:	8d1b      	ldrh	r3, [r3, #40]	@ 0x28
 80050bc:	2b00      	cmp	r3, #0
 80050be:	d017      	beq.n	80050f0 <HAL_I2C_Master_Transmit+0x188>
      {
        /* Write data to DR */
        hi2c->Instance->DR = *hi2c->pBuffPtr;
 80050c0:	68fb      	ldr	r3, [r7, #12]
 80050c2:	6a5b      	ldr	r3, [r3, #36]	@ 0x24
 80050c4:	781a      	ldrb	r2, [r3, #0]
 80050c6:	68fb      	ldr	r3, [r7, #12]
 80050c8:	681b      	ldr	r3, [r3, #0]
 80050ca:	611a      	str	r2, [r3, #16]

        /* Increment Buffer pointer */
        hi2c->pBuffPtr++;
 80050cc:	68fb      	ldr	r3, [r7, #12]
 80050ce:	6a5b      	ldr	r3, [r3, #36]	@ 0x24
 80050d0:	1c5a      	adds	r2, r3, #1
 80050d2:	68fb      	ldr	r3, [r7, #12]
 80050d4:	625a      	str	r2, [r3, #36]	@ 0x24

        /* Update counter */
        hi2c->XferCount--;
 80050d6:	68fb      	ldr	r3, [r7, #12]
 80050d8:	8d5b      	ldrh	r3, [r3, #42]	@ 0x2a
 80050da:	b29b      	uxth	r3, r3
 80050dc:	3b01      	subs	r3, #1
 80050de:	b29a      	uxth	r2, r3
 80050e0:	68fb      	ldr	r3, [r7, #12]
 80050e2:	855a      	strh	r2, [r3, #42]	@ 0x2a
        hi2c->XferSize--;
 80050e4:	68fb      	ldr	r3, [r7, #12]
 80050e6:	8d1b      	ldrh	r3, [r3, #40]	@ 0x28
 80050e8:	3b01      	subs	r3, #1
 80050ea:	b29a      	uxth	r2, r3
 80050ec:	68fb      	ldr	r3, [r7, #12]
 80050ee:	851a      	strh	r2, [r3, #40]	@ 0x28
      }

      /* Wait until BTF flag is set */
      if (I2C_WaitOnBTFFlagUntilTimeout(hi2c, Timeout, tickstart) != HAL_OK)
 80050f0:	697a      	ldr	r2, [r7, #20]
 80050f2:	6a39      	ldr	r1, [r7, #32]
 80050f4:	68f8      	ldr	r0, [r7, #12]
 80050f6:	f000 fa19 	bl	800552c <I2C_WaitOnBTFFlagUntilTimeout>
 80050fa:	4603      	mov	r3, r0
 80050fc:	2b00      	cmp	r3, #0
 80050fe:	d00d      	beq.n	800511c <HAL_I2C_Master_Transmit+0x1b4>
      {
        if (hi2c->ErrorCode == HAL_I2C_ERROR_AF)
 8005100:	68fb      	ldr	r3, [r7, #12]
 8005102:	6c1b      	ldr	r3, [r3, #64]	@ 0x40
 8005104:	2b04      	cmp	r3, #4
 8005106:	d107      	bne.n	8005118 <HAL_I2C_Master_Transmit+0x1b0>
        {
          /* Generate Stop */
          SET_BIT(hi2c->Instance->CR1, I2C_CR1_STOP);
 8005108:	68fb      	ldr	r3, [r7, #12]
 800510a:	681b      	ldr	r3, [r3, #0]
 800510c:	681a      	ldr	r2, [r3, #0]
 800510e:	68fb      	ldr	r3, [r7, #12]
 8005110:	681b      	ldr	r3, [r3, #0]
 8005112:	f442 7200 	orr.w	r2, r2, #512	@ 0x200
 8005116:	601a      	str	r2, [r3, #0]
        }
        return HAL_ERROR;
 8005118:	2301      	movs	r3, #1
 800511a:	e01a      	b.n	8005152 <HAL_I2C_Master_Transmit+0x1ea>
    while (hi2c->XferSize > 0U)
 800511c:	68fb      	ldr	r3, [r7, #12]
 800511e:	8d1b      	ldrh	r3, [r3, #40]	@ 0x28
 8005120:	2b00      	cmp	r3, #0
 8005122:	d194      	bne.n	800504e <HAL_I2C_Master_Transmit+0xe6>
      }
    }

    /* Generate Stop */
    SET_BIT(hi2c->Instance->CR1, I2C_CR1_STOP);
 8005124:	68fb      	ldr	r3, [r7, #12]
 8005126:	681b      	ldr	r3, [r3, #0]
 8005128:	681a      	ldr	r2, [r3, #0]
 800512a:	68fb      	ldr	r3, [r7, #12]
 800512c:	681b      	ldr	r3, [r3, #0]
 800512e:	f442 7200 	orr.w	r2, r2, #512	@ 0x200
 8005132:	601a      	str	r2, [r3, #0]

    hi2c->State = HAL_I2C_STATE_READY;
 8005134:	68fb      	ldr	r3, [r7, #12]
 8005136:	2220      	movs	r2, #32
 8005138:	f883 203d 	strb.w	r2, [r3, #61]	@ 0x3d
    hi2c->Mode = HAL_I2C_MODE_NONE;
 800513c:	68fb      	ldr	r3, [r7, #12]
 800513e:	2200      	movs	r2, #0
 8005140:	f883 203e 	strb.w	r2, [r3, #62]	@ 0x3e

    /* Process Unlocked */
    __HAL_UNLOCK(hi2c);
 8005144:	68fb      	ldr	r3, [r7, #12]
 8005146:	2200      	movs	r2, #0
 8005148:	f883 203c 	strb.w	r2, [r3, #60]	@ 0x3c

    return HAL_OK;
 800514c:	2300      	movs	r3, #0
 800514e:	e000      	b.n	8005152 <HAL_I2C_Master_Transmit+0x1ea>
  }
  else
  {
    return HAL_BUSY;
 8005150:	2302      	movs	r3, #2
  }
}
 8005152:	4618      	mov	r0, r3
 8005154:	3718      	adds	r7, #24
 8005156:	46bd      	mov	sp, r7
 8005158:	bd80      	pop	{r7, pc}
 800515a:	bf00      	nop
 800515c:	00100002 	.word	0x00100002
 8005160:	ffff0000 	.word	0xffff0000

08005164 <I2C_MasterRequestWrite>:
  * @param  Timeout Timeout duration
  * @param  Tickstart Tick start value
  * @retval HAL status
  */
static HAL_StatusTypeDef I2C_MasterRequestWrite(I2C_HandleTypeDef *hi2c, uint16_t DevAddress, uint32_t Timeout, uint32_t Tickstart)
{
 8005164:	b580      	push	{r7, lr}
 8005166:	b088      	sub	sp, #32
 8005168:	af02      	add	r7, sp, #8
 800516a:	60f8      	str	r0, [r7, #12]
 800516c:	607a      	str	r2, [r7, #4]
 800516e:	603b      	str	r3, [r7, #0]
 8005170:	460b      	mov	r3, r1
 8005172:	817b      	strh	r3, [r7, #10]
  /* Declaration of temporary variable to prevent undefined behavior of volatile usage */
  uint32_t CurrentXferOptions = hi2c->XferOptions;
 8005174:	68fb      	ldr	r3, [r7, #12]
 8005176:	6adb      	ldr	r3, [r3, #44]	@ 0x2c
 8005178:	617b      	str	r3, [r7, #20]

  /* Generate Start condition if first transfer */
  if ((CurrentXferOptions == I2C_FIRST_AND_LAST_FRAME) || (CurrentXferOptions == I2C_FIRST_FRAME) || (CurrentXferOptions == I2C_NO_OPTION_FRAME))
 800517a:	697b      	ldr	r3, [r7, #20]
 800517c:	2b08      	cmp	r3, #8
 800517e:	d006      	beq.n	800518e <I2C_MasterRequestWrite+0x2a>
 8005180:	697b      	ldr	r3, [r7, #20]
 8005182:	2b01      	cmp	r3, #1
 8005184:	d003      	beq.n	800518e <I2C_MasterRequestWrite+0x2a>
 8005186:	697b      	ldr	r3, [r7, #20]
 8005188:	f513 3f80 	cmn.w	r3, #65536	@ 0x10000
 800518c:	d108      	bne.n	80051a0 <I2C_MasterRequestWrite+0x3c>
  {
    /* Generate Start */
    SET_BIT(hi2c->Instance->CR1, I2C_CR1_START);
 800518e:	68fb      	ldr	r3, [r7, #12]
 8005190:	681b      	ldr	r3, [r3, #0]
 8005192:	681a      	ldr	r2, [r3, #0]
 8005194:	68fb      	ldr	r3, [r7, #12]
 8005196:	681b      	ldr	r3, [r3, #0]
 8005198:	f442 7280 	orr.w	r2, r2, #256	@ 0x100
 800519c:	601a      	str	r2, [r3, #0]
 800519e:	e00b      	b.n	80051b8 <I2C_MasterRequestWrite+0x54>
  }
  else if (hi2c->PreviousState == I2C_STATE_MASTER_BUSY_RX)
 80051a0:	68fb      	ldr	r3, [r7, #12]
 80051a2:	6b1b      	ldr	r3, [r3, #48]	@ 0x30
 80051a4:	2b12      	cmp	r3, #18
 80051a6:	d107      	bne.n	80051b8 <I2C_MasterRequestWrite+0x54>
  {
    /* Generate ReStart */
    SET_BIT(hi2c->Instance->CR1, I2C_CR1_START);
 80051a8:	68fb      	ldr	r3, [r7, #12]
 80051aa:	681b      	ldr	r3, [r3, #0]
 80051ac:	681a      	ldr	r2, [r3, #0]
 80051ae:	68fb      	ldr	r3, [r7, #12]
 80051b0:	681b      	ldr	r3, [r3, #0]
 80051b2:	f442 7280 	orr.w	r2, r2, #256	@ 0x100
 80051b6:	601a      	str	r2, [r3, #0]
  {
    /* Do nothing */
  }

  /* Wait until SB flag is set */
  if (I2C_WaitOnFlagUntilTimeout(hi2c, I2C_FLAG_SB, RESET, Timeout, Tickstart) != HAL_OK)
 80051b8:	683b      	ldr	r3, [r7, #0]
 80051ba:	9300      	str	r3, [sp, #0]
 80051bc:	687b      	ldr	r3, [r7, #4]
 80051be:	2200      	movs	r2, #0
 80051c0:	f04f 1101 	mov.w	r1, #65537	@ 0x10001
 80051c4:	68f8      	ldr	r0, [r7, #12]
 80051c6:	f000 f84f 	bl	8005268 <I2C_WaitOnFlagUntilTimeout>
 80051ca:	4603      	mov	r3, r0
 80051cc:	2b00      	cmp	r3, #0
 80051ce:	d00d      	beq.n	80051ec <I2C_MasterRequestWrite+0x88>
  {
    if (READ_BIT(hi2c->Instance->CR1, I2C_CR1_START) == I2C_CR1_START)
 80051d0:	68fb      	ldr	r3, [r7, #12]
 80051d2:	681b      	ldr	r3, [r3, #0]
 80051d4:	681b      	ldr	r3, [r3, #0]
 80051d6:	f403 7380 	and.w	r3, r3, #256	@ 0x100
 80051da:	f5b3 7f80 	cmp.w	r3, #256	@ 0x100
 80051de:	d103      	bne.n	80051e8 <I2C_MasterRequestWrite+0x84>
    {
      hi2c->ErrorCode = HAL_I2C_WRONG_START;
 80051e0:	68fb      	ldr	r3, [r7, #12]
 80051e2:	f44f 7200 	mov.w	r2, #512	@ 0x200
 80051e6:	641a      	str	r2, [r3, #64]	@ 0x40
    }
    return HAL_TIMEOUT;
 80051e8:	2303      	movs	r3, #3
 80051ea:	e035      	b.n	8005258 <I2C_MasterRequestWrite+0xf4>
  }

  if (hi2c->Init.AddressingMode == I2C_ADDRESSINGMODE_7BIT)
 80051ec:	68fb      	ldr	r3, [r7, #12]
 80051ee:	691b      	ldr	r3, [r3, #16]
 80051f0:	f5b3 4f80 	cmp.w	r3, #16384	@ 0x4000
 80051f4:	d108      	bne.n	8005208 <I2C_MasterRequestWrite+0xa4>
  {
    /* Send slave address */
    hi2c->Instance->DR = I2C_7BIT_ADD_WRITE(DevAddress);
 80051f6:	897b      	ldrh	r3, [r7, #10]
 80051f8:	b2db      	uxtb	r3, r3
 80051fa:	461a      	mov	r2, r3
 80051fc:	68fb      	ldr	r3, [r7, #12]
 80051fe:	681b      	ldr	r3, [r3, #0]
 8005200:	f002 02fe 	and.w	r2, r2, #254	@ 0xfe
 8005204:	611a      	str	r2, [r3, #16]
 8005206:	e01b      	b.n	8005240 <I2C_MasterRequestWrite+0xdc>
  }
  else
  {
    /* Send header of slave address */
    hi2c->Instance->DR = I2C_10BIT_HEADER_WRITE(DevAddress);
 8005208:	897b      	ldrh	r3, [r7, #10]
 800520a:	11db      	asrs	r3, r3, #7
 800520c:	b2db      	uxtb	r3, r3
 800520e:	f003 0306 	and.w	r3, r3, #6
 8005212:	b2db      	uxtb	r3, r3
 8005214:	f063 030f 	orn	r3, r3, #15
 8005218:	b2da      	uxtb	r2, r3
 800521a:	68fb      	ldr	r3, [r7, #12]
 800521c:	681b      	ldr	r3, [r3, #0]
 800521e:	611a      	str	r2, [r3, #16]

    /* Wait until ADD10 flag is set */
    if (I2C_WaitOnMasterAddressFlagUntilTimeout(hi2c, I2C_FLAG_ADD10, Timeout, Tickstart) != HAL_OK)
 8005220:	683b      	ldr	r3, [r7, #0]
 8005222:	687a      	ldr	r2, [r7, #4]
 8005224:	490e      	ldr	r1, [pc, #56]	@ (8005260 <I2C_MasterRequestWrite+0xfc>)
 8005226:	68f8      	ldr	r0, [r7, #12]
 8005228:	f000 f898 	bl	800535c <I2C_WaitOnMasterAddressFlagUntilTimeout>
 800522c:	4603      	mov	r3, r0
 800522e:	2b00      	cmp	r3, #0
 8005230:	d001      	beq.n	8005236 <I2C_MasterRequestWrite+0xd2>
    {
      return HAL_ERROR;
 8005232:	2301      	movs	r3, #1
 8005234:	e010      	b.n	8005258 <I2C_MasterRequestWrite+0xf4>
    }

    /* Send slave address */
    hi2c->Instance->DR = I2C_10BIT_ADDRESS(DevAddress);
 8005236:	897b      	ldrh	r3, [r7, #10]
 8005238:	b2da      	uxtb	r2, r3
 800523a:	68fb      	ldr	r3, [r7, #12]
 800523c:	681b      	ldr	r3, [r3, #0]
 800523e:	611a      	str	r2, [r3, #16]
  }

  /* Wait until ADDR flag is set */
  if (I2C_WaitOnMasterAddressFlagUntilTimeout(hi2c, I2C_FLAG_ADDR, Timeout, Tickstart) != HAL_OK)
 8005240:	683b      	ldr	r3, [r7, #0]
 8005242:	687a      	ldr	r2, [r7, #4]
 8005244:	4907      	ldr	r1, [pc, #28]	@ (8005264 <I2C_MasterRequestWrite+0x100>)
 8005246:	68f8      	ldr	r0, [r7, #12]
 8005248:	f000 f888 	bl	800535c <I2C_WaitOnMasterAddressFlagUntilTimeout>
 800524c:	4603      	mov	r3, r0
 800524e:	2b00      	cmp	r3, #0
 8005250:	d001      	beq.n	8005256 <I2C_MasterRequestWrite+0xf2>
  {
    return HAL_ERROR;
 8005252:	2301      	movs	r3, #1
 8005254:	e000      	b.n	8005258 <I2C_MasterRequestWrite+0xf4>
  }

  return HAL_OK;
 8005256:	2300      	movs	r3, #0
}
 8005258:	4618      	mov	r0, r3
 800525a:	3718      	adds	r7, #24
 800525c:	46bd      	mov	sp, r7
 800525e:	bd80      	pop	{r7, pc}
 8005260:	00010008 	.word	0x00010008
 8005264:	00010002 	.word	0x00010002

08005268 <I2C_WaitOnFlagUntilTimeout>:
  * @param  Timeout Timeout duration
  * @param  Tickstart Tick start value
  * @retval HAL status
  */
static HAL_StatusTypeDef I2C_WaitOnFlagUntilTimeout(I2C_HandleTypeDef *hi2c, uint32_t Flag, FlagStatus Status, uint32_t Timeout, uint32_t Tickstart)
{
 8005268:	b580      	push	{r7, lr}
 800526a:	b084      	sub	sp, #16
 800526c:	af00      	add	r7, sp, #0
 800526e:	60f8      	str	r0, [r7, #12]
 8005270:	60b9      	str	r1, [r7, #8]
 8005272:	603b      	str	r3, [r7, #0]
 8005274:	4613      	mov	r3, r2
 8005276:	71fb      	strb	r3, [r7, #7]
  /* Wait until flag is set */
  while (__HAL_I2C_GET_FLAG(hi2c, Flag) == Status)
 8005278:	e048      	b.n	800530c <I2C_WaitOnFlagUntilTimeout+0xa4>
  {
    /* Check for the Timeout */
    if (Timeout != HAL_MAX_DELAY)
 800527a:	683b      	ldr	r3, [r7, #0]
 800527c:	f1b3 3fff 	cmp.w	r3, #4294967295
 8005280:	d044      	beq.n	800530c <I2C_WaitOnFlagUntilTimeout+0xa4>
    {
      if (((HAL_GetTick() - Tickstart) > Timeout) || (Timeout == 0U))
 8005282:	f7ff f8dd 	bl	8004440 <HAL_GetTick>
 8005286:	4602      	mov	r2, r0
 8005288:	69bb      	ldr	r3, [r7, #24]
 800528a:	1ad3      	subs	r3, r2, r3
 800528c:	683a      	ldr	r2, [r7, #0]
 800528e:	429a      	cmp	r2, r3
 8005290:	d302      	bcc.n	8005298 <I2C_WaitOnFlagUntilTimeout+0x30>
 8005292:	683b      	ldr	r3, [r7, #0]
 8005294:	2b00      	cmp	r3, #0
 8005296:	d139      	bne.n	800530c <I2C_WaitOnFlagUntilTimeout+0xa4>
      {
        if ((__HAL_I2C_GET_FLAG(hi2c, Flag) == Status))
 8005298:	68bb      	ldr	r3, [r7, #8]
 800529a:	0c1b      	lsrs	r3, r3, #16
 800529c:	b2db      	uxtb	r3, r3
 800529e:	2b01      	cmp	r3, #1
 80052a0:	d10d      	bne.n	80052be <I2C_WaitOnFlagUntilTimeout+0x56>
 80052a2:	68fb      	ldr	r3, [r7, #12]
 80052a4:	681b      	ldr	r3, [r3, #0]
 80052a6:	695b      	ldr	r3, [r3, #20]
 80052a8:	43da      	mvns	r2, r3
 80052aa:	68bb      	ldr	r3, [r7, #8]
 80052ac:	4013      	ands	r3, r2
 80052ae:	b29b      	uxth	r3, r3
 80052b0:	2b00      	cmp	r3, #0
 80052b2:	bf0c      	ite	eq
 80052b4:	2301      	moveq	r3, #1
 80052b6:	2300      	movne	r3, #0
 80052b8:	b2db      	uxtb	r3, r3
 80052ba:	461a      	mov	r2, r3
 80052bc:	e00c      	b.n	80052d8 <I2C_WaitOnFlagUntilTimeout+0x70>
 80052be:	68fb      	ldr	r3, [r7, #12]
 80052c0:	681b      	ldr	r3, [r3, #0]
 80052c2:	699b      	ldr	r3, [r3, #24]
 80052c4:	43da      	mvns	r2, r3
 80052c6:	68bb      	ldr	r3, [r7, #8]
 80052c8:	4013      	ands	r3, r2
 80052ca:	b29b      	uxth	r3, r3
 80052cc:	2b00      	cmp	r3, #0
 80052ce:	bf0c      	ite	eq
 80052d0:	2301      	moveq	r3, #1
 80052d2:	2300      	movne	r3, #0
 80052d4:	b2db      	uxtb	r3, r3
 80052d6:	461a      	mov	r2, r3
 80052d8:	79fb      	ldrb	r3, [r7, #7]
 80052da:	429a      	cmp	r2, r3
 80052dc:	d116      	bne.n	800530c <I2C_WaitOnFlagUntilTimeout+0xa4>
        {
          hi2c->PreviousState     = I2C_STATE_NONE;
 80052de:	68fb      	ldr	r3, [r7, #12]
 80052e0:	2200      	movs	r2, #0
 80052e2:	631a      	str	r2, [r3, #48]	@ 0x30
          hi2c->State             = HAL_I2C_STATE_READY;
 80052e4:	68fb      	ldr	r3, [r7, #12]
 80052e6:	2220      	movs	r2, #32
 80052e8:	f883 203d 	strb.w	r2, [r3, #61]	@ 0x3d
          hi2c->Mode              = HAL_I2C_MODE_NONE;
 80052ec:	68fb      	ldr	r3, [r7, #12]
 80052ee:	2200      	movs	r2, #0
 80052f0:	f883 203e 	strb.w	r2, [r3, #62]	@ 0x3e
          hi2c->ErrorCode         |= HAL_I2C_ERROR_TIMEOUT;
 80052f4:	68fb      	ldr	r3, [r7, #12]
 80052f6:	6c1b      	ldr	r3, [r3, #64]	@ 0x40
 80052f8:	f043 0220 	orr.w	r2, r3, #32
 80052fc:	68fb      	ldr	r3, [r7, #12]
 80052fe:	641a      	str	r2, [r3, #64]	@ 0x40

          /* Process Unlocked */
          __HAL_UNLOCK(hi2c);
 8005300:	68fb      	ldr	r3, [r7, #12]
 8005302:	2200      	movs	r2, #0
 8005304:	f883 203c 	strb.w	r2, [r3, #60]	@ 0x3c

          return HAL_ERROR;
 8005308:	2301      	movs	r3, #1
 800530a:	e023      	b.n	8005354 <I2C_WaitOnFlagUntilTimeout+0xec>
  while (__HAL_I2C_GET_FLAG(hi2c, Flag) == Status)
 800530c:	68bb      	ldr	r3, [r7, #8]
 800530e:	0c1b      	lsrs	r3, r3, #16
 8005310:	b2db      	uxtb	r3, r3
 8005312:	2b01      	cmp	r3, #1
 8005314:	d10d      	bne.n	8005332 <I2C_WaitOnFlagUntilTimeout+0xca>
 8005316:	68fb      	ldr	r3, [r7, #12]
 8005318:	681b      	ldr	r3, [r3, #0]
 800531a:	695b      	ldr	r3, [r3, #20]
 800531c:	43da      	mvns	r2, r3
 800531e:	68bb      	ldr	r3, [r7, #8]
 8005320:	4013      	ands	r3, r2
 8005322:	b29b      	uxth	r3, r3
 8005324:	2b00      	cmp	r3, #0
 8005326:	bf0c      	ite	eq
 8005328:	2301      	moveq	r3, #1
 800532a:	2300      	movne	r3, #0
 800532c:	b2db      	uxtb	r3, r3
 800532e:	461a      	mov	r2, r3
 8005330:	e00c      	b.n	800534c <I2C_WaitOnFlagUntilTimeout+0xe4>
 8005332:	68fb      	ldr	r3, [r7, #12]
 8005334:	681b      	ldr	r3, [r3, #0]
 8005336:	699b      	ldr	r3, [r3, #24]
 8005338:	43da      	mvns	r2, r3
 800533a:	68bb      	ldr	r3, [r7, #8]
 800533c:	4013      	ands	r3, r2
 800533e:	b29b      	uxth	r3, r3
 8005340:	2b00      	cmp	r3, #0
 8005342:	bf0c      	ite	eq
 8005344:	2301      	moveq	r3, #1
 8005346:	2300      	movne	r3, #0
 8005348:	b2db      	uxtb	r3, r3
 800534a:	461a      	mov	r2, r3
 800534c:	79fb      	ldrb	r3, [r7, #7]
 800534e:	429a      	cmp	r2, r3
 8005350:	d093      	beq.n	800527a <I2C_WaitOnFlagUntilTimeout+0x12>
        }
      }
    }
  }
  return HAL_OK;
 8005352:	2300      	movs	r3, #0
}
 8005354:	4618      	mov	r0, r3
 8005356:	3710      	adds	r7, #16
 8005358:	46bd      	mov	sp, r7
 800535a:	bd80      	pop	{r7, pc}

0800535c <I2C_WaitOnMasterAddressFlagUntilTimeout>:
  * @param  Timeout Timeout duration
  * @param  Tickstart Tick start value
  * @retval HAL status
  */
static HAL_StatusTypeDef I2C_WaitOnMasterAddressFlagUntilTimeout(I2C_HandleTypeDef *hi2c, uint32_t Flag, uint32_t Timeout, uint32_t Tickstart)
{
 800535c:	b580      	push	{r7, lr}
 800535e:	b084      	sub	sp, #16
 8005360:	af00      	add	r7, sp, #0
 8005362:	60f8      	str	r0, [r7, #12]
 8005364:	60b9      	str	r1, [r7, #8]
 8005366:	607a      	str	r2, [r7, #4]
 8005368:	603b      	str	r3, [r7, #0]
  while (__HAL_I2C_GET_FLAG(hi2c, Flag) == RESET)
 800536a:	e071      	b.n	8005450 <I2C_WaitOnMasterAddressFlagUntilTimeout+0xf4>
  {
    if (__HAL_I2C_GET_FLAG(hi2c, I2C_FLAG_AF) == SET)
 800536c:	68fb      	ldr	r3, [r7, #12]
 800536e:	681b      	ldr	r3, [r3, #0]
 8005370:	695b      	ldr	r3, [r3, #20]
 8005372:	f403 6380 	and.w	r3, r3, #1024	@ 0x400
 8005376:	f5b3 6f80 	cmp.w	r3, #1024	@ 0x400
 800537a:	d123      	bne.n	80053c4 <I2C_WaitOnMasterAddressFlagUntilTimeout+0x68>
    {
      /* Generate Stop */
      SET_BIT(hi2c->Instance->CR1, I2C_CR1_STOP);
 800537c:	68fb      	ldr	r3, [r7, #12]
 800537e:	681b      	ldr	r3, [r3, #0]
 8005380:	681a      	ldr	r2, [r3, #0]
 8005382:	68fb      	ldr	r3, [r7, #12]
 8005384:	681b      	ldr	r3, [r3, #0]
 8005386:	f442 7200 	orr.w	r2, r2, #512	@ 0x200
 800538a:	601a      	str	r2, [r3, #0]

      /* Clear AF Flag */
      __HAL_I2C_CLEAR_FLAG(hi2c, I2C_FLAG_AF);
 800538c:	68fb      	ldr	r3, [r7, #12]
 800538e:	681b      	ldr	r3, [r3, #0]
 8005390:	f46f 6280 	mvn.w	r2, #1024	@ 0x400
 8005394:	615a      	str	r2, [r3, #20]

      hi2c->PreviousState       = I2C_STATE_NONE;
 8005396:	68fb      	ldr	r3, [r7, #12]
 8005398:	2200      	movs	r2, #0
 800539a:	631a      	str	r2, [r3, #48]	@ 0x30
      hi2c->State               = HAL_I2C_STATE_READY;
 800539c:	68fb      	ldr	r3, [r7, #12]
 800539e:	2220      	movs	r2, #32
 80053a0:	f883 203d 	strb.w	r2, [r3, #61]	@ 0x3d
      hi2c->Mode                = HAL_I2C_MODE_NONE;
 80053a4:	68fb      	ldr	r3, [r7, #12]
 80053a6:	2200      	movs	r2, #0
 80053a8:	f883 203e 	strb.w	r2, [r3, #62]	@ 0x3e
      hi2c->ErrorCode           |= HAL_I2C_ERROR_AF;
 80053ac:	68fb      	ldr	r3, [r7, #12]
 80053ae:	6c1b      	ldr	r3, [r3, #64]	@ 0x40
 80053b0:	f043 0204 	orr.w	r2, r3, #4
 80053b4:	68fb      	ldr	r3, [r7, #12]
 80053b6:	641a      	str	r2, [r3, #64]	@ 0x40

      /* Process Unlocked */
      __HAL_UNLOCK(hi2c);
 80053b8:	68fb      	ldr	r3, [r7, #12]
 80053ba:	2200      	movs	r2, #0
 80053bc:	f883 203c 	strb.w	r2, [r3, #60]	@ 0x3c

      return HAL_ERROR;
 80053c0:	2301      	movs	r3, #1
 80053c2:	e067      	b.n	8005494 <I2C_WaitOnMasterAddressFlagUntilTimeout+0x138>
    }

    /* Check for the Timeout */
    if (Timeout != HAL_MAX_DELAY)
 80053c4:	687b      	ldr	r3, [r7, #4]
 80053c6:	f1b3 3fff 	cmp.w	r3, #4294967295
 80053ca:	d041      	beq.n	8005450 <I2C_WaitOnMasterAddressFlagUntilTimeout+0xf4>
    {
      if (((HAL_GetTick() - Tickstart) > Timeout) || (Timeout == 0U))
 80053cc:	f7ff f838 	bl	8004440 <HAL_GetTick>
 80053d0:	4602      	mov	r2, r0
 80053d2:	683b      	ldr	r3, [r7, #0]
 80053d4:	1ad3      	subs	r3, r2, r3
 80053d6:	687a      	ldr	r2, [r7, #4]
 80053d8:	429a      	cmp	r2, r3
 80053da:	d302      	bcc.n	80053e2 <I2C_WaitOnMasterAddressFlagUntilTimeout+0x86>
 80053dc:	687b      	ldr	r3, [r7, #4]
 80053de:	2b00      	cmp	r3, #0
 80053e0:	d136      	bne.n	8005450 <I2C_WaitOnMasterAddressFlagUntilTimeout+0xf4>
      {
        if ((__HAL_I2C_GET_FLAG(hi2c, Flag) == RESET))
 80053e2:	68bb      	ldr	r3, [r7, #8]
 80053e4:	0c1b      	lsrs	r3, r3, #16
 80053e6:	b2db      	uxtb	r3, r3
 80053e8:	2b01      	cmp	r3, #1
 80053ea:	d10c      	bne.n	8005406 <I2C_WaitOnMasterAddressFlagUntilTimeout+0xaa>
 80053ec:	68fb      	ldr	r3, [r7, #12]
 80053ee:	681b      	ldr	r3, [r3, #0]
 80053f0:	695b      	ldr	r3, [r3, #20]
 80053f2:	43da      	mvns	r2, r3
 80053f4:	68bb      	ldr	r3, [r7, #8]
 80053f6:	4013      	ands	r3, r2
 80053f8:	b29b      	uxth	r3, r3
 80053fa:	2b00      	cmp	r3, #0
 80053fc:	bf14      	ite	ne
 80053fe:	2301      	movne	r3, #1
 8005400:	2300      	moveq	r3, #0
 8005402:	b2db      	uxtb	r3, r3
 8005404:	e00b      	b.n	800541e <I2C_WaitOnMasterAddressFlagUntilTimeout+0xc2>
 8005406:	68fb      	ldr	r3, [r7, #12]
 8005408:	681b      	ldr	r3, [r3, #0]
 800540a:	699b      	ldr	r3, [r3, #24]
 800540c:	43da      	mvns	r2, r3
 800540e:	68bb      	ldr	r3, [r7, #8]
 8005410:	4013      	ands	r3, r2
 8005412:	b29b      	uxth	r3, r3
 8005414:	2b00      	cmp	r3, #0
 8005416:	bf14      	ite	ne
 8005418:	2301      	movne	r3, #1
 800541a:	2300      	moveq	r3, #0
 800541c:	b2db      	uxtb	r3, r3
 800541e:	2b00      	cmp	r3, #0
 8005420:	d016      	beq.n	8005450 <I2C_WaitOnMasterAddressFlagUntilTimeout+0xf4>
        {
          hi2c->PreviousState       = I2C_STATE_NONE;
 8005422:	68fb      	ldr	r3, [r7, #12]
 8005424:	2200      	movs	r2, #0
 8005426:	631a      	str	r2, [r3, #48]	@ 0x30
          hi2c->State               = HAL_I2C_STATE_READY;
 8005428:	68fb      	ldr	r3, [r7, #12]
 800542a:	2220      	movs	r2, #32
 800542c:	f883 203d 	strb.w	r2, [r3, #61]	@ 0x3d
          hi2c->Mode                = HAL_I2C_MODE_NONE;
 8005430:	68fb      	ldr	r3, [r7, #12]
 8005432:	2200      	movs	r2, #0
 8005434:	f883 203e 	strb.w	r2, [r3, #62]	@ 0x3e
          hi2c->ErrorCode           |= HAL_I2C_ERROR_TIMEOUT;
 8005438:	68fb      	ldr	r3, [r7, #12]
 800543a:	6c1b      	ldr	r3, [r3, #64]	@ 0x40
 800543c:	f043 0220 	orr.w	r2, r3, #32
 8005440:	68fb      	ldr	r3, [r7, #12]
 8005442:	641a      	str	r2, [r3, #64]	@ 0x40

          /* Process Unlocked */
          __HAL_UNLOCK(hi2c);
 8005444:	68fb      	ldr	r3, [r7, #12]
 8005446:	2200      	movs	r2, #0
 8005448:	f883 203c 	strb.w	r2, [r3, #60]	@ 0x3c

          return HAL_ERROR;
 800544c:	2301      	movs	r3, #1
 800544e:	e021      	b.n	8005494 <I2C_WaitOnMasterAddressFlagUntilTimeout+0x138>
  while (__HAL_I2C_GET_FLAG(hi2c, Flag) == RESET)
 8005450:	68bb      	ldr	r3, [r7, #8]
 8005452:	0c1b      	lsrs	r3, r3, #16
 8005454:	b2db      	uxtb	r3, r3
 8005456:	2b01      	cmp	r3, #1
 8005458:	d10c      	bne.n	8005474 <I2C_WaitOnMasterAddressFlagUntilTimeout+0x118>
 800545a:	68fb      	ldr	r3, [r7, #12]
 800545c:	681b      	ldr	r3, [r3, #0]
 800545e:	695b      	ldr	r3, [r3, #20]
 8005460:	43da      	mvns	r2, r3
 8005462:	68bb      	ldr	r3, [r7, #8]
 8005464:	4013      	ands	r3, r2
 8005466:	b29b      	uxth	r3, r3
 8005468:	2b00      	cmp	r3, #0
 800546a:	bf14      	ite	ne
 800546c:	2301      	movne	r3, #1
 800546e:	2300      	moveq	r3, #0
 8005470:	b2db      	uxtb	r3, r3
 8005472:	e00b      	b.n	800548c <I2C_WaitOnMasterAddressFlagUntilTimeout+0x130>
 8005474:	68fb      	ldr	r3, [r7, #12]
 8005476:	681b      	ldr	r3, [r3, #0]
 8005478:	699b      	ldr	r3, [r3, #24]
 800547a:	43da      	mvns	r2, r3
 800547c:	68bb      	ldr	r3, [r7, #8]
 800547e:	4013      	ands	r3, r2
 8005480:	b29b      	uxth	r3, r3
 8005482:	2b00      	cmp	r3, #0
 8005484:	bf14      	ite	ne
 8005486:	2301      	movne	r3, #1
 8005488:	2300      	moveq	r3, #0
 800548a:	b2db      	uxtb	r3, r3
 800548c:	2b00      	cmp	r3, #0
 800548e:	f47f af6d 	bne.w	800536c <I2C_WaitOnMasterAddressFlagUntilTimeout+0x10>
        }
      }
    }
  }
  return HAL_OK;
 8005492:	2300      	movs	r3, #0
}
 8005494:	4618      	mov	r0, r3
 8005496:	3710      	adds	r7, #16
 8005498:	46bd      	mov	sp, r7
 800549a:	bd80      	pop	{r7, pc}

0800549c <I2C_WaitOnTXEFlagUntilTimeout>:
  * @param  Timeout Timeout duration
  * @param  Tickstart Tick start value
  * @retval HAL status
  */
static HAL_StatusTypeDef I2C_WaitOnTXEFlagUntilTimeout(I2C_HandleTypeDef *hi2c, uint32_t Timeout, uint32_t Tickstart)
{
 800549c:	b580      	push	{r7, lr}
 800549e:	b084      	sub	sp, #16
 80054a0:	af00      	add	r7, sp, #0
 80054a2:	60f8      	str	r0, [r7, #12]
 80054a4:	60b9      	str	r1, [r7, #8]
 80054a6:	607a      	str	r2, [r7, #4]
  while (__HAL_I2C_GET_FLAG(hi2c, I2C_FLAG_TXE) == RESET)
 80054a8:	e034      	b.n	8005514 <I2C_WaitOnTXEFlagUntilTimeout+0x78>
  {
    /* Check if a NACK is detected */
    if (I2C_IsAcknowledgeFailed(hi2c) != HAL_OK)
 80054aa:	68f8      	ldr	r0, [r7, #12]
 80054ac:	f000 f886 	bl	80055bc <I2C_IsAcknowledgeFailed>
 80054b0:	4603      	mov	r3, r0
 80054b2:	2b00      	cmp	r3, #0
 80054b4:	d001      	beq.n	80054ba <I2C_WaitOnTXEFlagUntilTimeout+0x1e>
    {
      return HAL_ERROR;
 80054b6:	2301      	movs	r3, #1
 80054b8:	e034      	b.n	8005524 <I2C_WaitOnTXEFlagUntilTimeout+0x88>
    }

    /* Check for the Timeout */
    if (Timeout != HAL_MAX_DELAY)
 80054ba:	68bb      	ldr	r3, [r7, #8]
 80054bc:	f1b3 3fff 	cmp.w	r3, #4294967295
 80054c0:	d028      	beq.n	8005514 <I2C_WaitOnTXEFlagUntilTimeout+0x78>
    {
      if (((HAL_GetTick() - Tickstart) > Timeout) || (Timeout == 0U))
 80054c2:	f7fe ffbd 	bl	8004440 <HAL_GetTick>
 80054c6:	4602      	mov	r2, r0
 80054c8:	687b      	ldr	r3, [r7, #4]
 80054ca:	1ad3      	subs	r3, r2, r3
 80054cc:	68ba      	ldr	r2, [r7, #8]
 80054ce:	429a      	cmp	r2, r3
 80054d0:	d302      	bcc.n	80054d8 <I2C_WaitOnTXEFlagUntilTimeout+0x3c>
 80054d2:	68bb      	ldr	r3, [r7, #8]
 80054d4:	2b00      	cmp	r3, #0
 80054d6:	d11d      	bne.n	8005514 <I2C_WaitOnTXEFlagUntilTimeout+0x78>
      {
        if ((__HAL_I2C_GET_FLAG(hi2c, I2C_FLAG_TXE) == RESET))
 80054d8:	68fb      	ldr	r3, [r7, #12]
 80054da:	681b      	ldr	r3, [r3, #0]
 80054dc:	695b      	ldr	r3, [r3, #20]
 80054de:	f003 0380 	and.w	r3, r3, #128	@ 0x80
 80054e2:	2b80      	cmp	r3, #128	@ 0x80
 80054e4:	d016      	beq.n	8005514 <I2C_WaitOnTXEFlagUntilTimeout+0x78>
        {
          hi2c->PreviousState       = I2C_STATE_NONE;
 80054e6:	68fb      	ldr	r3, [r7, #12]
 80054e8:	2200      	movs	r2, #0
 80054ea:	631a      	str	r2, [r3, #48]	@ 0x30
          hi2c->State               = HAL_I2C_STATE_READY;
 80054ec:	68fb      	ldr	r3, [r7, #12]
 80054ee:	2220      	movs	r2, #32
 80054f0:	f883 203d 	strb.w	r2, [r3, #61]	@ 0x3d
          hi2c->Mode                = HAL_I2C_MODE_NONE;
 80054f4:	68fb      	ldr	r3, [r7, #12]
 80054f6:	2200      	movs	r2, #0
 80054f8:	f883 203e 	strb.w	r2, [r3, #62]	@ 0x3e
          hi2c->ErrorCode           |= HAL_I2C_ERROR_TIMEOUT;
 80054fc:	68fb      	ldr	r3, [r7, #12]
 80054fe:	6c1b      	ldr	r3, [r3, #64]	@ 0x40
 8005500:	f043 0220 	orr.w	r2, r3, #32
 8005504:	68fb      	ldr	r3, [r7, #12]
 8005506:	641a      	str	r2, [r3, #64]	@ 0x40

          /* Process Unlocked */
          __HAL_UNLOCK(hi2c);
 8005508:	68fb      	ldr	r3, [r7, #12]
 800550a:	2200      	movs	r2, #0
 800550c:	f883 203c 	strb.w	r2, [r3, #60]	@ 0x3c

          return HAL_ERROR;
 8005510:	2301      	movs	r3, #1
 8005512:	e007      	b.n	8005524 <I2C_WaitOnTXEFlagUntilTimeout+0x88>
  while (__HAL_I2C_GET_FLAG(hi2c, I2C_FLAG_TXE) == RESET)
 8005514:	68fb      	ldr	r3, [r7, #12]
 8005516:	681b      	ldr	r3, [r3, #0]
 8005518:	695b      	ldr	r3, [r3, #20]
 800551a:	f003 0380 	and.w	r3, r3, #128	@ 0x80
 800551e:	2b80      	cmp	r3, #128	@ 0x80
 8005520:	d1c3      	bne.n	80054aa <I2C_WaitOnTXEFlagUntilTimeout+0xe>
        }
      }
    }
  }
  return HAL_OK;
 8005522:	2300      	movs	r3, #0
}
 8005524:	4618      	mov	r0, r3
 8005526:	3710      	adds	r7, #16
 8005528:	46bd      	mov	sp, r7
 800552a:	bd80      	pop	{r7, pc}

0800552c <I2C_WaitOnBTFFlagUntilTimeout>:
  * @param  Timeout Timeout duration
  * @param  Tickstart Tick start value
  * @retval HAL status
  */
static HAL_StatusTypeDef I2C_WaitOnBTFFlagUntilTimeout(I2C_HandleTypeDef *hi2c, uint32_t Timeout, uint32_t Tickstart)
{
 800552c:	b580      	push	{r7, lr}
 800552e:	b084      	sub	sp, #16
 8005530:	af00      	add	r7, sp, #0
 8005532:	60f8      	str	r0, [r7, #12]
 8005534:	60b9      	str	r1, [r7, #8]
 8005536:	607a      	str	r2, [r7, #4]
  while (__HAL_I2C_GET_FLAG(hi2c, I2C_FLAG_BTF) == RESET)
 8005538:	e034      	b.n	80055a4 <I2C_WaitOnBTFFlagUntilTimeout+0x78>
  {
    /* Check if a NACK is detected */
    if (I2C_IsAcknowledgeFailed(hi2c) != HAL_OK)
 800553a:	68f8      	ldr	r0, [r7, #12]
 800553c:	f000 f83e 	bl	80055bc <I2C_IsAcknowledgeFailed>
 8005540:	4603      	mov	r3, r0
 8005542:	2b00      	cmp	r3, #0
 8005544:	d001      	beq.n	800554a <I2C_WaitOnBTFFlagUntilTimeout+0x1e>
    {
      return HAL_ERROR;
 8005546:	2301      	movs	r3, #1
 8005548:	e034      	b.n	80055b4 <I2C_WaitOnBTFFlagUntilTimeout+0x88>
    }

    /* Check for the Timeout */
    if (Timeout != HAL_MAX_DELAY)
 800554a:	68bb      	ldr	r3, [r7, #8]
 800554c:	f1b3 3fff 	cmp.w	r3, #4294967295
 8005550:	d028      	beq.n	80055a4 <I2C_WaitOnBTFFlagUntilTimeout+0x78>
    {
      if (((HAL_GetTick() - Tickstart) > Timeout) || (Timeout == 0U))
 8005552:	f7fe ff75 	bl	8004440 <HAL_GetTick>
 8005556:	4602      	mov	r2, r0
 8005558:	687b      	ldr	r3, [r7, #4]
 800555a:	1ad3      	subs	r3, r2, r3
 800555c:	68ba      	ldr	r2, [r7, #8]
 800555e:	429a      	cmp	r2, r3
 8005560:	d302      	bcc.n	8005568 <I2C_WaitOnBTFFlagUntilTimeout+0x3c>
 8005562:	68bb      	ldr	r3, [r7, #8]
 8005564:	2b00      	cmp	r3, #0
 8005566:	d11d      	bne.n	80055a4 <I2C_WaitOnBTFFlagUntilTimeout+0x78>
      {
        if ((__HAL_I2C_GET_FLAG(hi2c, I2C_FLAG_BTF) == RESET))
 8005568:	68fb      	ldr	r3, [r7, #12]
 800556a:	681b      	ldr	r3, [r3, #0]
 800556c:	695b      	ldr	r3, [r3, #20]
 800556e:	f003 0304 	and.w	r3, r3, #4
 8005572:	2b04      	cmp	r3, #4
 8005574:	d016      	beq.n	80055a4 <I2C_WaitOnBTFFlagUntilTimeout+0x78>
        {
          hi2c->PreviousState       = I2C_STATE_NONE;
 8005576:	68fb      	ldr	r3, [r7, #12]
 8005578:	2200      	movs	r2, #0
 800557a:	631a      	str	r2, [r3, #48]	@ 0x30
          hi2c->State               = HAL_I2C_STATE_READY;
 800557c:	68fb      	ldr	r3, [r7, #12]
 800557e:	2220      	movs	r2, #32
 8005580:	f883 203d 	strb.w	r2, [r3, #61]	@ 0x3d
          hi2c->Mode                = HAL_I2C_MODE_NONE;
 8005584:	68fb      	ldr	r3, [r7, #12]
 8005586:	2200      	movs	r2, #0
 8005588:	f883 203e 	strb.w	r2, [r3, #62]	@ 0x3e
          hi2c->ErrorCode           |= HAL_I2C_ERROR_TIMEOUT;
 800558c:	68fb      	ldr	r3, [r7, #12]
 800558e:	6c1b      	ldr	r3, [r3, #64]	@ 0x40
 8005590:	f043 0220 	orr.w	r2, r3, #32
 8005594:	68fb      	ldr	r3, [r7, #12]
 8005596:	641a      	str	r2, [r3, #64]	@ 0x40

          /* Process Unlocked */
          __HAL_UNLOCK(hi2c);
 8005598:	68fb      	ldr	r3, [r7, #12]
 800559a:	2200      	movs	r2, #0
 800559c:	f883 203c 	strb.w	r2, [r3, #60]	@ 0x3c

          return HAL_ERROR;
 80055a0:	2301      	movs	r3, #1
 80055a2:	e007      	b.n	80055b4 <I2C_WaitOnBTFFlagUntilTimeout+0x88>
  while (__HAL_I2C_GET_FLAG(hi2c, I2C_FLAG_BTF) == RESET)
 80055a4:	68fb      	ldr	r3, [r7, #12]
 80055a6:	681b      	ldr	r3, [r3, #0]
 80055a8:	695b      	ldr	r3, [r3, #20]
 80055aa:	f003 0304 	and.w	r3, r3, #4
 80055ae:	2b04      	cmp	r3, #4
 80055b0:	d1c3      	bne.n	800553a <I2C_WaitOnBTFFlagUntilTimeout+0xe>
        }
      }
    }
  }
  return HAL_OK;
 80055b2:	2300      	movs	r3, #0
}
 80055b4:	4618      	mov	r0, r3
 80055b6:	3710      	adds	r7, #16
 80055b8:	46bd      	mov	sp, r7
 80055ba:	bd80      	pop	{r7, pc}

080055bc <I2C_IsAcknowledgeFailed>:
  * @param  hi2c Pointer to a I2C_HandleTypeDef structure that contains
  *                the configuration information for the specified I2C.
  * @retval HAL status
  */
static HAL_StatusTypeDef I2C_IsAcknowledgeFailed(I2C_HandleTypeDef *hi2c)
{
 80055bc:	b480      	push	{r7}
 80055be:	b083      	sub	sp, #12
 80055c0:	af00      	add	r7, sp, #0
 80055c2:	6078      	str	r0, [r7, #4]
  if (__HAL_I2C_GET_FLAG(hi2c, I2C_FLAG_AF) == SET)
 80055c4:	687b      	ldr	r3, [r7, #4]
 80055c6:	681b      	ldr	r3, [r3, #0]
 80055c8:	695b      	ldr	r3, [r3, #20]
 80055ca:	f403 6380 	and.w	r3, r3, #1024	@ 0x400
 80055ce:	f5b3 6f80 	cmp.w	r3, #1024	@ 0x400
 80055d2:	d11b      	bne.n	800560c <I2C_IsAcknowledgeFailed+0x50>
  {
    /* Clear NACKF Flag */
    __HAL_I2C_CLEAR_FLAG(hi2c, I2C_FLAG_AF);
 80055d4:	687b      	ldr	r3, [r7, #4]
 80055d6:	681b      	ldr	r3, [r3, #0]
 80055d8:	f46f 6280 	mvn.w	r2, #1024	@ 0x400
 80055dc:	615a      	str	r2, [r3, #20]

    hi2c->PreviousState       = I2C_STATE_NONE;
 80055de:	687b      	ldr	r3, [r7, #4]
 80055e0:	2200      	movs	r2, #0
 80055e2:	631a      	str	r2, [r3, #48]	@ 0x30
    hi2c->State               = HAL_I2C_STATE_READY;
 80055e4:	687b      	ldr	r3, [r7, #4]
 80055e6:	2220      	movs	r2, #32
 80055e8:	f883 203d 	strb.w	r2, [r3, #61]	@ 0x3d
    hi2c->Mode                = HAL_I2C_MODE_NONE;
 80055ec:	687b      	ldr	r3, [r7, #4]
 80055ee:	2200      	movs	r2, #0
 80055f0:	f883 203e 	strb.w	r2, [r3, #62]	@ 0x3e
    hi2c->ErrorCode           |= HAL_I2C_ERROR_AF;
 80055f4:	687b      	ldr	r3, [r7, #4]
 80055f6:	6c1b      	ldr	r3, [r3, #64]	@ 0x40
 80055f8:	f043 0204 	orr.w	r2, r3, #4
 80055fc:	687b      	ldr	r3, [r7, #4]
 80055fe:	641a      	str	r2, [r3, #64]	@ 0x40

    /* Process Unlocked */
    __HAL_UNLOCK(hi2c);
 8005600:	687b      	ldr	r3, [r7, #4]
 8005602:	2200      	movs	r2, #0
 8005604:	f883 203c 	strb.w	r2, [r3, #60]	@ 0x3c

    return HAL_ERROR;
 8005608:	2301      	movs	r3, #1
 800560a:	e000      	b.n	800560e <I2C_IsAcknowledgeFailed+0x52>
  }
  return HAL_OK;
 800560c:	2300      	movs	r3, #0
}
 800560e:	4618      	mov	r0, r3
 8005610:	370c      	adds	r7, #12
 8005612:	46bd      	mov	sp, r7
 8005614:	bc80      	pop	{r7}
 8005616:	4770      	bx	lr

08005618 <HAL_RCC_OscConfig>:
  *         supported by this macro. User should request a transition to HSE Off
  *         first and then HSE On or HSE Bypass.
  * @retval HAL status
  */
HAL_StatusTypeDef HAL_RCC_OscConfig(RCC_OscInitTypeDef  *RCC_OscInitStruct)
{
 8005618:	b580      	push	{r7, lr}
 800561a:	b086      	sub	sp, #24
 800561c:	af00      	add	r7, sp, #0
 800561e:	6078      	str	r0, [r7, #4]
  uint32_t tickstart;
  uint32_t pll_config;

  /* Check Null pointer */
  if (RCC_OscInitStruct == NULL)
 8005620:	687b      	ldr	r3, [r7, #4]
 8005622:	2b00      	cmp	r3, #0
 8005624:	d101      	bne.n	800562a <HAL_RCC_OscConfig+0x12>
  {
    return HAL_ERROR;
 8005626:	2301      	movs	r3, #1
 8005628:	e272      	b.n	8005b10 <HAL_RCC_OscConfig+0x4f8>

  /* Check the parameters */
  assert_param(IS_RCC_OSCILLATORTYPE(RCC_OscInitStruct->OscillatorType));

  /*------------------------------- HSE Configuration ------------------------*/
  if (((RCC_OscInitStruct->OscillatorType) & RCC_OSCILLATORTYPE_HSE) == RCC_OSCILLATORTYPE_HSE)
 800562a:	687b      	ldr	r3, [r7, #4]
 800562c:	681b      	ldr	r3, [r3, #0]
 800562e:	f003 0301 	and.w	r3, r3, #1
 8005632:	2b00      	cmp	r3, #0
 8005634:	f000 8087 	beq.w	8005746 <HAL_RCC_OscConfig+0x12e>
  {
    /* Check the parameters */
    assert_param(IS_RCC_HSE(RCC_OscInitStruct->HSEState));

    /* When the HSE is used as system clock or clock source for PLL in these cases it is not allowed to be disabled */
    if ((__HAL_RCC_GET_SYSCLK_SOURCE() == RCC_SYSCLKSOURCE_STATUS_HSE)
 8005638:	4b92      	ldr	r3, [pc, #584]	@ (8005884 <HAL_RCC_OscConfig+0x26c>)
 800563a:	685b      	ldr	r3, [r3, #4]
 800563c:	f003 030c 	and.w	r3, r3, #12
 8005640:	2b04      	cmp	r3, #4
 8005642:	d00c      	beq.n	800565e <HAL_RCC_OscConfig+0x46>
        || ((__HAL_RCC_GET_SYSCLK_SOURCE() == RCC_SYSCLKSOURCE_STATUS_PLLCLK) && (__HAL_RCC_GET_PLL_OSCSOURCE() == RCC_PLLSOURCE_HSE)))
 8005644:	4b8f      	ldr	r3, [pc, #572]	@ (8005884 <HAL_RCC_OscConfig+0x26c>)
 8005646:	685b      	ldr	r3, [r3, #4]
 8005648:	f003 030c 	and.w	r3, r3, #12
 800564c:	2b08      	cmp	r3, #8
 800564e:	d112      	bne.n	8005676 <HAL_RCC_OscConfig+0x5e>
 8005650:	4b8c      	ldr	r3, [pc, #560]	@ (8005884 <HAL_RCC_OscConfig+0x26c>)
 8005652:	685b      	ldr	r3, [r3, #4]
 8005654:	f403 3380 	and.w	r3, r3, #65536	@ 0x10000
 8005658:	f5b3 3f80 	cmp.w	r3, #65536	@ 0x10000
 800565c:	d10b      	bne.n	8005676 <HAL_RCC_OscConfig+0x5e>
    {
      if ((__HAL_RCC_GET_FLAG(RCC_FLAG_HSERDY) != RESET) && (RCC_OscInitStruct->HSEState == RCC_HSE_OFF))
 800565e:	4b89      	ldr	r3, [pc, #548]	@ (8005884 <HAL_RCC_OscConfig+0x26c>)
 8005660:	681b      	ldr	r3, [r3, #0]
 8005662:	f403 3300 	and.w	r3, r3, #131072	@ 0x20000
 8005666:	2b00      	cmp	r3, #0
 8005668:	d06c      	beq.n	8005744 <HAL_RCC_OscConfig+0x12c>
 800566a:	687b      	ldr	r3, [r7, #4]
 800566c:	685b      	ldr	r3, [r3, #4]
 800566e:	2b00      	cmp	r3, #0
 8005670:	d168      	bne.n	8005744 <HAL_RCC_OscConfig+0x12c>
      {
        return HAL_ERROR;
 8005672:	2301      	movs	r3, #1
 8005674:	e24c      	b.n	8005b10 <HAL_RCC_OscConfig+0x4f8>
      }
    }
    else
    {
      /* Set the new HSE configuration ---------------------------------------*/
      __HAL_RCC_HSE_CONFIG(RCC_OscInitStruct->HSEState);
 8005676:	687b      	ldr	r3, [r7, #4]
 8005678:	685b      	ldr	r3, [r3, #4]
 800567a:	f5b3 3f80 	cmp.w	r3, #65536	@ 0x10000
 800567e:	d106      	bne.n	800568e <HAL_RCC_OscConfig+0x76>
 8005680:	4b80      	ldr	r3, [pc, #512]	@ (8005884 <HAL_RCC_OscConfig+0x26c>)
 8005682:	681b      	ldr	r3, [r3, #0]
 8005684:	4a7f      	ldr	r2, [pc, #508]	@ (8005884 <HAL_RCC_OscConfig+0x26c>)
 8005686:	f443 3380 	orr.w	r3, r3, #65536	@ 0x10000
 800568a:	6013      	str	r3, [r2, #0]
 800568c:	e02e      	b.n	80056ec <HAL_RCC_OscConfig+0xd4>
 800568e:	687b      	ldr	r3, [r7, #4]
 8005690:	685b      	ldr	r3, [r3, #4]
 8005692:	2b00      	cmp	r3, #0
 8005694:	d10c      	bne.n	80056b0 <HAL_RCC_OscConfig+0x98>
 8005696:	4b7b      	ldr	r3, [pc, #492]	@ (8005884 <HAL_RCC_OscConfig+0x26c>)
 8005698:	681b      	ldr	r3, [r3, #0]
 800569a:	4a7a      	ldr	r2, [pc, #488]	@ (8005884 <HAL_RCC_OscConfig+0x26c>)
 800569c:	f423 3380 	bic.w	r3, r3, #65536	@ 0x10000
 80056a0:	6013      	str	r3, [r2, #0]
 80056a2:	4b78      	ldr	r3, [pc, #480]	@ (8005884 <HAL_RCC_OscConfig+0x26c>)
 80056a4:	681b      	ldr	r3, [r3, #0]
 80056a6:	4a77      	ldr	r2, [pc, #476]	@ (8005884 <HAL_RCC_OscConfig+0x26c>)
 80056a8:	f423 2380 	bic.w	r3, r3, #262144	@ 0x40000
 80056ac:	6013      	str	r3, [r2, #0]
 80056ae:	e01d      	b.n	80056ec <HAL_RCC_OscConfig+0xd4>
 80056b0:	687b      	ldr	r3, [r7, #4]
 80056b2:	685b      	ldr	r3, [r3, #4]
 80056b4:	f5b3 2fa0 	cmp.w	r3, #327680	@ 0x50000
 80056b8:	d10c      	bne.n	80056d4 <HAL_RCC_OscConfig+0xbc>
 80056ba:	4b72      	ldr	r3, [pc, #456]	@ (8005884 <HAL_RCC_OscConfig+0x26c>)
 80056bc:	681b      	ldr	r3, [r3, #0]
 80056be:	4a71      	ldr	r2, [pc, #452]	@ (8005884 <HAL_RCC_OscConfig+0x26c>)
 80056c0:	f443 2380 	orr.w	r3, r3, #262144	@ 0x40000
 80056c4:	6013      	str	r3, [r2, #0]
 80056c6:	4b6f      	ldr	r3, [pc, #444]	@ (8005884 <HAL_RCC_OscConfig+0x26c>)
 80056c8:	681b      	ldr	r3, [r3, #0]
 80056ca:	4a6e      	ldr	r2, [pc, #440]	@ (8005884 <HAL_RCC_OscConfig+0x26c>)
 80056cc:	f443 3380 	orr.w	r3, r3, #65536	@ 0x10000
 80056d0:	6013      	str	r3, [r2, #0]
 80056d2:	e00b      	b.n	80056ec <HAL_RCC_OscConfig+0xd4>
 80056d4:	4b6b      	ldr	r3, [pc, #428]	@ (8005884 <HAL_RCC_OscConfig+0x26c>)
 80056d6:	681b      	ldr	r3, [r3, #0]
 80056d8:	4a6a      	ldr	r2, [pc, #424]	@ (8005884 <HAL_RCC_OscConfig+0x26c>)
 80056da:	f423 3380 	bic.w	r3, r3, #65536	@ 0x10000
 80056de:	6013      	str	r3, [r2, #0]
 80056e0:	4b68      	ldr	r3, [pc, #416]	@ (8005884 <HAL_RCC_OscConfig+0x26c>)
 80056e2:	681b      	ldr	r3, [r3, #0]
 80056e4:	4a67      	ldr	r2, [pc, #412]	@ (8005884 <HAL_RCC_OscConfig+0x26c>)
 80056e6:	f423 2380 	bic.w	r3, r3, #262144	@ 0x40000
 80056ea:	6013      	str	r3, [r2, #0]


      /* Check the HSE State */
      if (RCC_OscInitStruct->HSEState != RCC_HSE_OFF)
 80056ec:	687b      	ldr	r3, [r7, #4]
 80056ee:	685b      	ldr	r3, [r3, #4]
 80056f0:	2b00      	cmp	r3, #0
 80056f2:	d013      	beq.n	800571c <HAL_RCC_OscConfig+0x104>
      {
        /* Get Start Tick */
        tickstart = HAL_GetTick();
 80056f4:	f7fe fea4 	bl	8004440 <HAL_GetTick>
 80056f8:	6138      	str	r0, [r7, #16]

        /* Wait till HSE is ready */
        while (__HAL_RCC_GET_FLAG(RCC_FLAG_HSERDY) == RESET)
 80056fa:	e008      	b.n	800570e <HAL_RCC_OscConfig+0xf6>
        {
          if ((HAL_GetTick() - tickstart) > HSE_TIMEOUT_VALUE)
 80056fc:	f7fe fea0 	bl	8004440 <HAL_GetTick>
 8005700:	4602      	mov	r2, r0
 8005702:	693b      	ldr	r3, [r7, #16]
 8005704:	1ad3      	subs	r3, r2, r3
 8005706:	2b64      	cmp	r3, #100	@ 0x64
 8005708:	d901      	bls.n	800570e <HAL_RCC_OscConfig+0xf6>
          {
            return HAL_TIMEOUT;
 800570a:	2303      	movs	r3, #3
 800570c:	e200      	b.n	8005b10 <HAL_RCC_OscConfig+0x4f8>
        while (__HAL_RCC_GET_FLAG(RCC_FLAG_HSERDY) == RESET)
 800570e:	4b5d      	ldr	r3, [pc, #372]	@ (8005884 <HAL_RCC_OscConfig+0x26c>)
 8005710:	681b      	ldr	r3, [r3, #0]
 8005712:	f403 3300 	and.w	r3, r3, #131072	@ 0x20000
 8005716:	2b00      	cmp	r3, #0
 8005718:	d0f0      	beq.n	80056fc <HAL_RCC_OscConfig+0xe4>
 800571a:	e014      	b.n	8005746 <HAL_RCC_OscConfig+0x12e>
        }
      }
      else
      {
        /* Get Start Tick */
        tickstart = HAL_GetTick();
 800571c:	f7fe fe90 	bl	8004440 <HAL_GetTick>
 8005720:	6138      	str	r0, [r7, #16]

        /* Wait till HSE is disabled */
        while (__HAL_RCC_GET_FLAG(RCC_FLAG_HSERDY) != RESET)
 8005722:	e008      	b.n	8005736 <HAL_RCC_OscConfig+0x11e>
        {
          if ((HAL_GetTick() - tickstart) > HSE_TIMEOUT_VALUE)
 8005724:	f7fe fe8c 	bl	8004440 <HAL_GetTick>
 8005728:	4602      	mov	r2, r0
 800572a:	693b      	ldr	r3, [r7, #16]
 800572c:	1ad3      	subs	r3, r2, r3
 800572e:	2b64      	cmp	r3, #100	@ 0x64
 8005730:	d901      	bls.n	8005736 <HAL_RCC_OscConfig+0x11e>
          {
            return HAL_TIMEOUT;
 8005732:	2303      	movs	r3, #3
 8005734:	e1ec      	b.n	8005b10 <HAL_RCC_OscConfig+0x4f8>
        while (__HAL_RCC_GET_FLAG(RCC_FLAG_HSERDY) != RESET)
 8005736:	4b53      	ldr	r3, [pc, #332]	@ (8005884 <HAL_RCC_OscConfig+0x26c>)
 8005738:	681b      	ldr	r3, [r3, #0]
 800573a:	f403 3300 	and.w	r3, r3, #131072	@ 0x20000
 800573e:	2b00      	cmp	r3, #0
 8005740:	d1f0      	bne.n	8005724 <HAL_RCC_OscConfig+0x10c>
 8005742:	e000      	b.n	8005746 <HAL_RCC_OscConfig+0x12e>
      if ((__HAL_RCC_GET_FLAG(RCC_FLAG_HSERDY) != RESET) && (RCC_OscInitStruct->HSEState == RCC_HSE_OFF))
 8005744:	bf00      	nop
        }
      }
    }
  }
  /*----------------------------- HSI Configuration --------------------------*/
  if (((RCC_OscInitStruct->OscillatorType) & RCC_OSCILLATORTYPE_HSI) == RCC_OSCILLATORTYPE_HSI)
 8005746:	687b      	ldr	r3, [r7, #4]
 8005748:	681b      	ldr	r3, [r3, #0]
 800574a:	f003 0302 	and.w	r3, r3, #2
 800574e:	2b00      	cmp	r3, #0
 8005750:	d063      	beq.n	800581a <HAL_RCC_OscConfig+0x202>
    /* Check the parameters */
    assert_param(IS_RCC_HSI(RCC_OscInitStruct->HSIState));
    assert_param(IS_RCC_CALIBRATION_VALUE(RCC_OscInitStruct->HSICalibrationValue));

    /* Check if HSI is used as system clock or as PLL source when PLL is selected as system clock */
    if ((__HAL_RCC_GET_SYSCLK_SOURCE() == RCC_SYSCLKSOURCE_STATUS_HSI)
 8005752:	4b4c      	ldr	r3, [pc, #304]	@ (8005884 <HAL_RCC_OscConfig+0x26c>)
 8005754:	685b      	ldr	r3, [r3, #4]
 8005756:	f003 030c 	and.w	r3, r3, #12
 800575a:	2b00      	cmp	r3, #0
 800575c:	d00b      	beq.n	8005776 <HAL_RCC_OscConfig+0x15e>
        || ((__HAL_RCC_GET_SYSCLK_SOURCE() == RCC_SYSCLKSOURCE_STATUS_PLLCLK) && (__HAL_RCC_GET_PLL_OSCSOURCE() == RCC_PLLSOURCE_HSI_DIV2)))
 800575e:	4b49      	ldr	r3, [pc, #292]	@ (8005884 <HAL_RCC_OscConfig+0x26c>)
 8005760:	685b      	ldr	r3, [r3, #4]
 8005762:	f003 030c 	and.w	r3, r3, #12
 8005766:	2b08      	cmp	r3, #8
 8005768:	d11c      	bne.n	80057a4 <HAL_RCC_OscConfig+0x18c>
 800576a:	4b46      	ldr	r3, [pc, #280]	@ (8005884 <HAL_RCC_OscConfig+0x26c>)
 800576c:	685b      	ldr	r3, [r3, #4]
 800576e:	f403 3380 	and.w	r3, r3, #65536	@ 0x10000
 8005772:	2b00      	cmp	r3, #0
 8005774:	d116      	bne.n	80057a4 <HAL_RCC_OscConfig+0x18c>
    {
      /* When HSI is used as system clock it will not disabled */
      if ((__HAL_RCC_GET_FLAG(RCC_FLAG_HSIRDY) != RESET) && (RCC_OscInitStruct->HSIState != RCC_HSI_ON))
 8005776:	4b43      	ldr	r3, [pc, #268]	@ (8005884 <HAL_RCC_OscConfig+0x26c>)
 8005778:	681b      	ldr	r3, [r3, #0]
 800577a:	f003 0302 	and.w	r3, r3, #2
 800577e:	2b00      	cmp	r3, #0
 8005780:	d005      	beq.n	800578e <HAL_RCC_OscConfig+0x176>
 8005782:	687b      	ldr	r3, [r7, #4]
 8005784:	691b      	ldr	r3, [r3, #16]
 8005786:	2b01      	cmp	r3, #1
 8005788:	d001      	beq.n	800578e <HAL_RCC_OscConfig+0x176>
      {
        return HAL_ERROR;
 800578a:	2301      	movs	r3, #1
 800578c:	e1c0      	b.n	8005b10 <HAL_RCC_OscConfig+0x4f8>
      }
      /* Otherwise, just the calibration is allowed */
      else
      {
        /* Adjusts the Internal High Speed oscillator (HSI) calibration value.*/
        __HAL_RCC_HSI_CALIBRATIONVALUE_ADJUST(RCC_OscInitStruct->HSICalibrationValue);
 800578e:	4b3d      	ldr	r3, [pc, #244]	@ (8005884 <HAL_RCC_OscConfig+0x26c>)
 8005790:	681b      	ldr	r3, [r3, #0]
 8005792:	f023 02f8 	bic.w	r2, r3, #248	@ 0xf8
 8005796:	687b      	ldr	r3, [r7, #4]
 8005798:	695b      	ldr	r3, [r3, #20]
 800579a:	00db      	lsls	r3, r3, #3
 800579c:	4939      	ldr	r1, [pc, #228]	@ (8005884 <HAL_RCC_OscConfig+0x26c>)
 800579e:	4313      	orrs	r3, r2
 80057a0:	600b      	str	r3, [r1, #0]
      if ((__HAL_RCC_GET_FLAG(RCC_FLAG_HSIRDY) != RESET) && (RCC_OscInitStruct->HSIState != RCC_HSI_ON))
 80057a2:	e03a      	b.n	800581a <HAL_RCC_OscConfig+0x202>
      }
    }
    else
    {
      /* Check the HSI State */
      if (RCC_OscInitStruct->HSIState != RCC_HSI_OFF)
 80057a4:	687b      	ldr	r3, [r7, #4]
 80057a6:	691b      	ldr	r3, [r3, #16]
 80057a8:	2b00      	cmp	r3, #0
 80057aa:	d020      	beq.n	80057ee <HAL_RCC_OscConfig+0x1d6>
      {
        /* Enable the Internal High Speed oscillator (HSI). */
        __HAL_RCC_HSI_ENABLE();
 80057ac:	4b36      	ldr	r3, [pc, #216]	@ (8005888 <HAL_RCC_OscConfig+0x270>)
 80057ae:	2201      	movs	r2, #1
 80057b0:	601a      	str	r2, [r3, #0]

        /* Get Start Tick */
        tickstart = HAL_GetTick();
 80057b2:	f7fe fe45 	bl	8004440 <HAL_GetTick>
 80057b6:	6138      	str	r0, [r7, #16]

        /* Wait till HSI is ready */
        while (__HAL_RCC_GET_FLAG(RCC_FLAG_HSIRDY) == RESET)
 80057b8:	e008      	b.n	80057cc <HAL_RCC_OscConfig+0x1b4>
        {
          if ((HAL_GetTick() - tickstart) > HSI_TIMEOUT_VALUE)
 80057ba:	f7fe fe41 	bl	8004440 <HAL_GetTick>
 80057be:	4602      	mov	r2, r0
 80057c0:	693b      	ldr	r3, [r7, #16]
 80057c2:	1ad3      	subs	r3, r2, r3
 80057c4:	2b02      	cmp	r3, #2
 80057c6:	d901      	bls.n	80057cc <HAL_RCC_OscConfig+0x1b4>
          {
            return HAL_TIMEOUT;
 80057c8:	2303      	movs	r3, #3
 80057ca:	e1a1      	b.n	8005b10 <HAL_RCC_OscConfig+0x4f8>
        while (__HAL_RCC_GET_FLAG(RCC_FLAG_HSIRDY) == RESET)
 80057cc:	4b2d      	ldr	r3, [pc, #180]	@ (8005884 <HAL_RCC_OscConfig+0x26c>)
 80057ce:	681b      	ldr	r3, [r3, #0]
 80057d0:	f003 0302 	and.w	r3, r3, #2
 80057d4:	2b00      	cmp	r3, #0
 80057d6:	d0f0      	beq.n	80057ba <HAL_RCC_OscConfig+0x1a2>
          }
        }

        /* Adjusts the Internal High Speed oscillator (HSI) calibration value.*/
        __HAL_RCC_HSI_CALIBRATIONVALUE_ADJUST(RCC_OscInitStruct->HSICalibrationValue);
 80057d8:	4b2a      	ldr	r3, [pc, #168]	@ (8005884 <HAL_RCC_OscConfig+0x26c>)
 80057da:	681b      	ldr	r3, [r3, #0]
 80057dc:	f023 02f8 	bic.w	r2, r3, #248	@ 0xf8
 80057e0:	687b      	ldr	r3, [r7, #4]
 80057e2:	695b      	ldr	r3, [r3, #20]
 80057e4:	00db      	lsls	r3, r3, #3
 80057e6:	4927      	ldr	r1, [pc, #156]	@ (8005884 <HAL_RCC_OscConfig+0x26c>)
 80057e8:	4313      	orrs	r3, r2
 80057ea:	600b      	str	r3, [r1, #0]
 80057ec:	e015      	b.n	800581a <HAL_RCC_OscConfig+0x202>
      }
      else
      {
        /* Disable the Internal High Speed oscillator (HSI). */
        __HAL_RCC_HSI_DISABLE();
 80057ee:	4b26      	ldr	r3, [pc, #152]	@ (8005888 <HAL_RCC_OscConfig+0x270>)
 80057f0:	2200      	movs	r2, #0
 80057f2:	601a      	str	r2, [r3, #0]

        /* Get Start Tick */
        tickstart = HAL_GetTick();
 80057f4:	f7fe fe24 	bl	8004440 <HAL_GetTick>
 80057f8:	6138      	str	r0, [r7, #16]

        /* Wait till HSI is disabled */
        while (__HAL_RCC_GET_FLAG(RCC_FLAG_HSIRDY) != RESET)
 80057fa:	e008      	b.n	800580e <HAL_RCC_OscConfig+0x1f6>
        {
          if ((HAL_GetTick() - tickstart) > HSI_TIMEOUT_VALUE)
 80057fc:	f7fe fe20 	bl	8004440 <HAL_GetTick>
 8005800:	4602      	mov	r2, r0
 8005802:	693b      	ldr	r3, [r7, #16]
 8005804:	1ad3      	subs	r3, r2, r3
 8005806:	2b02      	cmp	r3, #2
 8005808:	d901      	bls.n	800580e <HAL_RCC_OscConfig+0x1f6>
          {
            return HAL_TIMEOUT;
 800580a:	2303      	movs	r3, #3
 800580c:	e180      	b.n	8005b10 <HAL_RCC_OscConfig+0x4f8>
        while (__HAL_RCC_GET_FLAG(RCC_FLAG_HSIRDY) != RESET)
 800580e:	4b1d      	ldr	r3, [pc, #116]	@ (8005884 <HAL_RCC_OscConfig+0x26c>)
 8005810:	681b      	ldr	r3, [r3, #0]
 8005812:	f003 0302 	and.w	r3, r3, #2
 8005816:	2b00      	cmp	r3, #0
 8005818:	d1f0      	bne.n	80057fc <HAL_RCC_OscConfig+0x1e4>
        }
      }
    }
  }
  /*------------------------------ LSI Configuration -------------------------*/
  if (((RCC_OscInitStruct->OscillatorType) & RCC_OSCILLATORTYPE_LSI) == RCC_OSCILLATORTYPE_LSI)
 800581a:	687b      	ldr	r3, [r7, #4]
 800581c:	681b      	ldr	r3, [r3, #0]
 800581e:	f003 0308 	and.w	r3, r3, #8
 8005822:	2b00      	cmp	r3, #0
 8005824:	d03a      	beq.n	800589c <HAL_RCC_OscConfig+0x284>
  {
    /* Check the parameters */
    assert_param(IS_RCC_LSI(RCC_OscInitStruct->LSIState));

    /* Check the LSI State */
    if (RCC_OscInitStruct->LSIState != RCC_LSI_OFF)
 8005826:	687b      	ldr	r3, [r7, #4]
 8005828:	699b      	ldr	r3, [r3, #24]
 800582a:	2b00      	cmp	r3, #0
 800582c:	d019      	beq.n	8005862 <HAL_RCC_OscConfig+0x24a>
    {
      /* Enable the Internal Low Speed oscillator (LSI). */
      __HAL_RCC_LSI_ENABLE();
 800582e:	4b17      	ldr	r3, [pc, #92]	@ (800588c <HAL_RCC_OscConfig+0x274>)
 8005830:	2201      	movs	r2, #1
 8005832:	601a      	str	r2, [r3, #0]

      /* Get Start Tick */
      tickstart = HAL_GetTick();
 8005834:	f7fe fe04 	bl	8004440 <HAL_GetTick>
 8005838:	6138      	str	r0, [r7, #16]

      /* Wait till LSI is ready */
      while (__HAL_RCC_GET_FLAG(RCC_FLAG_LSIRDY) == RESET)
 800583a:	e008      	b.n	800584e <HAL_RCC_OscConfig+0x236>
      {
        if ((HAL_GetTick() - tickstart) > LSI_TIMEOUT_VALUE)
 800583c:	f7fe fe00 	bl	8004440 <HAL_GetTick>
 8005840:	4602      	mov	r2, r0
 8005842:	693b      	ldr	r3, [r7, #16]
 8005844:	1ad3      	subs	r3, r2, r3
 8005846:	2b02      	cmp	r3, #2
 8005848:	d901      	bls.n	800584e <HAL_RCC_OscConfig+0x236>
        {
          return HAL_TIMEOUT;
 800584a:	2303      	movs	r3, #3
 800584c:	e160      	b.n	8005b10 <HAL_RCC_OscConfig+0x4f8>
      while (__HAL_RCC_GET_FLAG(RCC_FLAG_LSIRDY) == RESET)
 800584e:	4b0d      	ldr	r3, [pc, #52]	@ (8005884 <HAL_RCC_OscConfig+0x26c>)
 8005850:	6a5b      	ldr	r3, [r3, #36]	@ 0x24
 8005852:	f003 0302 	and.w	r3, r3, #2
 8005856:	2b00      	cmp	r3, #0
 8005858:	d0f0      	beq.n	800583c <HAL_RCC_OscConfig+0x224>
        }
      }
      /*  To have a fully stabilized clock in the specified range, a software delay of 1ms
          should be added.*/
      RCC_Delay(1);
 800585a:	2001      	movs	r0, #1
 800585c:	f000 faba 	bl	8005dd4 <RCC_Delay>
 8005860:	e01c      	b.n	800589c <HAL_RCC_OscConfig+0x284>
    }
    else
    {
      /* Disable the Internal Low Speed oscillator (LSI). */
      __HAL_RCC_LSI_DISABLE();
 8005862:	4b0a      	ldr	r3, [pc, #40]	@ (800588c <HAL_RCC_OscConfig+0x274>)
 8005864:	2200      	movs	r2, #0
 8005866:	601a      	str	r2, [r3, #0]

      /* Get Start Tick */
      tickstart = HAL_GetTick();
 8005868:	f7fe fdea 	bl	8004440 <HAL_GetTick>
 800586c:	6138      	str	r0, [r7, #16]

      /* Wait till LSI is disabled */
      while (__HAL_RCC_GET_FLAG(RCC_FLAG_LSIRDY) != RESET)
 800586e:	e00f      	b.n	8005890 <HAL_RCC_OscConfig+0x278>
      {
        if ((HAL_GetTick() - tickstart) > LSI_TIMEOUT_VALUE)
 8005870:	f7fe fde6 	bl	8004440 <HAL_GetTick>
 8005874:	4602      	mov	r2, r0
 8005876:	693b      	ldr	r3, [r7, #16]
 8005878:	1ad3      	subs	r3, r2, r3
 800587a:	2b02      	cmp	r3, #2
 800587c:	d908      	bls.n	8005890 <HAL_RCC_OscConfig+0x278>
        {
          return HAL_TIMEOUT;
 800587e:	2303      	movs	r3, #3
 8005880:	e146      	b.n	8005b10 <HAL_RCC_OscConfig+0x4f8>
 8005882:	bf00      	nop
 8005884:	40021000 	.word	0x40021000
 8005888:	42420000 	.word	0x42420000
 800588c:	42420480 	.word	0x42420480
      while (__HAL_RCC_GET_FLAG(RCC_FLAG_LSIRDY) != RESET)
 8005890:	4b92      	ldr	r3, [pc, #584]	@ (8005adc <HAL_RCC_OscConfig+0x4c4>)
 8005892:	6a5b      	ldr	r3, [r3, #36]	@ 0x24
 8005894:	f003 0302 	and.w	r3, r3, #2
 8005898:	2b00      	cmp	r3, #0
 800589a:	d1e9      	bne.n	8005870 <HAL_RCC_OscConfig+0x258>
        }
      }
    }
  }
  /*------------------------------ LSE Configuration -------------------------*/
  if (((RCC_OscInitStruct->OscillatorType) & RCC_OSCILLATORTYPE_LSE) == RCC_OSCILLATORTYPE_LSE)
 800589c:	687b      	ldr	r3, [r7, #4]
 800589e:	681b      	ldr	r3, [r3, #0]
 80058a0:	f003 0304 	and.w	r3, r3, #4
 80058a4:	2b00      	cmp	r3, #0
 80058a6:	f000 80a6 	beq.w	80059f6 <HAL_RCC_OscConfig+0x3de>
  {
    FlagStatus       pwrclkchanged = RESET;
 80058aa:	2300      	movs	r3, #0
 80058ac:	75fb      	strb	r3, [r7, #23]
    /* Check the parameters */
    assert_param(IS_RCC_LSE(RCC_OscInitStruct->LSEState));

    /* Update LSE configuration in Backup Domain control register    */
    /* Requires to enable write access to Backup Domain of necessary */
    if (__HAL_RCC_PWR_IS_CLK_DISABLED())
 80058ae:	4b8b      	ldr	r3, [pc, #556]	@ (8005adc <HAL_RCC_OscConfig+0x4c4>)
 80058b0:	69db      	ldr	r3, [r3, #28]
 80058b2:	f003 5380 	and.w	r3, r3, #268435456	@ 0x10000000
 80058b6:	2b00      	cmp	r3, #0
 80058b8:	d10d      	bne.n	80058d6 <HAL_RCC_OscConfig+0x2be>
    {
      __HAL_RCC_PWR_CLK_ENABLE();
 80058ba:	4b88      	ldr	r3, [pc, #544]	@ (8005adc <HAL_RCC_OscConfig+0x4c4>)
 80058bc:	69db      	ldr	r3, [r3, #28]
 80058be:	4a87      	ldr	r2, [pc, #540]	@ (8005adc <HAL_RCC_OscConfig+0x4c4>)
 80058c0:	f043 5380 	orr.w	r3, r3, #268435456	@ 0x10000000
 80058c4:	61d3      	str	r3, [r2, #28]
 80058c6:	4b85      	ldr	r3, [pc, #532]	@ (8005adc <HAL_RCC_OscConfig+0x4c4>)
 80058c8:	69db      	ldr	r3, [r3, #28]
 80058ca:	f003 5380 	and.w	r3, r3, #268435456	@ 0x10000000
 80058ce:	60bb      	str	r3, [r7, #8]
 80058d0:	68bb      	ldr	r3, [r7, #8]
      pwrclkchanged = SET;
 80058d2:	2301      	movs	r3, #1
 80058d4:	75fb      	strb	r3, [r7, #23]
    }

    if (HAL_IS_BIT_CLR(PWR->CR, PWR_CR_DBP))
 80058d6:	4b82      	ldr	r3, [pc, #520]	@ (8005ae0 <HAL_RCC_OscConfig+0x4c8>)
 80058d8:	681b      	ldr	r3, [r3, #0]
 80058da:	f403 7380 	and.w	r3, r3, #256	@ 0x100
 80058de:	2b00      	cmp	r3, #0
 80058e0:	d118      	bne.n	8005914 <HAL_RCC_OscConfig+0x2fc>
    {
      /* Enable write access to Backup domain */
      SET_BIT(PWR->CR, PWR_CR_DBP);
 80058e2:	4b7f      	ldr	r3, [pc, #508]	@ (8005ae0 <HAL_RCC_OscConfig+0x4c8>)
 80058e4:	681b      	ldr	r3, [r3, #0]
 80058e6:	4a7e      	ldr	r2, [pc, #504]	@ (8005ae0 <HAL_RCC_OscConfig+0x4c8>)
 80058e8:	f443 7380 	orr.w	r3, r3, #256	@ 0x100
 80058ec:	6013      	str	r3, [r2, #0]

      /* Wait for Backup domain Write protection disable */
      tickstart = HAL_GetTick();
 80058ee:	f7fe fda7 	bl	8004440 <HAL_GetTick>
 80058f2:	6138      	str	r0, [r7, #16]

      while (HAL_IS_BIT_CLR(PWR->CR, PWR_CR_DBP))
 80058f4:	e008      	b.n	8005908 <HAL_RCC_OscConfig+0x2f0>
      {
        if ((HAL_GetTick() - tickstart) > RCC_DBP_TIMEOUT_VALUE)
 80058f6:	f7fe fda3 	bl	8004440 <HAL_GetTick>
 80058fa:	4602      	mov	r2, r0
 80058fc:	693b      	ldr	r3, [r7, #16]
 80058fe:	1ad3      	subs	r3, r2, r3
 8005900:	2b64      	cmp	r3, #100	@ 0x64
 8005902:	d901      	bls.n	8005908 <HAL_RCC_OscConfig+0x2f0>
        {
          return HAL_TIMEOUT;
 8005904:	2303      	movs	r3, #3
 8005906:	e103      	b.n	8005b10 <HAL_RCC_OscConfig+0x4f8>
      while (HAL_IS_BIT_CLR(PWR->CR, PWR_CR_DBP))
 8005908:	4b75      	ldr	r3, [pc, #468]	@ (8005ae0 <HAL_RCC_OscConfig+0x4c8>)
 800590a:	681b      	ldr	r3, [r3, #0]
 800590c:	f403 7380 	and.w	r3, r3, #256	@ 0x100
 8005910:	2b00      	cmp	r3, #0
 8005912:	d0f0      	beq.n	80058f6 <HAL_RCC_OscConfig+0x2de>
        }
      }
    }

    /* Set the new LSE configuration -----------------------------------------*/
    __HAL_RCC_LSE_CONFIG(RCC_OscInitStruct->LSEState);
 8005914:	687b      	ldr	r3, [r7, #4]
 8005916:	68db      	ldr	r3, [r3, #12]
 8005918:	2b01      	cmp	r3, #1
 800591a:	d106      	bne.n	800592a <HAL_RCC_OscConfig+0x312>
 800591c:	4b6f      	ldr	r3, [pc, #444]	@ (8005adc <HAL_RCC_OscConfig+0x4c4>)
 800591e:	6a1b      	ldr	r3, [r3, #32]
 8005920:	4a6e      	ldr	r2, [pc, #440]	@ (8005adc <HAL_RCC_OscConfig+0x4c4>)
 8005922:	f043 0301 	orr.w	r3, r3, #1
 8005926:	6213      	str	r3, [r2, #32]
 8005928:	e02d      	b.n	8005986 <HAL_RCC_OscConfig+0x36e>
 800592a:	687b      	ldr	r3, [r7, #4]
 800592c:	68db      	ldr	r3, [r3, #12]
 800592e:	2b00      	cmp	r3, #0
 8005930:	d10c      	bne.n	800594c <HAL_RCC_OscConfig+0x334>
 8005932:	4b6a      	ldr	r3, [pc, #424]	@ (8005adc <HAL_RCC_OscConfig+0x4c4>)
 8005934:	6a1b      	ldr	r3, [r3, #32]
 8005936:	4a69      	ldr	r2, [pc, #420]	@ (8005adc <HAL_RCC_OscConfig+0x4c4>)
 8005938:	f023 0301 	bic.w	r3, r3, #1
 800593c:	6213      	str	r3, [r2, #32]
 800593e:	4b67      	ldr	r3, [pc, #412]	@ (8005adc <HAL_RCC_OscConfig+0x4c4>)
 8005940:	6a1b      	ldr	r3, [r3, #32]
 8005942:	4a66      	ldr	r2, [pc, #408]	@ (8005adc <HAL_RCC_OscConfig+0x4c4>)
 8005944:	f023 0304 	bic.w	r3, r3, #4
 8005948:	6213      	str	r3, [r2, #32]
 800594a:	e01c      	b.n	8005986 <HAL_RCC_OscConfig+0x36e>
 800594c:	687b      	ldr	r3, [r7, #4]
 800594e:	68db      	ldr	r3, [r3, #12]
 8005950:	2b05      	cmp	r3, #5
 8005952:	d10c      	bne.n	800596e <HAL_RCC_OscConfig+0x356>
 8005954:	4b61      	ldr	r3, [pc, #388]	@ (8005adc <HAL_RCC_OscConfig+0x4c4>)
 8005956:	6a1b      	ldr	r3, [r3, #32]
 8005958:	4a60      	ldr	r2, [pc, #384]	@ (8005adc <HAL_RCC_OscConfig+0x4c4>)
 800595a:	f043 0304 	orr.w	r3, r3, #4
 800595e:	6213      	str	r3, [r2, #32]
 8005960:	4b5e      	ldr	r3, [pc, #376]	@ (8005adc <HAL_RCC_OscConfig+0x4c4>)
 8005962:	6a1b      	ldr	r3, [r3, #32]
 8005964:	4a5d      	ldr	r2, [pc, #372]	@ (8005adc <HAL_RCC_OscConfig+0x4c4>)
 8005966:	f043 0301 	orr.w	r3, r3, #1
 800596a:	6213      	str	r3, [r2, #32]
 800596c:	e00b      	b.n	8005986 <HAL_RCC_OscConfig+0x36e>
 800596e:	4b5b      	ldr	r3, [pc, #364]	@ (8005adc <HAL_RCC_OscConfig+0x4c4>)
 8005970:	6a1b      	ldr	r3, [r3, #32]
 8005972:	4a5a      	ldr	r2, [pc, #360]	@ (8005adc <HAL_RCC_OscConfig+0x4c4>)
 8005974:	f023 0301 	bic.w	r3, r3, #1
 8005978:	6213      	str	r3, [r2, #32]
 800597a:	4b58      	ldr	r3, [pc, #352]	@ (8005adc <HAL_RCC_OscConfig+0x4c4>)
 800597c:	6a1b      	ldr	r3, [r3, #32]
 800597e:	4a57      	ldr	r2, [pc, #348]	@ (8005adc <HAL_RCC_OscConfig+0x4c4>)
 8005980:	f023 0304 	bic.w	r3, r3, #4
 8005984:	6213      	str	r3, [r2, #32]
    /* Check the LSE State */
    if (RCC_OscInitStruct->LSEState != RCC_LSE_OFF)
 8005986:	687b      	ldr	r3, [r7, #4]
 8005988:	68db      	ldr	r3, [r3, #12]
 800598a:	2b00      	cmp	r3, #0
 800598c:	d015      	beq.n	80059ba <HAL_RCC_OscConfig+0x3a2>
    {
      /* Get Start Tick */
      tickstart = HAL_GetTick();
 800598e:	f7fe fd57 	bl	8004440 <HAL_GetTick>
 8005992:	6138      	str	r0, [r7, #16]

      /* Wait till LSE is ready */
      while (__HAL_RCC_GET_FLAG(RCC_FLAG_LSERDY) == RESET)
 8005994:	e00a      	b.n	80059ac <HAL_RCC_OscConfig+0x394>
      {
        if ((HAL_GetTick() - tickstart) > RCC_LSE_TIMEOUT_VALUE)
 8005996:	f7fe fd53 	bl	8004440 <HAL_GetTick>
 800599a:	4602      	mov	r2, r0
 800599c:	693b      	ldr	r3, [r7, #16]
 800599e:	1ad3      	subs	r3, r2, r3
 80059a0:	f241 3288 	movw	r2, #5000	@ 0x1388
 80059a4:	4293      	cmp	r3, r2
 80059a6:	d901      	bls.n	80059ac <HAL_RCC_OscConfig+0x394>
        {
          return HAL_TIMEOUT;
 80059a8:	2303      	movs	r3, #3
 80059aa:	e0b1      	b.n	8005b10 <HAL_RCC_OscConfig+0x4f8>
      while (__HAL_RCC_GET_FLAG(RCC_FLAG_LSERDY) == RESET)
 80059ac:	4b4b      	ldr	r3, [pc, #300]	@ (8005adc <HAL_RCC_OscConfig+0x4c4>)
 80059ae:	6a1b      	ldr	r3, [r3, #32]
 80059b0:	f003 0302 	and.w	r3, r3, #2
 80059b4:	2b00      	cmp	r3, #0
 80059b6:	d0ee      	beq.n	8005996 <HAL_RCC_OscConfig+0x37e>
 80059b8:	e014      	b.n	80059e4 <HAL_RCC_OscConfig+0x3cc>
      }
    }
    else
    {
      /* Get Start Tick */
      tickstart = HAL_GetTick();
 80059ba:	f7fe fd41 	bl	8004440 <HAL_GetTick>
 80059be:	6138      	str	r0, [r7, #16]

      /* Wait till LSE is disabled */
      while (__HAL_RCC_GET_FLAG(RCC_FLAG_LSERDY) != RESET)
 80059c0:	e00a      	b.n	80059d8 <HAL_RCC_OscConfig+0x3c0>
      {
        if ((HAL_GetTick() - tickstart) > RCC_LSE_TIMEOUT_VALUE)
 80059c2:	f7fe fd3d 	bl	8004440 <HAL_GetTick>
 80059c6:	4602      	mov	r2, r0
 80059c8:	693b      	ldr	r3, [r7, #16]
 80059ca:	1ad3      	subs	r3, r2, r3
 80059cc:	f241 3288 	movw	r2, #5000	@ 0x1388
 80059d0:	4293      	cmp	r3, r2
 80059d2:	d901      	bls.n	80059d8 <HAL_RCC_OscConfig+0x3c0>
        {
          return HAL_TIMEOUT;
 80059d4:	2303      	movs	r3, #3
 80059d6:	e09b      	b.n	8005b10 <HAL_RCC_OscConfig+0x4f8>
      while (__HAL_RCC_GET_FLAG(RCC_FLAG_LSERDY) != RESET)
 80059d8:	4b40      	ldr	r3, [pc, #256]	@ (8005adc <HAL_RCC_OscConfig+0x4c4>)
 80059da:	6a1b      	ldr	r3, [r3, #32]
 80059dc:	f003 0302 	and.w	r3, r3, #2
 80059e0:	2b00      	cmp	r3, #0
 80059e2:	d1ee      	bne.n	80059c2 <HAL_RCC_OscConfig+0x3aa>
        }
      }
    }

    /* Require to disable power clock if necessary */
    if (pwrclkchanged == SET)
 80059e4:	7dfb      	ldrb	r3, [r7, #23]
 80059e6:	2b01      	cmp	r3, #1
 80059e8:	d105      	bne.n	80059f6 <HAL_RCC_OscConfig+0x3de>
    {
      __HAL_RCC_PWR_CLK_DISABLE();
 80059ea:	4b3c      	ldr	r3, [pc, #240]	@ (8005adc <HAL_RCC_OscConfig+0x4c4>)
 80059ec:	69db      	ldr	r3, [r3, #28]
 80059ee:	4a3b      	ldr	r2, [pc, #236]	@ (8005adc <HAL_RCC_OscConfig+0x4c4>)
 80059f0:	f023 5380 	bic.w	r3, r3, #268435456	@ 0x10000000
 80059f4:	61d3      	str	r3, [r2, #28]

#endif /* RCC_CR_PLL2ON */
  /*-------------------------------- PLL Configuration -----------------------*/
  /* Check the parameters */
  assert_param(IS_RCC_PLL(RCC_OscInitStruct->PLL.PLLState));
  if ((RCC_OscInitStruct->PLL.PLLState) != RCC_PLL_NONE)
 80059f6:	687b      	ldr	r3, [r7, #4]
 80059f8:	69db      	ldr	r3, [r3, #28]
 80059fa:	2b00      	cmp	r3, #0
 80059fc:	f000 8087 	beq.w	8005b0e <HAL_RCC_OscConfig+0x4f6>
  {
    /* Check if the PLL is used as system clock or not */
    if (__HAL_RCC_GET_SYSCLK_SOURCE() != RCC_SYSCLKSOURCE_STATUS_PLLCLK)
 8005a00:	4b36      	ldr	r3, [pc, #216]	@ (8005adc <HAL_RCC_OscConfig+0x4c4>)
 8005a02:	685b      	ldr	r3, [r3, #4]
 8005a04:	f003 030c 	and.w	r3, r3, #12
 8005a08:	2b08      	cmp	r3, #8
 8005a0a:	d061      	beq.n	8005ad0 <HAL_RCC_OscConfig+0x4b8>
    {
      if ((RCC_OscInitStruct->PLL.PLLState) == RCC_PLL_ON)
 8005a0c:	687b      	ldr	r3, [r7, #4]
 8005a0e:	69db      	ldr	r3, [r3, #28]
 8005a10:	2b02      	cmp	r3, #2
 8005a12:	d146      	bne.n	8005aa2 <HAL_RCC_OscConfig+0x48a>
        /* Check the parameters */
        assert_param(IS_RCC_PLLSOURCE(RCC_OscInitStruct->PLL.PLLSource));
        assert_param(IS_RCC_PLL_MUL(RCC_OscInitStruct->PLL.PLLMUL));

        /* Disable the main PLL. */
        __HAL_RCC_PLL_DISABLE();
 8005a14:	4b33      	ldr	r3, [pc, #204]	@ (8005ae4 <HAL_RCC_OscConfig+0x4cc>)
 8005a16:	2200      	movs	r2, #0
 8005a18:	601a      	str	r2, [r3, #0]

        /* Get Start Tick */
        tickstart = HAL_GetTick();
 8005a1a:	f7fe fd11 	bl	8004440 <HAL_GetTick>
 8005a1e:	6138      	str	r0, [r7, #16]

        /* Wait till PLL is disabled */
        while (__HAL_RCC_GET_FLAG(RCC_FLAG_PLLRDY)  != RESET)
 8005a20:	e008      	b.n	8005a34 <HAL_RCC_OscConfig+0x41c>
        {
          if ((HAL_GetTick() - tickstart) > PLL_TIMEOUT_VALUE)
 8005a22:	f7fe fd0d 	bl	8004440 <HAL_GetTick>
 8005a26:	4602      	mov	r2, r0
 8005a28:	693b      	ldr	r3, [r7, #16]
 8005a2a:	1ad3      	subs	r3, r2, r3
 8005a2c:	2b02      	cmp	r3, #2
 8005a2e:	d901      	bls.n	8005a34 <HAL_RCC_OscConfig+0x41c>
          {
            return HAL_TIMEOUT;
 8005a30:	2303      	movs	r3, #3
 8005a32:	e06d      	b.n	8005b10 <HAL_RCC_OscConfig+0x4f8>
        while (__HAL_RCC_GET_FLAG(RCC_FLAG_PLLRDY)  != RESET)
 8005a34:	4b29      	ldr	r3, [pc, #164]	@ (8005adc <HAL_RCC_OscConfig+0x4c4>)
 8005a36:	681b      	ldr	r3, [r3, #0]
 8005a38:	f003 7300 	and.w	r3, r3, #33554432	@ 0x2000000
 8005a3c:	2b00      	cmp	r3, #0
 8005a3e:	d1f0      	bne.n	8005a22 <HAL_RCC_OscConfig+0x40a>
          }
        }

        /* Configure the HSE prediv factor --------------------------------*/
        /* It can be written only when the PLL is disabled. Not used in PLL source is different than HSE */
        if (RCC_OscInitStruct->PLL.PLLSource == RCC_PLLSOURCE_HSE)
 8005a40:	687b      	ldr	r3, [r7, #4]
 8005a42:	6a1b      	ldr	r3, [r3, #32]
 8005a44:	f5b3 3f80 	cmp.w	r3, #65536	@ 0x10000
 8005a48:	d108      	bne.n	8005a5c <HAL_RCC_OscConfig+0x444>
          /* Set PREDIV1 source */
          SET_BIT(RCC->CFGR2, RCC_OscInitStruct->Prediv1Source);
#endif /* RCC_CFGR2_PREDIV1SRC */

          /* Set PREDIV1 Value */
          __HAL_RCC_HSE_PREDIV_CONFIG(RCC_OscInitStruct->HSEPredivValue);
 8005a4a:	4b24      	ldr	r3, [pc, #144]	@ (8005adc <HAL_RCC_OscConfig+0x4c4>)
 8005a4c:	685b      	ldr	r3, [r3, #4]
 8005a4e:	f423 3200 	bic.w	r2, r3, #131072	@ 0x20000
 8005a52:	687b      	ldr	r3, [r7, #4]
 8005a54:	689b      	ldr	r3, [r3, #8]
 8005a56:	4921      	ldr	r1, [pc, #132]	@ (8005adc <HAL_RCC_OscConfig+0x4c4>)
 8005a58:	4313      	orrs	r3, r2
 8005a5a:	604b      	str	r3, [r1, #4]
        }

        /* Configure the main PLL clock source and multiplication factors. */
        __HAL_RCC_PLL_CONFIG(RCC_OscInitStruct->PLL.PLLSource,
 8005a5c:	4b1f      	ldr	r3, [pc, #124]	@ (8005adc <HAL_RCC_OscConfig+0x4c4>)
 8005a5e:	685b      	ldr	r3, [r3, #4]
 8005a60:	f423 1274 	bic.w	r2, r3, #3997696	@ 0x3d0000
 8005a64:	687b      	ldr	r3, [r7, #4]
 8005a66:	6a19      	ldr	r1, [r3, #32]
 8005a68:	687b      	ldr	r3, [r7, #4]
 8005a6a:	6a5b      	ldr	r3, [r3, #36]	@ 0x24
 8005a6c:	430b      	orrs	r3, r1
 8005a6e:	491b      	ldr	r1, [pc, #108]	@ (8005adc <HAL_RCC_OscConfig+0x4c4>)
 8005a70:	4313      	orrs	r3, r2
 8005a72:	604b      	str	r3, [r1, #4]
                             RCC_OscInitStruct->PLL.PLLMUL);
        /* Enable the main PLL. */
        __HAL_RCC_PLL_ENABLE();
 8005a74:	4b1b      	ldr	r3, [pc, #108]	@ (8005ae4 <HAL_RCC_OscConfig+0x4cc>)
 8005a76:	2201      	movs	r2, #1
 8005a78:	601a      	str	r2, [r3, #0]

        /* Get Start Tick */
        tickstart = HAL_GetTick();
 8005a7a:	f7fe fce1 	bl	8004440 <HAL_GetTick>
 8005a7e:	6138      	str	r0, [r7, #16]

        /* Wait till PLL is ready */
        while (__HAL_RCC_GET_FLAG(RCC_FLAG_PLLRDY)  == RESET)
 8005a80:	e008      	b.n	8005a94 <HAL_RCC_OscConfig+0x47c>
        {
          if ((HAL_GetTick() - tickstart) > PLL_TIMEOUT_VALUE)
 8005a82:	f7fe fcdd 	bl	8004440 <HAL_GetTick>
 8005a86:	4602      	mov	r2, r0
 8005a88:	693b      	ldr	r3, [r7, #16]
 8005a8a:	1ad3      	subs	r3, r2, r3
 8005a8c:	2b02      	cmp	r3, #2
 8005a8e:	d901      	bls.n	8005a94 <HAL_RCC_OscConfig+0x47c>
          {
            return HAL_TIMEOUT;
 8005a90:	2303      	movs	r3, #3
 8005a92:	e03d      	b.n	8005b10 <HAL_RCC_OscConfig+0x4f8>
        while (__HAL_RCC_GET_FLAG(RCC_FLAG_PLLRDY)  == RESET)
 8005a94:	4b11      	ldr	r3, [pc, #68]	@ (8005adc <HAL_RCC_OscConfig+0x4c4>)
 8005a96:	681b      	ldr	r3, [r3, #0]
 8005a98:	f003 7300 	and.w	r3, r3, #33554432	@ 0x2000000
 8005a9c:	2b00      	cmp	r3, #0
 8005a9e:	d0f0      	beq.n	8005a82 <HAL_RCC_OscConfig+0x46a>
 8005aa0:	e035      	b.n	8005b0e <HAL_RCC_OscConfig+0x4f6>
        }
      }
      else
      {
        /* Disable the main PLL. */
        __HAL_RCC_PLL_DISABLE();
 8005aa2:	4b10      	ldr	r3, [pc, #64]	@ (8005ae4 <HAL_RCC_OscConfig+0x4cc>)
 8005aa4:	2200      	movs	r2, #0
 8005aa6:	601a      	str	r2, [r3, #0]

        /* Get Start Tick */
        tickstart = HAL_GetTick();
 8005aa8:	f7fe fcca 	bl	8004440 <HAL_GetTick>
 8005aac:	6138      	str	r0, [r7, #16]

        /* Wait till PLL is disabled */
        while (__HAL_RCC_GET_FLAG(RCC_FLAG_PLLRDY)  != RESET)
 8005aae:	e008      	b.n	8005ac2 <HAL_RCC_OscConfig+0x4aa>
        {
          if ((HAL_GetTick() - tickstart) > PLL_TIMEOUT_VALUE)
 8005ab0:	f7fe fcc6 	bl	8004440 <HAL_GetTick>
 8005ab4:	4602      	mov	r2, r0
 8005ab6:	693b      	ldr	r3, [r7, #16]
 8005ab8:	1ad3      	subs	r3, r2, r3
 8005aba:	2b02      	cmp	r3, #2
 8005abc:	d901      	bls.n	8005ac2 <HAL_RCC_OscConfig+0x4aa>
          {
            return HAL_TIMEOUT;
 8005abe:	2303      	movs	r3, #3
 8005ac0:	e026      	b.n	8005b10 <HAL_RCC_OscConfig+0x4f8>
        while (__HAL_RCC_GET_FLAG(RCC_FLAG_PLLRDY)  != RESET)
 8005ac2:	4b06      	ldr	r3, [pc, #24]	@ (8005adc <HAL_RCC_OscConfig+0x4c4>)
 8005ac4:	681b      	ldr	r3, [r3, #0]
 8005ac6:	f003 7300 	and.w	r3, r3, #33554432	@ 0x2000000
 8005aca:	2b00      	cmp	r3, #0
 8005acc:	d1f0      	bne.n	8005ab0 <HAL_RCC_OscConfig+0x498>
 8005ace:	e01e      	b.n	8005b0e <HAL_RCC_OscConfig+0x4f6>
      }
    }
    else
    {
      /* Check if there is a request to disable the PLL used as System clock source */
      if ((RCC_OscInitStruct->PLL.PLLState) == RCC_PLL_OFF)
 8005ad0:	687b      	ldr	r3, [r7, #4]
 8005ad2:	69db      	ldr	r3, [r3, #28]
 8005ad4:	2b01      	cmp	r3, #1
 8005ad6:	d107      	bne.n	8005ae8 <HAL_RCC_OscConfig+0x4d0>
      {
        return HAL_ERROR;
 8005ad8:	2301      	movs	r3, #1
 8005ada:	e019      	b.n	8005b10 <HAL_RCC_OscConfig+0x4f8>
 8005adc:	40021000 	.word	0x40021000
 8005ae0:	40007000 	.word	0x40007000
 8005ae4:	42420060 	.word	0x42420060
      }
      else
      {
        /* Do not return HAL_ERROR if request repeats the current configuration */
        pll_config = RCC->CFGR;
 8005ae8:	4b0b      	ldr	r3, [pc, #44]	@ (8005b18 <HAL_RCC_OscConfig+0x500>)
 8005aea:	685b      	ldr	r3, [r3, #4]
 8005aec:	60fb      	str	r3, [r7, #12]
        if ((READ_BIT(pll_config, RCC_CFGR_PLLSRC) != RCC_OscInitStruct->PLL.PLLSource) ||
 8005aee:	68fb      	ldr	r3, [r7, #12]
 8005af0:	f403 3280 	and.w	r2, r3, #65536	@ 0x10000
 8005af4:	687b      	ldr	r3, [r7, #4]
 8005af6:	6a1b      	ldr	r3, [r3, #32]
 8005af8:	429a      	cmp	r2, r3
 8005afa:	d106      	bne.n	8005b0a <HAL_RCC_OscConfig+0x4f2>
            (READ_BIT(pll_config, RCC_CFGR_PLLMULL) != RCC_OscInitStruct->PLL.PLLMUL))
 8005afc:	68fb      	ldr	r3, [r7, #12]
 8005afe:	f403 1270 	and.w	r2, r3, #3932160	@ 0x3c0000
 8005b02:	687b      	ldr	r3, [r7, #4]
 8005b04:	6a5b      	ldr	r3, [r3, #36]	@ 0x24
        if ((READ_BIT(pll_config, RCC_CFGR_PLLSRC) != RCC_OscInitStruct->PLL.PLLSource) ||
 8005b06:	429a      	cmp	r2, r3
 8005b08:	d001      	beq.n	8005b0e <HAL_RCC_OscConfig+0x4f6>
        {
          return HAL_ERROR;
 8005b0a:	2301      	movs	r3, #1
 8005b0c:	e000      	b.n	8005b10 <HAL_RCC_OscConfig+0x4f8>
        }
      }
    }
  }

  return HAL_OK;
 8005b0e:	2300      	movs	r3, #0
}
 8005b10:	4618      	mov	r0, r3
 8005b12:	3718      	adds	r7, #24
 8005b14:	46bd      	mov	sp, r7
 8005b16:	bd80      	pop	{r7, pc}
 8005b18:	40021000 	.word	0x40021000

08005b1c <HAL_RCC_ClockConfig>:
  *         You can use @ref HAL_RCC_GetClockConfig() function to know which clock is
  *         currently used as system clock source.
  * @retval HAL status
  */
HAL_StatusTypeDef HAL_RCC_ClockConfig(RCC_ClkInitTypeDef  *RCC_ClkInitStruct, uint32_t FLatency)
{
 8005b1c:	b580      	push	{r7, lr}
 8005b1e:	b084      	sub	sp, #16
 8005b20:	af00      	add	r7, sp, #0
 8005b22:	6078      	str	r0, [r7, #4]
 8005b24:	6039      	str	r1, [r7, #0]
  uint32_t tickstart;

  /* Check Null pointer */
  if (RCC_ClkInitStruct == NULL)
 8005b26:	687b      	ldr	r3, [r7, #4]
 8005b28:	2b00      	cmp	r3, #0
 8005b2a:	d101      	bne.n	8005b30 <HAL_RCC_ClockConfig+0x14>
  {
    return HAL_ERROR;
 8005b2c:	2301      	movs	r3, #1
 8005b2e:	e0d0      	b.n	8005cd2 <HAL_RCC_ClockConfig+0x1b6>
  must be correctly programmed according to the frequency of the CPU clock
    (HCLK) of the device. */

#if defined(FLASH_ACR_LATENCY)
  /* Increasing the number of wait states because of higher CPU frequency */
  if (FLatency > __HAL_FLASH_GET_LATENCY())
 8005b30:	4b6a      	ldr	r3, [pc, #424]	@ (8005cdc <HAL_RCC_ClockConfig+0x1c0>)
 8005b32:	681b      	ldr	r3, [r3, #0]
 8005b34:	f003 0307 	and.w	r3, r3, #7
 8005b38:	683a      	ldr	r2, [r7, #0]
 8005b3a:	429a      	cmp	r2, r3
 8005b3c:	d910      	bls.n	8005b60 <HAL_RCC_ClockConfig+0x44>
  {
    /* Program the new number of wait states to the LATENCY bits in the FLASH_ACR register */
    __HAL_FLASH_SET_LATENCY(FLatency);
 8005b3e:	4b67      	ldr	r3, [pc, #412]	@ (8005cdc <HAL_RCC_ClockConfig+0x1c0>)
 8005b40:	681b      	ldr	r3, [r3, #0]
 8005b42:	f023 0207 	bic.w	r2, r3, #7
 8005b46:	4965      	ldr	r1, [pc, #404]	@ (8005cdc <HAL_RCC_ClockConfig+0x1c0>)
 8005b48:	683b      	ldr	r3, [r7, #0]
 8005b4a:	4313      	orrs	r3, r2
 8005b4c:	600b      	str	r3, [r1, #0]

    /* Check that the new number of wait states is taken into account to access the Flash
    memory by reading the FLASH_ACR register */
    if (__HAL_FLASH_GET_LATENCY() != FLatency)
 8005b4e:	4b63      	ldr	r3, [pc, #396]	@ (8005cdc <HAL_RCC_ClockConfig+0x1c0>)
 8005b50:	681b      	ldr	r3, [r3, #0]
 8005b52:	f003 0307 	and.w	r3, r3, #7
 8005b56:	683a      	ldr	r2, [r7, #0]
 8005b58:	429a      	cmp	r2, r3
 8005b5a:	d001      	beq.n	8005b60 <HAL_RCC_ClockConfig+0x44>
  {
    return HAL_ERROR;
 8005b5c:	2301      	movs	r3, #1
 8005b5e:	e0b8      	b.n	8005cd2 <HAL_RCC_ClockConfig+0x1b6>
  }
}

#endif /* FLASH_ACR_LATENCY */
/*-------------------------- HCLK Configuration --------------------------*/
if (((RCC_ClkInitStruct->ClockType) & RCC_CLOCKTYPE_HCLK) == RCC_CLOCKTYPE_HCLK)
 8005b60:	687b      	ldr	r3, [r7, #4]
 8005b62:	681b      	ldr	r3, [r3, #0]
 8005b64:	f003 0302 	and.w	r3, r3, #2
 8005b68:	2b00      	cmp	r3, #0
 8005b6a:	d020      	beq.n	8005bae <HAL_RCC_ClockConfig+0x92>
  {
    /* Set the highest APBx dividers in order to ensure that we do not go through
    a non-spec phase whatever we decrease or increase HCLK. */
    if (((RCC_ClkInitStruct->ClockType) & RCC_CLOCKTYPE_PCLK1) == RCC_CLOCKTYPE_PCLK1)
 8005b6c:	687b      	ldr	r3, [r7, #4]
 8005b6e:	681b      	ldr	r3, [r3, #0]
 8005b70:	f003 0304 	and.w	r3, r3, #4
 8005b74:	2b00      	cmp	r3, #0
 8005b76:	d005      	beq.n	8005b84 <HAL_RCC_ClockConfig+0x68>
    {
      MODIFY_REG(RCC->CFGR, RCC_CFGR_PPRE1, RCC_HCLK_DIV16);
 8005b78:	4b59      	ldr	r3, [pc, #356]	@ (8005ce0 <HAL_RCC_ClockConfig+0x1c4>)
 8005b7a:	685b      	ldr	r3, [r3, #4]
 8005b7c:	4a58      	ldr	r2, [pc, #352]	@ (8005ce0 <HAL_RCC_ClockConfig+0x1c4>)
 8005b7e:	f443 63e0 	orr.w	r3, r3, #1792	@ 0x700
 8005b82:	6053      	str	r3, [r2, #4]
    }

    if (((RCC_ClkInitStruct->ClockType) & RCC_CLOCKTYPE_PCLK2) == RCC_CLOCKTYPE_PCLK2)
 8005b84:	687b      	ldr	r3, [r7, #4]
 8005b86:	681b      	ldr	r3, [r3, #0]
 8005b88:	f003 0308 	and.w	r3, r3, #8
 8005b8c:	2b00      	cmp	r3, #0
 8005b8e:	d005      	beq.n	8005b9c <HAL_RCC_ClockConfig+0x80>
    {
      MODIFY_REG(RCC->CFGR, RCC_CFGR_PPRE2, (RCC_HCLK_DIV16 << 3));
 8005b90:	4b53      	ldr	r3, [pc, #332]	@ (8005ce0 <HAL_RCC_ClockConfig+0x1c4>)
 8005b92:	685b      	ldr	r3, [r3, #4]
 8005b94:	4a52      	ldr	r2, [pc, #328]	@ (8005ce0 <HAL_RCC_ClockConfig+0x1c4>)
 8005b96:	f443 5360 	orr.w	r3, r3, #14336	@ 0x3800
 8005b9a:	6053      	str	r3, [r2, #4]
    }

    /* Set the new HCLK clock divider */
    assert_param(IS_RCC_HCLK(RCC_ClkInitStruct->AHBCLKDivider));
    MODIFY_REG(RCC->CFGR, RCC_CFGR_HPRE, RCC_ClkInitStruct->AHBCLKDivider);
 8005b9c:	4b50      	ldr	r3, [pc, #320]	@ (8005ce0 <HAL_RCC_ClockConfig+0x1c4>)
 8005b9e:	685b      	ldr	r3, [r3, #4]
 8005ba0:	f023 02f0 	bic.w	r2, r3, #240	@ 0xf0
 8005ba4:	687b      	ldr	r3, [r7, #4]
 8005ba6:	689b      	ldr	r3, [r3, #8]
 8005ba8:	494d      	ldr	r1, [pc, #308]	@ (8005ce0 <HAL_RCC_ClockConfig+0x1c4>)
 8005baa:	4313      	orrs	r3, r2
 8005bac:	604b      	str	r3, [r1, #4]
  }

  /*------------------------- SYSCLK Configuration ---------------------------*/
  if (((RCC_ClkInitStruct->ClockType) & RCC_CLOCKTYPE_SYSCLK) == RCC_CLOCKTYPE_SYSCLK)
 8005bae:	687b      	ldr	r3, [r7, #4]
 8005bb0:	681b      	ldr	r3, [r3, #0]
 8005bb2:	f003 0301 	and.w	r3, r3, #1
 8005bb6:	2b00      	cmp	r3, #0
 8005bb8:	d040      	beq.n	8005c3c <HAL_RCC_ClockConfig+0x120>
  {
    assert_param(IS_RCC_SYSCLKSOURCE(RCC_ClkInitStruct->SYSCLKSource));

    /* HSE is selected as System Clock Source */
    if (RCC_ClkInitStruct->SYSCLKSource == RCC_SYSCLKSOURCE_HSE)
 8005bba:	687b      	ldr	r3, [r7, #4]
 8005bbc:	685b      	ldr	r3, [r3, #4]
 8005bbe:	2b01      	cmp	r3, #1
 8005bc0:	d107      	bne.n	8005bd2 <HAL_RCC_ClockConfig+0xb6>
    {
      /* Check the HSE ready flag */
      if (__HAL_RCC_GET_FLAG(RCC_FLAG_HSERDY) == RESET)
 8005bc2:	4b47      	ldr	r3, [pc, #284]	@ (8005ce0 <HAL_RCC_ClockConfig+0x1c4>)
 8005bc4:	681b      	ldr	r3, [r3, #0]
 8005bc6:	f403 3300 	and.w	r3, r3, #131072	@ 0x20000
 8005bca:	2b00      	cmp	r3, #0
 8005bcc:	d115      	bne.n	8005bfa <HAL_RCC_ClockConfig+0xde>
      {
        return HAL_ERROR;
 8005bce:	2301      	movs	r3, #1
 8005bd0:	e07f      	b.n	8005cd2 <HAL_RCC_ClockConfig+0x1b6>
      }
    }
    /* PLL is selected as System Clock Source */
    else if (RCC_ClkInitStruct->SYSCLKSource == RCC_SYSCLKSOURCE_PLLCLK)
 8005bd2:	687b      	ldr	r3, [r7, #4]
 8005bd4:	685b      	ldr	r3, [r3, #4]
 8005bd6:	2b02      	cmp	r3, #2
 8005bd8:	d107      	bne.n	8005bea <HAL_RCC_ClockConfig+0xce>
    {
      /* Check the PLL ready flag */
      if (__HAL_RCC_GET_FLAG(RCC_FLAG_PLLRDY) == RESET)
 8005bda:	4b41      	ldr	r3, [pc, #260]	@ (8005ce0 <HAL_RCC_ClockConfig+0x1c4>)
 8005bdc:	681b      	ldr	r3, [r3, #0]
 8005bde:	f003 7300 	and.w	r3, r3, #33554432	@ 0x2000000
 8005be2:	2b00      	cmp	r3, #0
 8005be4:	d109      	bne.n	8005bfa <HAL_RCC_ClockConfig+0xde>
      {
        return HAL_ERROR;
 8005be6:	2301      	movs	r3, #1
 8005be8:	e073      	b.n	8005cd2 <HAL_RCC_ClockConfig+0x1b6>
    }
    /* HSI is selected as System Clock Source */
    else
    {
      /* Check the HSI ready flag */
      if (__HAL_RCC_GET_FLAG(RCC_FLAG_HSIRDY) == RESET)
 8005bea:	4b3d      	ldr	r3, [pc, #244]	@ (8005ce0 <HAL_RCC_ClockConfig+0x1c4>)
 8005bec:	681b      	ldr	r3, [r3, #0]
 8005bee:	f003 0302 	and.w	r3, r3, #2
 8005bf2:	2b00      	cmp	r3, #0
 8005bf4:	d101      	bne.n	8005bfa <HAL_RCC_ClockConfig+0xde>
      {
        return HAL_ERROR;
 8005bf6:	2301      	movs	r3, #1
 8005bf8:	e06b      	b.n	8005cd2 <HAL_RCC_ClockConfig+0x1b6>
      }
    }
    __HAL_RCC_SYSCLK_CONFIG(RCC_ClkInitStruct->SYSCLKSource);
 8005bfa:	4b39      	ldr	r3, [pc, #228]	@ (8005ce0 <HAL_RCC_ClockConfig+0x1c4>)
 8005bfc:	685b      	ldr	r3, [r3, #4]
 8005bfe:	f023 0203 	bic.w	r2, r3, #3
 8005c02:	687b      	ldr	r3, [r7, #4]
 8005c04:	685b      	ldr	r3, [r3, #4]
 8005c06:	4936      	ldr	r1, [pc, #216]	@ (8005ce0 <HAL_RCC_ClockConfig+0x1c4>)
 8005c08:	4313      	orrs	r3, r2
 8005c0a:	604b      	str	r3, [r1, #4]

    /* Get Start Tick */
    tickstart = HAL_GetTick();
 8005c0c:	f7fe fc18 	bl	8004440 <HAL_GetTick>
 8005c10:	60f8      	str	r0, [r7, #12]

    while (__HAL_RCC_GET_SYSCLK_SOURCE() != (RCC_ClkInitStruct->SYSCLKSource << RCC_CFGR_SWS_Pos))
 8005c12:	e00a      	b.n	8005c2a <HAL_RCC_ClockConfig+0x10e>
    {
      if ((HAL_GetTick() - tickstart) > CLOCKSWITCH_TIMEOUT_VALUE)
 8005c14:	f7fe fc14 	bl	8004440 <HAL_GetTick>
 8005c18:	4602      	mov	r2, r0
 8005c1a:	68fb      	ldr	r3, [r7, #12]
 8005c1c:	1ad3      	subs	r3, r2, r3
 8005c1e:	f241 3288 	movw	r2, #5000	@ 0x1388
 8005c22:	4293      	cmp	r3, r2
 8005c24:	d901      	bls.n	8005c2a <HAL_RCC_ClockConfig+0x10e>
      {
        return HAL_TIMEOUT;
 8005c26:	2303      	movs	r3, #3
 8005c28:	e053      	b.n	8005cd2 <HAL_RCC_ClockConfig+0x1b6>
    while (__HAL_RCC_GET_SYSCLK_SOURCE() != (RCC_ClkInitStruct->SYSCLKSource << RCC_CFGR_SWS_Pos))
 8005c2a:	4b2d      	ldr	r3, [pc, #180]	@ (8005ce0 <HAL_RCC_ClockConfig+0x1c4>)
 8005c2c:	685b      	ldr	r3, [r3, #4]
 8005c2e:	f003 020c 	and.w	r2, r3, #12
 8005c32:	687b      	ldr	r3, [r7, #4]
 8005c34:	685b      	ldr	r3, [r3, #4]
 8005c36:	009b      	lsls	r3, r3, #2
 8005c38:	429a      	cmp	r2, r3
 8005c3a:	d1eb      	bne.n	8005c14 <HAL_RCC_ClockConfig+0xf8>
    }
  }

#if defined(FLASH_ACR_LATENCY)
  /* Decreasing the number of wait states because of lower CPU frequency */
  if (FLatency < __HAL_FLASH_GET_LATENCY())
 8005c3c:	4b27      	ldr	r3, [pc, #156]	@ (8005cdc <HAL_RCC_ClockConfig+0x1c0>)
 8005c3e:	681b      	ldr	r3, [r3, #0]
 8005c40:	f003 0307 	and.w	r3, r3, #7
 8005c44:	683a      	ldr	r2, [r7, #0]
 8005c46:	429a      	cmp	r2, r3
 8005c48:	d210      	bcs.n	8005c6c <HAL_RCC_ClockConfig+0x150>
  {
    /* Program the new number of wait states to the LATENCY bits in the FLASH_ACR register */
    __HAL_FLASH_SET_LATENCY(FLatency);
 8005c4a:	4b24      	ldr	r3, [pc, #144]	@ (8005cdc <HAL_RCC_ClockConfig+0x1c0>)
 8005c4c:	681b      	ldr	r3, [r3, #0]
 8005c4e:	f023 0207 	bic.w	r2, r3, #7
 8005c52:	4922      	ldr	r1, [pc, #136]	@ (8005cdc <HAL_RCC_ClockConfig+0x1c0>)
 8005c54:	683b      	ldr	r3, [r7, #0]
 8005c56:	4313      	orrs	r3, r2
 8005c58:	600b      	str	r3, [r1, #0]

    /* Check that the new number of wait states is taken into account to access the Flash
    memory by reading the FLASH_ACR register */
    if (__HAL_FLASH_GET_LATENCY() != FLatency)
 8005c5a:	4b20      	ldr	r3, [pc, #128]	@ (8005cdc <HAL_RCC_ClockConfig+0x1c0>)
 8005c5c:	681b      	ldr	r3, [r3, #0]
 8005c5e:	f003 0307 	and.w	r3, r3, #7
 8005c62:	683a      	ldr	r2, [r7, #0]
 8005c64:	429a      	cmp	r2, r3
 8005c66:	d001      	beq.n	8005c6c <HAL_RCC_ClockConfig+0x150>
  {
    return HAL_ERROR;
 8005c68:	2301      	movs	r3, #1
 8005c6a:	e032      	b.n	8005cd2 <HAL_RCC_ClockConfig+0x1b6>
  }
}
#endif /* FLASH_ACR_LATENCY */

/*-------------------------- PCLK1 Configuration ---------------------------*/
if (((RCC_ClkInitStruct->ClockType) & RCC_CLOCKTYPE_PCLK1) == RCC_CLOCKTYPE_PCLK1)
 8005c6c:	687b      	ldr	r3, [r7, #4]
 8005c6e:	681b      	ldr	r3, [r3, #0]
 8005c70:	f003 0304 	and.w	r3, r3, #4
 8005c74:	2b00      	cmp	r3, #0
 8005c76:	d008      	beq.n	8005c8a <HAL_RCC_ClockConfig+0x16e>
  {
    assert_param(IS_RCC_PCLK(RCC_ClkInitStruct->APB1CLKDivider));
    MODIFY_REG(RCC->CFGR, RCC_CFGR_PPRE1, RCC_ClkInitStruct->APB1CLKDivider);
 8005c78:	4b19      	ldr	r3, [pc, #100]	@ (8005ce0 <HAL_RCC_ClockConfig+0x1c4>)
 8005c7a:	685b      	ldr	r3, [r3, #4]
 8005c7c:	f423 62e0 	bic.w	r2, r3, #1792	@ 0x700
 8005c80:	687b      	ldr	r3, [r7, #4]
 8005c82:	68db      	ldr	r3, [r3, #12]
 8005c84:	4916      	ldr	r1, [pc, #88]	@ (8005ce0 <HAL_RCC_ClockConfig+0x1c4>)
 8005c86:	4313      	orrs	r3, r2
 8005c88:	604b      	str	r3, [r1, #4]
  }

  /*-------------------------- PCLK2 Configuration ---------------------------*/
  if (((RCC_ClkInitStruct->ClockType) & RCC_CLOCKTYPE_PCLK2) == RCC_CLOCKTYPE_PCLK2)
 8005c8a:	687b      	ldr	r3, [r7, #4]
 8005c8c:	681b      	ldr	r3, [r3, #0]
 8005c8e:	f003 0308 	and.w	r3, r3, #8
 8005c92:	2b00      	cmp	r3, #0
 8005c94:	d009      	beq.n	8005caa <HAL_RCC_ClockConfig+0x18e>
  {
    assert_param(IS_RCC_PCLK(RCC_ClkInitStruct->APB2CLKDivider));
    MODIFY_REG(RCC->CFGR, RCC_CFGR_PPRE2, ((RCC_ClkInitStruct->APB2CLKDivider) << 3));
 8005c96:	4b12      	ldr	r3, [pc, #72]	@ (8005ce0 <HAL_RCC_ClockConfig+0x1c4>)
 8005c98:	685b      	ldr	r3, [r3, #4]
 8005c9a:	f423 5260 	bic.w	r2, r3, #14336	@ 0x3800
 8005c9e:	687b      	ldr	r3, [r7, #4]
 8005ca0:	691b      	ldr	r3, [r3, #16]
 8005ca2:	00db      	lsls	r3, r3, #3
 8005ca4:	490e      	ldr	r1, [pc, #56]	@ (8005ce0 <HAL_RCC_ClockConfig+0x1c4>)
 8005ca6:	4313      	orrs	r3, r2
 8005ca8:	604b      	str	r3, [r1, #4]
  }

  /* Update the SystemCoreClock global variable */
  SystemCoreClock = HAL_RCC_GetSysClockFreq() >> AHBPrescTable[(RCC->CFGR & RCC_CFGR_HPRE) >> RCC_CFGR_HPRE_Pos];
 8005caa:	f000 f821 	bl	8005cf0 <HAL_RCC_GetSysClockFreq>
 8005cae:	4602      	mov	r2, r0
 8005cb0:	4b0b      	ldr	r3, [pc, #44]	@ (8005ce0 <HAL_RCC_ClockConfig+0x1c4>)
 8005cb2:	685b      	ldr	r3, [r3, #4]
 8005cb4:	091b      	lsrs	r3, r3, #4
 8005cb6:	f003 030f 	and.w	r3, r3, #15
 8005cba:	490a      	ldr	r1, [pc, #40]	@ (8005ce4 <HAL_RCC_ClockConfig+0x1c8>)
 8005cbc:	5ccb      	ldrb	r3, [r1, r3]
 8005cbe:	fa22 f303 	lsr.w	r3, r2, r3
 8005cc2:	4a09      	ldr	r2, [pc, #36]	@ (8005ce8 <HAL_RCC_ClockConfig+0x1cc>)
 8005cc4:	6013      	str	r3, [r2, #0]

  /* Configure the source of time base considering new system clocks settings*/
  HAL_InitTick(uwTickPrio);
 8005cc6:	4b09      	ldr	r3, [pc, #36]	@ (8005cec <HAL_RCC_ClockConfig+0x1d0>)
 8005cc8:	681b      	ldr	r3, [r3, #0]
 8005cca:	4618      	mov	r0, r3
 8005ccc:	f7fe fb76 	bl	80043bc <HAL_InitTick>

  return HAL_OK;
 8005cd0:	2300      	movs	r3, #0
}
 8005cd2:	4618      	mov	r0, r3
 8005cd4:	3710      	adds	r7, #16
 8005cd6:	46bd      	mov	sp, r7
 8005cd8:	bd80      	pop	{r7, pc}
 8005cda:	bf00      	nop
 8005cdc:	40022000 	.word	0x40022000
 8005ce0:	40021000 	.word	0x40021000
 8005ce4:	08008f0c 	.word	0x08008f0c
 8005ce8:	20000018 	.word	0x20000018
 8005cec:	2000001c 	.word	0x2000001c

08005cf0 <HAL_RCC_GetSysClockFreq>:
  *         right SYSCLK value. Otherwise, any configuration based on this function will be incorrect.
  *
  * @retval SYSCLK frequency
  */
uint32_t HAL_RCC_GetSysClockFreq(void)
{
 8005cf0:	b480      	push	{r7}
 8005cf2:	b087      	sub	sp, #28
 8005cf4:	af00      	add	r7, sp, #0
#else
  static const uint8_t aPredivFactorTable[2U] = {1, 2};
#endif /*RCC_CFGR2_PREDIV1*/

#endif
  uint32_t tmpreg = 0U, prediv = 0U, pllclk = 0U, pllmul = 0U;
 8005cf6:	2300      	movs	r3, #0
 8005cf8:	60fb      	str	r3, [r7, #12]
 8005cfa:	2300      	movs	r3, #0
 8005cfc:	60bb      	str	r3, [r7, #8]
 8005cfe:	2300      	movs	r3, #0
 8005d00:	617b      	str	r3, [r7, #20]
 8005d02:	2300      	movs	r3, #0
 8005d04:	607b      	str	r3, [r7, #4]
  uint32_t sysclockfreq = 0U;
 8005d06:	2300      	movs	r3, #0
 8005d08:	613b      	str	r3, [r7, #16]
#if defined(RCC_CFGR2_PREDIV1SRC)
  uint32_t prediv2 = 0U, pll2mul = 0U;
#endif /*RCC_CFGR2_PREDIV1SRC*/

  tmpreg = RCC->CFGR;
 8005d0a:	4b1e      	ldr	r3, [pc, #120]	@ (8005d84 <HAL_RCC_GetSysClockFreq+0x94>)
 8005d0c:	685b      	ldr	r3, [r3, #4]
 8005d0e:	60fb      	str	r3, [r7, #12]

  /* Get SYSCLK source -------------------------------------------------------*/
  switch (tmpreg & RCC_CFGR_SWS)
 8005d10:	68fb      	ldr	r3, [r7, #12]
 8005d12:	f003 030c 	and.w	r3, r3, #12
 8005d16:	2b04      	cmp	r3, #4
 8005d18:	d002      	beq.n	8005d20 <HAL_RCC_GetSysClockFreq+0x30>
 8005d1a:	2b08      	cmp	r3, #8
 8005d1c:	d003      	beq.n	8005d26 <HAL_RCC_GetSysClockFreq+0x36>
 8005d1e:	e027      	b.n	8005d70 <HAL_RCC_GetSysClockFreq+0x80>
  {
    case RCC_SYSCLKSOURCE_STATUS_HSE:  /* HSE used as system clock */
    {
      sysclockfreq = HSE_VALUE;
 8005d20:	4b19      	ldr	r3, [pc, #100]	@ (8005d88 <HAL_RCC_GetSysClockFreq+0x98>)
 8005d22:	613b      	str	r3, [r7, #16]
      break;
 8005d24:	e027      	b.n	8005d76 <HAL_RCC_GetSysClockFreq+0x86>
    }
    case RCC_SYSCLKSOURCE_STATUS_PLLCLK:  /* PLL used as system clock */
    {
      pllmul = aPLLMULFactorTable[(uint32_t)(tmpreg & RCC_CFGR_PLLMULL) >> RCC_CFGR_PLLMULL_Pos];
 8005d26:	68fb      	ldr	r3, [r7, #12]
 8005d28:	0c9b      	lsrs	r3, r3, #18
 8005d2a:	f003 030f 	and.w	r3, r3, #15
 8005d2e:	4a17      	ldr	r2, [pc, #92]	@ (8005d8c <HAL_RCC_GetSysClockFreq+0x9c>)
 8005d30:	5cd3      	ldrb	r3, [r2, r3]
 8005d32:	607b      	str	r3, [r7, #4]
      if ((tmpreg & RCC_CFGR_PLLSRC) != RCC_PLLSOURCE_HSI_DIV2)
 8005d34:	68fb      	ldr	r3, [r7, #12]
 8005d36:	f403 3380 	and.w	r3, r3, #65536	@ 0x10000
 8005d3a:	2b00      	cmp	r3, #0
 8005d3c:	d010      	beq.n	8005d60 <HAL_RCC_GetSysClockFreq+0x70>
      {
#if defined(RCC_CFGR2_PREDIV1)
        prediv = aPredivFactorTable[(uint32_t)(RCC->CFGR2 & RCC_CFGR2_PREDIV1) >> RCC_CFGR2_PREDIV1_Pos];
#else
        prediv = aPredivFactorTable[(uint32_t)(RCC->CFGR & RCC_CFGR_PLLXTPRE) >> RCC_CFGR_PLLXTPRE_Pos];
 8005d3e:	4b11      	ldr	r3, [pc, #68]	@ (8005d84 <HAL_RCC_GetSysClockFreq+0x94>)
 8005d40:	685b      	ldr	r3, [r3, #4]
 8005d42:	0c5b      	lsrs	r3, r3, #17
 8005d44:	f003 0301 	and.w	r3, r3, #1
 8005d48:	4a11      	ldr	r2, [pc, #68]	@ (8005d90 <HAL_RCC_GetSysClockFreq+0xa0>)
 8005d4a:	5cd3      	ldrb	r3, [r2, r3]
 8005d4c:	60bb      	str	r3, [r7, #8]
        {
          pllclk = pllclk / 2;
        }
#else
        /* HSE used as PLL clock source : PLLCLK = HSE/PREDIV1 * PLLMUL */
        pllclk = (uint32_t)((HSE_VALUE  * pllmul) / prediv);
 8005d4e:	687b      	ldr	r3, [r7, #4]
 8005d50:	4a0d      	ldr	r2, [pc, #52]	@ (8005d88 <HAL_RCC_GetSysClockFreq+0x98>)
 8005d52:	fb03 f202 	mul.w	r2, r3, r2
 8005d56:	68bb      	ldr	r3, [r7, #8]
 8005d58:	fbb2 f3f3 	udiv	r3, r2, r3
 8005d5c:	617b      	str	r3, [r7, #20]
 8005d5e:	e004      	b.n	8005d6a <HAL_RCC_GetSysClockFreq+0x7a>
#endif /*RCC_CFGR2_PREDIV1SRC*/
      }
      else
      {
        /* HSI used as PLL clock source : PLLCLK = HSI/2 * PLLMUL */
        pllclk = (uint32_t)((HSI_VALUE >> 1) * pllmul);
 8005d60:	687b      	ldr	r3, [r7, #4]
 8005d62:	4a0c      	ldr	r2, [pc, #48]	@ (8005d94 <HAL_RCC_GetSysClockFreq+0xa4>)
 8005d64:	fb02 f303 	mul.w	r3, r2, r3
 8005d68:	617b      	str	r3, [r7, #20]
      }
      sysclockfreq = pllclk;
 8005d6a:	697b      	ldr	r3, [r7, #20]
 8005d6c:	613b      	str	r3, [r7, #16]
      break;
 8005d6e:	e002      	b.n	8005d76 <HAL_RCC_GetSysClockFreq+0x86>
    }
    case RCC_SYSCLKSOURCE_STATUS_HSI:  /* HSI used as system clock source */
    default: /* HSI used as system clock */
    {
      sysclockfreq = HSI_VALUE;
 8005d70:	4b05      	ldr	r3, [pc, #20]	@ (8005d88 <HAL_RCC_GetSysClockFreq+0x98>)
 8005d72:	613b      	str	r3, [r7, #16]
      break;
 8005d74:	bf00      	nop
    }
  }
  return sysclockfreq;
 8005d76:	693b      	ldr	r3, [r7, #16]
}
 8005d78:	4618      	mov	r0, r3
 8005d7a:	371c      	adds	r7, #28
 8005d7c:	46bd      	mov	sp, r7
 8005d7e:	bc80      	pop	{r7}
 8005d80:	4770      	bx	lr
 8005d82:	bf00      	nop
 8005d84:	40021000 	.word	0x40021000
 8005d88:	007a1200 	.word	0x007a1200
 8005d8c:	08008f24 	.word	0x08008f24
 8005d90:	08008f34 	.word	0x08008f34
 8005d94:	003d0900 	.word	0x003d0900

08005d98 <HAL_RCC_GetHCLKFreq>:
  * @note   The SystemCoreClock CMSIS variable is used to store System Clock Frequency
  *         and updated within this function
  * @retval HCLK frequency
  */
uint32_t HAL_RCC_GetHCLKFreq(void)
{
 8005d98:	b480      	push	{r7}
 8005d9a:	af00      	add	r7, sp, #0
  return SystemCoreClock;
 8005d9c:	4b02      	ldr	r3, [pc, #8]	@ (8005da8 <HAL_RCC_GetHCLKFreq+0x10>)
 8005d9e:	681b      	ldr	r3, [r3, #0]
}
 8005da0:	4618      	mov	r0, r3
 8005da2:	46bd      	mov	sp, r7
 8005da4:	bc80      	pop	{r7}
 8005da6:	4770      	bx	lr
 8005da8:	20000018 	.word	0x20000018

08005dac <HAL_RCC_GetPCLK1Freq>:
  * @note   Each time PCLK1 changes, this function must be called to update the
  *         right PCLK1 value. Otherwise, any configuration based on this function will be incorrect.
  * @retval PCLK1 frequency
  */
uint32_t HAL_RCC_GetPCLK1Freq(void)
{
 8005dac:	b580      	push	{r7, lr}
 8005dae:	af00      	add	r7, sp, #0
  /* Get HCLK source and Compute PCLK1 frequency ---------------------------*/
  return (HAL_RCC_GetHCLKFreq() >> APBPrescTable[(RCC->CFGR & RCC_CFGR_PPRE1) >> RCC_CFGR_PPRE1_Pos]);
 8005db0:	f7ff fff2 	bl	8005d98 <HAL_RCC_GetHCLKFreq>
 8005db4:	4602      	mov	r2, r0
 8005db6:	4b05      	ldr	r3, [pc, #20]	@ (8005dcc <HAL_RCC_GetPCLK1Freq+0x20>)
 8005db8:	685b      	ldr	r3, [r3, #4]
 8005dba:	0a1b      	lsrs	r3, r3, #8
 8005dbc:	f003 0307 	and.w	r3, r3, #7
 8005dc0:	4903      	ldr	r1, [pc, #12]	@ (8005dd0 <HAL_RCC_GetPCLK1Freq+0x24>)
 8005dc2:	5ccb      	ldrb	r3, [r1, r3]
 8005dc4:	fa22 f303 	lsr.w	r3, r2, r3
}
 8005dc8:	4618      	mov	r0, r3
 8005dca:	bd80      	pop	{r7, pc}
 8005dcc:	40021000 	.word	0x40021000
 8005dd0:	08008f1c 	.word	0x08008f1c

08005dd4 <RCC_Delay>:
  * @brief  This function provides delay (in milliseconds) based on CPU cycles method.
  * @param  mdelay: specifies the delay time length, in milliseconds.
  * @retval None
  */
static void RCC_Delay(uint32_t mdelay)
{
 8005dd4:	b480      	push	{r7}
 8005dd6:	b085      	sub	sp, #20
 8005dd8:	af00      	add	r7, sp, #0
 8005dda:	6078      	str	r0, [r7, #4]
  __IO uint32_t Delay = mdelay * (SystemCoreClock / 8U / 1000U);
 8005ddc:	4b0a      	ldr	r3, [pc, #40]	@ (8005e08 <RCC_Delay+0x34>)
 8005dde:	681b      	ldr	r3, [r3, #0]
 8005de0:	4a0a      	ldr	r2, [pc, #40]	@ (8005e0c <RCC_Delay+0x38>)
 8005de2:	fba2 2303 	umull	r2, r3, r2, r3
 8005de6:	0a5b      	lsrs	r3, r3, #9
 8005de8:	687a      	ldr	r2, [r7, #4]
 8005dea:	fb02 f303 	mul.w	r3, r2, r3
 8005dee:	60fb      	str	r3, [r7, #12]
  do
  {
    __NOP();
 8005df0:	bf00      	nop
  }
  while (Delay --);
 8005df2:	68fb      	ldr	r3, [r7, #12]
 8005df4:	1e5a      	subs	r2, r3, #1
 8005df6:	60fa      	str	r2, [r7, #12]
 8005df8:	2b00      	cmp	r3, #0
 8005dfa:	d1f9      	bne.n	8005df0 <RCC_Delay+0x1c>
}
 8005dfc:	bf00      	nop
 8005dfe:	bf00      	nop
 8005e00:	3714      	adds	r7, #20
 8005e02:	46bd      	mov	sp, r7
 8005e04:	bc80      	pop	{r7}
 8005e06:	4770      	bx	lr
 8005e08:	20000018 	.word	0x20000018
 8005e0c:	10624dd3 	.word	0x10624dd3

08005e10 <HAL_TIM_Base_Init>:
  *         Ex: call @ref HAL_TIM_Base_DeInit() before HAL_TIM_Base_Init()
  * @param  htim TIM Base handle
  * @retval HAL status
  */
HAL_StatusTypeDef HAL_TIM_Base_Init(TIM_HandleTypeDef *htim)
{
 8005e10:	b580      	push	{r7, lr}
 8005e12:	b082      	sub	sp, #8
 8005e14:	af00      	add	r7, sp, #0
 8005e16:	6078      	str	r0, [r7, #4]
  /* Check the TIM handle allocation */
  if (htim == NULL)
 8005e18:	687b      	ldr	r3, [r7, #4]
 8005e1a:	2b00      	cmp	r3, #0
 8005e1c:	d101      	bne.n	8005e22 <HAL_TIM_Base_Init+0x12>
  {
    return HAL_ERROR;
 8005e1e:	2301      	movs	r3, #1
 8005e20:	e041      	b.n	8005ea6 <HAL_TIM_Base_Init+0x96>
  assert_param(IS_TIM_COUNTER_MODE(htim->Init.CounterMode));
  assert_param(IS_TIM_CLOCKDIVISION_DIV(htim->Init.ClockDivision));
  assert_param(IS_TIM_PERIOD(htim->Init.Period));
  assert_param(IS_TIM_AUTORELOAD_PRELOAD(htim->Init.AutoReloadPreload));

  if (htim->State == HAL_TIM_STATE_RESET)
 8005e22:	687b      	ldr	r3, [r7, #4]
 8005e24:	f893 303d 	ldrb.w	r3, [r3, #61]	@ 0x3d
 8005e28:	b2db      	uxtb	r3, r3
 8005e2a:	2b00      	cmp	r3, #0
 8005e2c:	d106      	bne.n	8005e3c <HAL_TIM_Base_Init+0x2c>
  {
    /* Allocate lock resource and initialize it */
    htim->Lock = HAL_UNLOCKED;
 8005e2e:	687b      	ldr	r3, [r7, #4]
 8005e30:	2200      	movs	r2, #0
 8005e32:	f883 203c 	strb.w	r2, [r3, #60]	@ 0x3c
    }
    /* Init the low level hardware : GPIO, CLOCK, NVIC */
    htim->Base_MspInitCallback(htim);
#else
    /* Init the low level hardware : GPIO, CLOCK, NVIC */
    HAL_TIM_Base_MspInit(htim);
 8005e36:	6878      	ldr	r0, [r7, #4]
 8005e38:	f7fe f9e0 	bl	80041fc <HAL_TIM_Base_MspInit>
#endif /* USE_HAL_TIM_REGISTER_CALLBACKS */
  }

  /* Set the TIM state */
  htim->State = HAL_TIM_STATE_BUSY;
 8005e3c:	687b      	ldr	r3, [r7, #4]
 8005e3e:	2202      	movs	r2, #2
 8005e40:	f883 203d 	strb.w	r2, [r3, #61]	@ 0x3d

  /* Set the Time Base configuration */
  TIM_Base_SetConfig(htim->Instance, &htim->Init);
 8005e44:	687b      	ldr	r3, [r7, #4]
 8005e46:	681a      	ldr	r2, [r3, #0]
 8005e48:	687b      	ldr	r3, [r7, #4]
 8005e4a:	3304      	adds	r3, #4
 8005e4c:	4619      	mov	r1, r3
 8005e4e:	4610      	mov	r0, r2
 8005e50:	f000 fbe2 	bl	8006618 <TIM_Base_SetConfig>

  /* Initialize the DMA burst operation state */
  htim->DMABurstState = HAL_DMA_BURST_STATE_READY;
 8005e54:	687b      	ldr	r3, [r7, #4]
 8005e56:	2201      	movs	r2, #1
 8005e58:	f883 2046 	strb.w	r2, [r3, #70]	@ 0x46

  /* Initialize the TIM channels state */
  TIM_CHANNEL_STATE_SET_ALL(htim, HAL_TIM_CHANNEL_STATE_READY);
 8005e5c:	687b      	ldr	r3, [r7, #4]
 8005e5e:	2201      	movs	r2, #1
 8005e60:	f883 203e 	strb.w	r2, [r3, #62]	@ 0x3e
 8005e64:	687b      	ldr	r3, [r7, #4]
 8005e66:	2201      	movs	r2, #1
 8005e68:	f883 203f 	strb.w	r2, [r3, #63]	@ 0x3f
 8005e6c:	687b      	ldr	r3, [r7, #4]
 8005e6e:	2201      	movs	r2, #1
 8005e70:	f883 2040 	strb.w	r2, [r3, #64]	@ 0x40
 8005e74:	687b      	ldr	r3, [r7, #4]
 8005e76:	2201      	movs	r2, #1
 8005e78:	f883 2041 	strb.w	r2, [r3, #65]	@ 0x41
  TIM_CHANNEL_N_STATE_SET_ALL(htim, HAL_TIM_CHANNEL_STATE_READY);
 8005e7c:	687b      	ldr	r3, [r7, #4]
 8005e7e:	2201      	movs	r2, #1
 8005e80:	f883 2042 	strb.w	r2, [r3, #66]	@ 0x42
 8005e84:	687b      	ldr	r3, [r7, #4]
 8005e86:	2201      	movs	r2, #1
 8005e88:	f883 2043 	strb.w	r2, [r3, #67]	@ 0x43
 8005e8c:	687b      	ldr	r3, [r7, #4]
 8005e8e:	2201      	movs	r2, #1
 8005e90:	f883 2044 	strb.w	r2, [r3, #68]	@ 0x44
 8005e94:	687b      	ldr	r3, [r7, #4]
 8005e96:	2201      	movs	r2, #1
 8005e98:	f883 2045 	strb.w	r2, [r3, #69]	@ 0x45

  /* Initialize the TIM state*/
  htim->State = HAL_TIM_STATE_READY;
 8005e9c:	687b      	ldr	r3, [r7, #4]
 8005e9e:	2201      	movs	r2, #1
 8005ea0:	f883 203d 	strb.w	r2, [r3, #61]	@ 0x3d

  return HAL_OK;
 8005ea4:	2300      	movs	r3, #0
}
 8005ea6:	4618      	mov	r0, r3
 8005ea8:	3708      	adds	r7, #8
 8005eaa:	46bd      	mov	sp, r7
 8005eac:	bd80      	pop	{r7, pc}

08005eae <HAL_TIM_PWM_Init>:
  *         Ex: call @ref HAL_TIM_PWM_DeInit() before HAL_TIM_PWM_Init()
  * @param  htim TIM PWM handle
  * @retval HAL status
  */
HAL_StatusTypeDef HAL_TIM_PWM_Init(TIM_HandleTypeDef *htim)
{
 8005eae:	b580      	push	{r7, lr}
 8005eb0:	b082      	sub	sp, #8
 8005eb2:	af00      	add	r7, sp, #0
 8005eb4:	6078      	str	r0, [r7, #4]
  /* Check the TIM handle allocation */
  if (htim == NULL)
 8005eb6:	687b      	ldr	r3, [r7, #4]
 8005eb8:	2b00      	cmp	r3, #0
 8005eba:	d101      	bne.n	8005ec0 <HAL_TIM_PWM_Init+0x12>
  {
    return HAL_ERROR;
 8005ebc:	2301      	movs	r3, #1
 8005ebe:	e041      	b.n	8005f44 <HAL_TIM_PWM_Init+0x96>
  assert_param(IS_TIM_COUNTER_MODE(htim->Init.CounterMode));
  assert_param(IS_TIM_CLOCKDIVISION_DIV(htim->Init.ClockDivision));
  assert_param(IS_TIM_PERIOD(htim->Init.Period));
  assert_param(IS_TIM_AUTORELOAD_PRELOAD(htim->Init.AutoReloadPreload));

  if (htim->State == HAL_TIM_STATE_RESET)
 8005ec0:	687b      	ldr	r3, [r7, #4]
 8005ec2:	f893 303d 	ldrb.w	r3, [r3, #61]	@ 0x3d
 8005ec6:	b2db      	uxtb	r3, r3
 8005ec8:	2b00      	cmp	r3, #0
 8005eca:	d106      	bne.n	8005eda <HAL_TIM_PWM_Init+0x2c>
  {
    /* Allocate lock resource and initialize it */
    htim->Lock = HAL_UNLOCKED;
 8005ecc:	687b      	ldr	r3, [r7, #4]
 8005ece:	2200      	movs	r2, #0
 8005ed0:	f883 203c 	strb.w	r2, [r3, #60]	@ 0x3c
    }
    /* Init the low level hardware : GPIO, CLOCK, NVIC */
    htim->PWM_MspInitCallback(htim);
#else
    /* Init the low level hardware : GPIO, CLOCK, NVIC and DMA */
    HAL_TIM_PWM_MspInit(htim);
 8005ed4:	6878      	ldr	r0, [r7, #4]
 8005ed6:	f000 f839 	bl	8005f4c <HAL_TIM_PWM_MspInit>
#endif /* USE_HAL_TIM_REGISTER_CALLBACKS */
  }

  /* Set the TIM state */
  htim->State = HAL_TIM_STATE_BUSY;
 8005eda:	687b      	ldr	r3, [r7, #4]
 8005edc:	2202      	movs	r2, #2
 8005ede:	f883 203d 	strb.w	r2, [r3, #61]	@ 0x3d

  /* Init the base time for the PWM */
  TIM_Base_SetConfig(htim->Instance, &htim->Init);
 8005ee2:	687b      	ldr	r3, [r7, #4]
 8005ee4:	681a      	ldr	r2, [r3, #0]
 8005ee6:	687b      	ldr	r3, [r7, #4]
 8005ee8:	3304      	adds	r3, #4
 8005eea:	4619      	mov	r1, r3
 8005eec:	4610      	mov	r0, r2
 8005eee:	f000 fb93 	bl	8006618 <TIM_Base_SetConfig>

  /* Initialize the DMA burst operation state */
  htim->DMABurstState = HAL_DMA_BURST_STATE_READY;
 8005ef2:	687b      	ldr	r3, [r7, #4]
 8005ef4:	2201      	movs	r2, #1
 8005ef6:	f883 2046 	strb.w	r2, [r3, #70]	@ 0x46

  /* Initialize the TIM channels state */
  TIM_CHANNEL_STATE_SET_ALL(htim, HAL_TIM_CHANNEL_STATE_READY);
 8005efa:	687b      	ldr	r3, [r7, #4]
 8005efc:	2201      	movs	r2, #1
 8005efe:	f883 203e 	strb.w	r2, [r3, #62]	@ 0x3e
 8005f02:	687b      	ldr	r3, [r7, #4]
 8005f04:	2201      	movs	r2, #1
 8005f06:	f883 203f 	strb.w	r2, [r3, #63]	@ 0x3f
 8005f0a:	687b      	ldr	r3, [r7, #4]
 8005f0c:	2201      	movs	r2, #1
 8005f0e:	f883 2040 	strb.w	r2, [r3, #64]	@ 0x40
 8005f12:	687b      	ldr	r3, [r7, #4]
 8005f14:	2201      	movs	r2, #1
 8005f16:	f883 2041 	strb.w	r2, [r3, #65]	@ 0x41
  TIM_CHANNEL_N_STATE_SET_ALL(htim, HAL_TIM_CHANNEL_STATE_READY);
 8005f1a:	687b      	ldr	r3, [r7, #4]
 8005f1c:	2201      	movs	r2, #1
 8005f1e:	f883 2042 	strb.w	r2, [r3, #66]	@ 0x42
 8005f22:	687b      	ldr	r3, [r7, #4]
 8005f24:	2201      	movs	r2, #1
 8005f26:	f883 2043 	strb.w	r2, [r3, #67]	@ 0x43
 8005f2a:	687b      	ldr	r3, [r7, #4]
 8005f2c:	2201      	movs	r2, #1
 8005f2e:	f883 2044 	strb.w	r2, [r3, #68]	@ 0x44
 8005f32:	687b      	ldr	r3, [r7, #4]
 8005f34:	2201      	movs	r2, #1
 8005f36:	f883 2045 	strb.w	r2, [r3, #69]	@ 0x45

  /* Initialize the TIM state*/
  htim->State = HAL_TIM_STATE_READY;
 8005f3a:	687b      	ldr	r3, [r7, #4]
 8005f3c:	2201      	movs	r2, #1
 8005f3e:	f883 203d 	strb.w	r2, [r3, #61]	@ 0x3d

  return HAL_OK;
 8005f42:	2300      	movs	r3, #0
}
 8005f44:	4618      	mov	r0, r3
 8005f46:	3708      	adds	r7, #8
 8005f48:	46bd      	mov	sp, r7
 8005f4a:	bd80      	pop	{r7, pc}

08005f4c <HAL_TIM_PWM_MspInit>:
  * @brief  Initializes the TIM PWM MSP.
  * @param  htim TIM PWM handle
  * @retval None
  */
__weak void HAL_TIM_PWM_MspInit(TIM_HandleTypeDef *htim)
{
 8005f4c:	b480      	push	{r7}
 8005f4e:	b083      	sub	sp, #12
 8005f50:	af00      	add	r7, sp, #0
 8005f52:	6078      	str	r0, [r7, #4]
  UNUSED(htim);

  /* NOTE : This function should not be modified, when the callback is needed,
            the HAL_TIM_PWM_MspInit could be implemented in the user file
   */
}
 8005f54:	bf00      	nop
 8005f56:	370c      	adds	r7, #12
 8005f58:	46bd      	mov	sp, r7
 8005f5a:	bc80      	pop	{r7}
 8005f5c:	4770      	bx	lr
	...

08005f60 <HAL_TIM_PWM_Start>:
  *            @arg TIM_CHANNEL_3: TIM Channel 3 selected
  *            @arg TIM_CHANNEL_4: TIM Channel 4 selected
  * @retval HAL status
  */
HAL_StatusTypeDef HAL_TIM_PWM_Start(TIM_HandleTypeDef *htim, uint32_t Channel)
{
 8005f60:	b580      	push	{r7, lr}
 8005f62:	b084      	sub	sp, #16
 8005f64:	af00      	add	r7, sp, #0
 8005f66:	6078      	str	r0, [r7, #4]
 8005f68:	6039      	str	r1, [r7, #0]

  /* Check the parameters */
  assert_param(IS_TIM_CCX_INSTANCE(htim->Instance, Channel));

  /* Check the TIM channel state */
  if (TIM_CHANNEL_STATE_GET(htim, Channel) != HAL_TIM_CHANNEL_STATE_READY)
 8005f6a:	683b      	ldr	r3, [r7, #0]
 8005f6c:	2b00      	cmp	r3, #0
 8005f6e:	d109      	bne.n	8005f84 <HAL_TIM_PWM_Start+0x24>
 8005f70:	687b      	ldr	r3, [r7, #4]
 8005f72:	f893 303e 	ldrb.w	r3, [r3, #62]	@ 0x3e
 8005f76:	b2db      	uxtb	r3, r3
 8005f78:	2b01      	cmp	r3, #1
 8005f7a:	bf14      	ite	ne
 8005f7c:	2301      	movne	r3, #1
 8005f7e:	2300      	moveq	r3, #0
 8005f80:	b2db      	uxtb	r3, r3
 8005f82:	e022      	b.n	8005fca <HAL_TIM_PWM_Start+0x6a>
 8005f84:	683b      	ldr	r3, [r7, #0]
 8005f86:	2b04      	cmp	r3, #4
 8005f88:	d109      	bne.n	8005f9e <HAL_TIM_PWM_Start+0x3e>
 8005f8a:	687b      	ldr	r3, [r7, #4]
 8005f8c:	f893 303f 	ldrb.w	r3, [r3, #63]	@ 0x3f
 8005f90:	b2db      	uxtb	r3, r3
 8005f92:	2b01      	cmp	r3, #1
 8005f94:	bf14      	ite	ne
 8005f96:	2301      	movne	r3, #1
 8005f98:	2300      	moveq	r3, #0
 8005f9a:	b2db      	uxtb	r3, r3
 8005f9c:	e015      	b.n	8005fca <HAL_TIM_PWM_Start+0x6a>
 8005f9e:	683b      	ldr	r3, [r7, #0]
 8005fa0:	2b08      	cmp	r3, #8
 8005fa2:	d109      	bne.n	8005fb8 <HAL_TIM_PWM_Start+0x58>
 8005fa4:	687b      	ldr	r3, [r7, #4]
 8005fa6:	f893 3040 	ldrb.w	r3, [r3, #64]	@ 0x40
 8005faa:	b2db      	uxtb	r3, r3
 8005fac:	2b01      	cmp	r3, #1
 8005fae:	bf14      	ite	ne
 8005fb0:	2301      	movne	r3, #1
 8005fb2:	2300      	moveq	r3, #0
 8005fb4:	b2db      	uxtb	r3, r3
 8005fb6:	e008      	b.n	8005fca <HAL_TIM_PWM_Start+0x6a>
 8005fb8:	687b      	ldr	r3, [r7, #4]
 8005fba:	f893 3041 	ldrb.w	r3, [r3, #65]	@ 0x41
 8005fbe:	b2db      	uxtb	r3, r3
 8005fc0:	2b01      	cmp	r3, #1
 8005fc2:	bf14      	ite	ne
 8005fc4:	2301      	movne	r3, #1
 8005fc6:	2300      	moveq	r3, #0
 8005fc8:	b2db      	uxtb	r3, r3
 8005fca:	2b00      	cmp	r3, #0
 8005fcc:	d001      	beq.n	8005fd2 <HAL_TIM_PWM_Start+0x72>
  {
    return HAL_ERROR;
 8005fce:	2301      	movs	r3, #1
 8005fd0:	e05e      	b.n	8006090 <HAL_TIM_PWM_Start+0x130>
  }

  /* Set the TIM channel state */
  TIM_CHANNEL_STATE_SET(htim, Channel, HAL_TIM_CHANNEL_STATE_BUSY);
 8005fd2:	683b      	ldr	r3, [r7, #0]
 8005fd4:	2b00      	cmp	r3, #0
 8005fd6:	d104      	bne.n	8005fe2 <HAL_TIM_PWM_Start+0x82>
 8005fd8:	687b      	ldr	r3, [r7, #4]
 8005fda:	2202      	movs	r2, #2
 8005fdc:	f883 203e 	strb.w	r2, [r3, #62]	@ 0x3e
 8005fe0:	e013      	b.n	800600a <HAL_TIM_PWM_Start+0xaa>
 8005fe2:	683b      	ldr	r3, [r7, #0]
 8005fe4:	2b04      	cmp	r3, #4
 8005fe6:	d104      	bne.n	8005ff2 <HAL_TIM_PWM_Start+0x92>
 8005fe8:	687b      	ldr	r3, [r7, #4]
 8005fea:	2202      	movs	r2, #2
 8005fec:	f883 203f 	strb.w	r2, [r3, #63]	@ 0x3f
 8005ff0:	e00b      	b.n	800600a <HAL_TIM_PWM_Start+0xaa>
 8005ff2:	683b      	ldr	r3, [r7, #0]
 8005ff4:	2b08      	cmp	r3, #8
 8005ff6:	d104      	bne.n	8006002 <HAL_TIM_PWM_Start+0xa2>
 8005ff8:	687b      	ldr	r3, [r7, #4]
 8005ffa:	2202      	movs	r2, #2
 8005ffc:	f883 2040 	strb.w	r2, [r3, #64]	@ 0x40
 8006000:	e003      	b.n	800600a <HAL_TIM_PWM_Start+0xaa>
 8006002:	687b      	ldr	r3, [r7, #4]
 8006004:	2202      	movs	r2, #2
 8006006:	f883 2041 	strb.w	r2, [r3, #65]	@ 0x41

  /* Enable the Capture compare channel */
  TIM_CCxChannelCmd(htim->Instance, Channel, TIM_CCx_ENABLE);
 800600a:	687b      	ldr	r3, [r7, #4]
 800600c:	681b      	ldr	r3, [r3, #0]
 800600e:	2201      	movs	r2, #1
 8006010:	6839      	ldr	r1, [r7, #0]
 8006012:	4618      	mov	r0, r3
 8006014:	f000 fd8c 	bl	8006b30 <TIM_CCxChannelCmd>

  if (IS_TIM_BREAK_INSTANCE(htim->Instance) != RESET)
 8006018:	687b      	ldr	r3, [r7, #4]
 800601a:	681b      	ldr	r3, [r3, #0]
 800601c:	4a1e      	ldr	r2, [pc, #120]	@ (8006098 <HAL_TIM_PWM_Start+0x138>)
 800601e:	4293      	cmp	r3, r2
 8006020:	d107      	bne.n	8006032 <HAL_TIM_PWM_Start+0xd2>
  {
    /* Enable the main output */
    __HAL_TIM_MOE_ENABLE(htim);
 8006022:	687b      	ldr	r3, [r7, #4]
 8006024:	681b      	ldr	r3, [r3, #0]
 8006026:	6c5a      	ldr	r2, [r3, #68]	@ 0x44
 8006028:	687b      	ldr	r3, [r7, #4]
 800602a:	681b      	ldr	r3, [r3, #0]
 800602c:	f442 4200 	orr.w	r2, r2, #32768	@ 0x8000
 8006030:	645a      	str	r2, [r3, #68]	@ 0x44
  }

  /* Enable the Peripheral, except in trigger mode where enable is automatically done with trigger */
  if (IS_TIM_SLAVE_INSTANCE(htim->Instance))
 8006032:	687b      	ldr	r3, [r7, #4]
 8006034:	681b      	ldr	r3, [r3, #0]
 8006036:	4a18      	ldr	r2, [pc, #96]	@ (8006098 <HAL_TIM_PWM_Start+0x138>)
 8006038:	4293      	cmp	r3, r2
 800603a:	d00e      	beq.n	800605a <HAL_TIM_PWM_Start+0xfa>
 800603c:	687b      	ldr	r3, [r7, #4]
 800603e:	681b      	ldr	r3, [r3, #0]
 8006040:	f1b3 4f80 	cmp.w	r3, #1073741824	@ 0x40000000
 8006044:	d009      	beq.n	800605a <HAL_TIM_PWM_Start+0xfa>
 8006046:	687b      	ldr	r3, [r7, #4]
 8006048:	681b      	ldr	r3, [r3, #0]
 800604a:	4a14      	ldr	r2, [pc, #80]	@ (800609c <HAL_TIM_PWM_Start+0x13c>)
 800604c:	4293      	cmp	r3, r2
 800604e:	d004      	beq.n	800605a <HAL_TIM_PWM_Start+0xfa>
 8006050:	687b      	ldr	r3, [r7, #4]
 8006052:	681b      	ldr	r3, [r3, #0]
 8006054:	4a12      	ldr	r2, [pc, #72]	@ (80060a0 <HAL_TIM_PWM_Start+0x140>)
 8006056:	4293      	cmp	r3, r2
 8006058:	d111      	bne.n	800607e <HAL_TIM_PWM_Start+0x11e>
  {
    tmpsmcr = htim->Instance->SMCR & TIM_SMCR_SMS;
 800605a:	687b      	ldr	r3, [r7, #4]
 800605c:	681b      	ldr	r3, [r3, #0]
 800605e:	689b      	ldr	r3, [r3, #8]
 8006060:	f003 0307 	and.w	r3, r3, #7
 8006064:	60fb      	str	r3, [r7, #12]
    if (!IS_TIM_SLAVEMODE_TRIGGER_ENABLED(tmpsmcr))
 8006066:	68fb      	ldr	r3, [r7, #12]
 8006068:	2b06      	cmp	r3, #6
 800606a:	d010      	beq.n	800608e <HAL_TIM_PWM_Start+0x12e>
    {
      __HAL_TIM_ENABLE(htim);
 800606c:	687b      	ldr	r3, [r7, #4]
 800606e:	681b      	ldr	r3, [r3, #0]
 8006070:	681a      	ldr	r2, [r3, #0]
 8006072:	687b      	ldr	r3, [r7, #4]
 8006074:	681b      	ldr	r3, [r3, #0]
 8006076:	f042 0201 	orr.w	r2, r2, #1
 800607a:	601a      	str	r2, [r3, #0]
    if (!IS_TIM_SLAVEMODE_TRIGGER_ENABLED(tmpsmcr))
 800607c:	e007      	b.n	800608e <HAL_TIM_PWM_Start+0x12e>
    }
  }
  else
  {
    __HAL_TIM_ENABLE(htim);
 800607e:	687b      	ldr	r3, [r7, #4]
 8006080:	681b      	ldr	r3, [r3, #0]
 8006082:	681a      	ldr	r2, [r3, #0]
 8006084:	687b      	ldr	r3, [r7, #4]
 8006086:	681b      	ldr	r3, [r3, #0]
 8006088:	f042 0201 	orr.w	r2, r2, #1
 800608c:	601a      	str	r2, [r3, #0]
  }

  /* Return function status */
  return HAL_OK;
 800608e:	2300      	movs	r3, #0
}
 8006090:	4618      	mov	r0, r3
 8006092:	3710      	adds	r7, #16
 8006094:	46bd      	mov	sp, r7
 8006096:	bd80      	pop	{r7, pc}
 8006098:	40012c00 	.word	0x40012c00
 800609c:	40000400 	.word	0x40000400
 80060a0:	40000800 	.word	0x40000800

080060a4 <HAL_TIM_Encoder_Init>:
  * @param  htim TIM Encoder Interface handle
  * @param  sConfig TIM Encoder Interface configuration structure
  * @retval HAL status
  */
HAL_StatusTypeDef HAL_TIM_Encoder_Init(TIM_HandleTypeDef *htim, const TIM_Encoder_InitTypeDef *sConfig)
{
 80060a4:	b580      	push	{r7, lr}
 80060a6:	b086      	sub	sp, #24
 80060a8:	af00      	add	r7, sp, #0
 80060aa:	6078      	str	r0, [r7, #4]
 80060ac:	6039      	str	r1, [r7, #0]
  uint32_t tmpsmcr;
  uint32_t tmpccmr1;
  uint32_t tmpccer;

  /* Check the TIM handle allocation */
  if (htim == NULL)
 80060ae:	687b      	ldr	r3, [r7, #4]
 80060b0:	2b00      	cmp	r3, #0
 80060b2:	d101      	bne.n	80060b8 <HAL_TIM_Encoder_Init+0x14>
  {
    return HAL_ERROR;
 80060b4:	2301      	movs	r3, #1
 80060b6:	e093      	b.n	80061e0 <HAL_TIM_Encoder_Init+0x13c>
  assert_param(IS_TIM_IC_PRESCALER(sConfig->IC2Prescaler));
  assert_param(IS_TIM_IC_FILTER(sConfig->IC1Filter));
  assert_param(IS_TIM_IC_FILTER(sConfig->IC2Filter));
  assert_param(IS_TIM_PERIOD(htim->Init.Period));

  if (htim->State == HAL_TIM_STATE_RESET)
 80060b8:	687b      	ldr	r3, [r7, #4]
 80060ba:	f893 303d 	ldrb.w	r3, [r3, #61]	@ 0x3d
 80060be:	b2db      	uxtb	r3, r3
 80060c0:	2b00      	cmp	r3, #0
 80060c2:	d106      	bne.n	80060d2 <HAL_TIM_Encoder_Init+0x2e>
  {
    /* Allocate lock resource and initialize it */
    htim->Lock = HAL_UNLOCKED;
 80060c4:	687b      	ldr	r3, [r7, #4]
 80060c6:	2200      	movs	r2, #0
 80060c8:	f883 203c 	strb.w	r2, [r3, #60]	@ 0x3c
    }
    /* Init the low level hardware : GPIO, CLOCK, NVIC */
    htim->Encoder_MspInitCallback(htim);
#else
    /* Init the low level hardware : GPIO, CLOCK, NVIC and DMA */
    HAL_TIM_Encoder_MspInit(htim);
 80060cc:	6878      	ldr	r0, [r7, #4]
 80060ce:	f7fe f8b3 	bl	8004238 <HAL_TIM_Encoder_MspInit>
#endif /* USE_HAL_TIM_REGISTER_CALLBACKS */
  }

  /* Set the TIM state */
  htim->State = HAL_TIM_STATE_BUSY;
 80060d2:	687b      	ldr	r3, [r7, #4]
 80060d4:	2202      	movs	r2, #2
 80060d6:	f883 203d 	strb.w	r2, [r3, #61]	@ 0x3d

  /* Reset the SMS and ECE bits */
  htim->Instance->SMCR &= ~(TIM_SMCR_SMS | TIM_SMCR_ECE);
 80060da:	687b      	ldr	r3, [r7, #4]
 80060dc:	681b      	ldr	r3, [r3, #0]
 80060de:	689b      	ldr	r3, [r3, #8]
 80060e0:	687a      	ldr	r2, [r7, #4]
 80060e2:	6812      	ldr	r2, [r2, #0]
 80060e4:	f423 4380 	bic.w	r3, r3, #16384	@ 0x4000
 80060e8:	f023 0307 	bic.w	r3, r3, #7
 80060ec:	6093      	str	r3, [r2, #8]

  /* Configure the Time base in the Encoder Mode */
  TIM_Base_SetConfig(htim->Instance, &htim->Init);
 80060ee:	687b      	ldr	r3, [r7, #4]
 80060f0:	681a      	ldr	r2, [r3, #0]
 80060f2:	687b      	ldr	r3, [r7, #4]
 80060f4:	3304      	adds	r3, #4
 80060f6:	4619      	mov	r1, r3
 80060f8:	4610      	mov	r0, r2
 80060fa:	f000 fa8d 	bl	8006618 <TIM_Base_SetConfig>

  /* Get the TIMx SMCR register value */
  tmpsmcr = htim->Instance->SMCR;
 80060fe:	687b      	ldr	r3, [r7, #4]
 8006100:	681b      	ldr	r3, [r3, #0]
 8006102:	689b      	ldr	r3, [r3, #8]
 8006104:	617b      	str	r3, [r7, #20]

  /* Get the TIMx CCMR1 register value */
  tmpccmr1 = htim->Instance->CCMR1;
 8006106:	687b      	ldr	r3, [r7, #4]
 8006108:	681b      	ldr	r3, [r3, #0]
 800610a:	699b      	ldr	r3, [r3, #24]
 800610c:	613b      	str	r3, [r7, #16]

  /* Get the TIMx CCER register value */
  tmpccer = htim->Instance->CCER;
 800610e:	687b      	ldr	r3, [r7, #4]
 8006110:	681b      	ldr	r3, [r3, #0]
 8006112:	6a1b      	ldr	r3, [r3, #32]
 8006114:	60fb      	str	r3, [r7, #12]

  /* Set the encoder Mode */
  tmpsmcr |= sConfig->EncoderMode;
 8006116:	683b      	ldr	r3, [r7, #0]
 8006118:	681b      	ldr	r3, [r3, #0]
 800611a:	697a      	ldr	r2, [r7, #20]
 800611c:	4313      	orrs	r3, r2
 800611e:	617b      	str	r3, [r7, #20]

  /* Select the Capture Compare 1 and the Capture Compare 2 as input */
  tmpccmr1 &= ~(TIM_CCMR1_CC1S | TIM_CCMR1_CC2S);
 8006120:	693b      	ldr	r3, [r7, #16]
 8006122:	f423 7340 	bic.w	r3, r3, #768	@ 0x300
 8006126:	f023 0303 	bic.w	r3, r3, #3
 800612a:	613b      	str	r3, [r7, #16]
  tmpccmr1 |= (sConfig->IC1Selection | (sConfig->IC2Selection << 8U));
 800612c:	683b      	ldr	r3, [r7, #0]
 800612e:	689a      	ldr	r2, [r3, #8]
 8006130:	683b      	ldr	r3, [r7, #0]
 8006132:	699b      	ldr	r3, [r3, #24]
 8006134:	021b      	lsls	r3, r3, #8
 8006136:	4313      	orrs	r3, r2
 8006138:	693a      	ldr	r2, [r7, #16]
 800613a:	4313      	orrs	r3, r2
 800613c:	613b      	str	r3, [r7, #16]

  /* Set the Capture Compare 1 and the Capture Compare 2 prescalers and filters */
  tmpccmr1 &= ~(TIM_CCMR1_IC1PSC | TIM_CCMR1_IC2PSC);
 800613e:	693b      	ldr	r3, [r7, #16]
 8006140:	f423 6340 	bic.w	r3, r3, #3072	@ 0xc00
 8006144:	f023 030c 	bic.w	r3, r3, #12
 8006148:	613b      	str	r3, [r7, #16]
  tmpccmr1 &= ~(TIM_CCMR1_IC1F | TIM_CCMR1_IC2F);
 800614a:	693b      	ldr	r3, [r7, #16]
 800614c:	f423 4370 	bic.w	r3, r3, #61440	@ 0xf000
 8006150:	f023 03f0 	bic.w	r3, r3, #240	@ 0xf0
 8006154:	613b      	str	r3, [r7, #16]
  tmpccmr1 |= sConfig->IC1Prescaler | (sConfig->IC2Prescaler << 8U);
 8006156:	683b      	ldr	r3, [r7, #0]
 8006158:	68da      	ldr	r2, [r3, #12]
 800615a:	683b      	ldr	r3, [r7, #0]
 800615c:	69db      	ldr	r3, [r3, #28]
 800615e:	021b      	lsls	r3, r3, #8
 8006160:	4313      	orrs	r3, r2
 8006162:	693a      	ldr	r2, [r7, #16]
 8006164:	4313      	orrs	r3, r2
 8006166:	613b      	str	r3, [r7, #16]
  tmpccmr1 |= (sConfig->IC1Filter << 4U) | (sConfig->IC2Filter << 12U);
 8006168:	683b      	ldr	r3, [r7, #0]
 800616a:	691b      	ldr	r3, [r3, #16]
 800616c:	011a      	lsls	r2, r3, #4
 800616e:	683b      	ldr	r3, [r7, #0]
 8006170:	6a1b      	ldr	r3, [r3, #32]
 8006172:	031b      	lsls	r3, r3, #12
 8006174:	4313      	orrs	r3, r2
 8006176:	693a      	ldr	r2, [r7, #16]
 8006178:	4313      	orrs	r3, r2
 800617a:	613b      	str	r3, [r7, #16]

  /* Set the TI1 and the TI2 Polarities */
  tmpccer &= ~(TIM_CCER_CC1P | TIM_CCER_CC2P);
 800617c:	68fb      	ldr	r3, [r7, #12]
 800617e:	f023 0322 	bic.w	r3, r3, #34	@ 0x22
 8006182:	60fb      	str	r3, [r7, #12]
  tmpccer |= sConfig->IC1Polarity | (sConfig->IC2Polarity << 4U);
 8006184:	683b      	ldr	r3, [r7, #0]
 8006186:	685a      	ldr	r2, [r3, #4]
 8006188:	683b      	ldr	r3, [r7, #0]
 800618a:	695b      	ldr	r3, [r3, #20]
 800618c:	011b      	lsls	r3, r3, #4
 800618e:	4313      	orrs	r3, r2
 8006190:	68fa      	ldr	r2, [r7, #12]
 8006192:	4313      	orrs	r3, r2
 8006194:	60fb      	str	r3, [r7, #12]

  /* Write to TIMx SMCR */
  htim->Instance->SMCR = tmpsmcr;
 8006196:	687b      	ldr	r3, [r7, #4]
 8006198:	681b      	ldr	r3, [r3, #0]
 800619a:	697a      	ldr	r2, [r7, #20]
 800619c:	609a      	str	r2, [r3, #8]

  /* Write to TIMx CCMR1 */
  htim->Instance->CCMR1 = tmpccmr1;
 800619e:	687b      	ldr	r3, [r7, #4]
 80061a0:	681b      	ldr	r3, [r3, #0]
 80061a2:	693a      	ldr	r2, [r7, #16]
 80061a4:	619a      	str	r2, [r3, #24]

  /* Write to TIMx CCER */
  htim->Instance->CCER = tmpccer;
 80061a6:	687b      	ldr	r3, [r7, #4]
 80061a8:	681b      	ldr	r3, [r3, #0]
 80061aa:	68fa      	ldr	r2, [r7, #12]
 80061ac:	621a      	str	r2, [r3, #32]

  /* Initialize the DMA burst operation state */
  htim->DMABurstState = HAL_DMA_BURST_STATE_READY;
 80061ae:	687b      	ldr	r3, [r7, #4]
 80061b0:	2201      	movs	r2, #1
 80061b2:	f883 2046 	strb.w	r2, [r3, #70]	@ 0x46

  /* Set the TIM channels state */
  TIM_CHANNEL_STATE_SET(htim, TIM_CHANNEL_1, HAL_TIM_CHANNEL_STATE_READY);
 80061b6:	687b      	ldr	r3, [r7, #4]
 80061b8:	2201      	movs	r2, #1
 80061ba:	f883 203e 	strb.w	r2, [r3, #62]	@ 0x3e
  TIM_CHANNEL_STATE_SET(htim, TIM_CHANNEL_2, HAL_TIM_CHANNEL_STATE_READY);
 80061be:	687b      	ldr	r3, [r7, #4]
 80061c0:	2201      	movs	r2, #1
 80061c2:	f883 203f 	strb.w	r2, [r3, #63]	@ 0x3f
  TIM_CHANNEL_N_STATE_SET(htim, TIM_CHANNEL_1, HAL_TIM_CHANNEL_STATE_READY);
 80061c6:	687b      	ldr	r3, [r7, #4]
 80061c8:	2201      	movs	r2, #1
 80061ca:	f883 2042 	strb.w	r2, [r3, #66]	@ 0x42
  TIM_CHANNEL_N_STATE_SET(htim, TIM_CHANNEL_2, HAL_TIM_CHANNEL_STATE_READY);
 80061ce:	687b      	ldr	r3, [r7, #4]
 80061d0:	2201      	movs	r2, #1
 80061d2:	f883 2043 	strb.w	r2, [r3, #67]	@ 0x43

  /* Initialize the TIM state*/
  htim->State = HAL_TIM_STATE_READY;
 80061d6:	687b      	ldr	r3, [r7, #4]
 80061d8:	2201      	movs	r2, #1
 80061da:	f883 203d 	strb.w	r2, [r3, #61]	@ 0x3d

  return HAL_OK;
 80061de:	2300      	movs	r3, #0
}
 80061e0:	4618      	mov	r0, r3
 80061e2:	3718      	adds	r7, #24
 80061e4:	46bd      	mov	sp, r7
 80061e6:	bd80      	pop	{r7, pc}

080061e8 <HAL_TIM_Encoder_Start>:
  *            @arg TIM_CHANNEL_2: TIM Channel 2 selected
  *            @arg TIM_CHANNEL_ALL: TIM Channel 1 and TIM Channel 2 are selected
  * @retval HAL status
  */
HAL_StatusTypeDef HAL_TIM_Encoder_Start(TIM_HandleTypeDef *htim, uint32_t Channel)
{
 80061e8:	b580      	push	{r7, lr}
 80061ea:	b084      	sub	sp, #16
 80061ec:	af00      	add	r7, sp, #0
 80061ee:	6078      	str	r0, [r7, #4]
 80061f0:	6039      	str	r1, [r7, #0]
  HAL_TIM_ChannelStateTypeDef channel_1_state = TIM_CHANNEL_STATE_GET(htim, TIM_CHANNEL_1);
 80061f2:	687b      	ldr	r3, [r7, #4]
 80061f4:	f893 303e 	ldrb.w	r3, [r3, #62]	@ 0x3e
 80061f8:	73fb      	strb	r3, [r7, #15]
  HAL_TIM_ChannelStateTypeDef channel_2_state = TIM_CHANNEL_STATE_GET(htim, TIM_CHANNEL_2);
 80061fa:	687b      	ldr	r3, [r7, #4]
 80061fc:	f893 303f 	ldrb.w	r3, [r3, #63]	@ 0x3f
 8006200:	73bb      	strb	r3, [r7, #14]
  HAL_TIM_ChannelStateTypeDef complementary_channel_1_state = TIM_CHANNEL_N_STATE_GET(htim, TIM_CHANNEL_1);
 8006202:	687b      	ldr	r3, [r7, #4]
 8006204:	f893 3042 	ldrb.w	r3, [r3, #66]	@ 0x42
 8006208:	737b      	strb	r3, [r7, #13]
  HAL_TIM_ChannelStateTypeDef complementary_channel_2_state = TIM_CHANNEL_N_STATE_GET(htim, TIM_CHANNEL_2);
 800620a:	687b      	ldr	r3, [r7, #4]
 800620c:	f893 3043 	ldrb.w	r3, [r3, #67]	@ 0x43
 8006210:	733b      	strb	r3, [r7, #12]

  /* Check the parameters */
  assert_param(IS_TIM_ENCODER_INTERFACE_INSTANCE(htim->Instance));

  /* Set the TIM channel(s) state */
  if (Channel == TIM_CHANNEL_1)
 8006212:	683b      	ldr	r3, [r7, #0]
 8006214:	2b00      	cmp	r3, #0
 8006216:	d110      	bne.n	800623a <HAL_TIM_Encoder_Start+0x52>
  {
    if ((channel_1_state != HAL_TIM_CHANNEL_STATE_READY)
 8006218:	7bfb      	ldrb	r3, [r7, #15]
 800621a:	2b01      	cmp	r3, #1
 800621c:	d102      	bne.n	8006224 <HAL_TIM_Encoder_Start+0x3c>
        || (complementary_channel_1_state != HAL_TIM_CHANNEL_STATE_READY))
 800621e:	7b7b      	ldrb	r3, [r7, #13]
 8006220:	2b01      	cmp	r3, #1
 8006222:	d001      	beq.n	8006228 <HAL_TIM_Encoder_Start+0x40>
    {
      return HAL_ERROR;
 8006224:	2301      	movs	r3, #1
 8006226:	e069      	b.n	80062fc <HAL_TIM_Encoder_Start+0x114>
    }
    else
    {
      TIM_CHANNEL_STATE_SET(htim, TIM_CHANNEL_1, HAL_TIM_CHANNEL_STATE_BUSY);
 8006228:	687b      	ldr	r3, [r7, #4]
 800622a:	2202      	movs	r2, #2
 800622c:	f883 203e 	strb.w	r2, [r3, #62]	@ 0x3e
      TIM_CHANNEL_N_STATE_SET(htim, TIM_CHANNEL_1, HAL_TIM_CHANNEL_STATE_BUSY);
 8006230:	687b      	ldr	r3, [r7, #4]
 8006232:	2202      	movs	r2, #2
 8006234:	f883 2042 	strb.w	r2, [r3, #66]	@ 0x42
 8006238:	e031      	b.n	800629e <HAL_TIM_Encoder_Start+0xb6>
    }
  }
  else if (Channel == TIM_CHANNEL_2)
 800623a:	683b      	ldr	r3, [r7, #0]
 800623c:	2b04      	cmp	r3, #4
 800623e:	d110      	bne.n	8006262 <HAL_TIM_Encoder_Start+0x7a>
  {
    if ((channel_2_state != HAL_TIM_CHANNEL_STATE_READY)
 8006240:	7bbb      	ldrb	r3, [r7, #14]
 8006242:	2b01      	cmp	r3, #1
 8006244:	d102      	bne.n	800624c <HAL_TIM_Encoder_Start+0x64>
        || (complementary_channel_2_state != HAL_TIM_CHANNEL_STATE_READY))
 8006246:	7b3b      	ldrb	r3, [r7, #12]
 8006248:	2b01      	cmp	r3, #1
 800624a:	d001      	beq.n	8006250 <HAL_TIM_Encoder_Start+0x68>
    {
      return HAL_ERROR;
 800624c:	2301      	movs	r3, #1
 800624e:	e055      	b.n	80062fc <HAL_TIM_Encoder_Start+0x114>
    }
    else
    {
      TIM_CHANNEL_STATE_SET(htim, TIM_CHANNEL_2, HAL_TIM_CHANNEL_STATE_BUSY);
 8006250:	687b      	ldr	r3, [r7, #4]
 8006252:	2202      	movs	r2, #2
 8006254:	f883 203f 	strb.w	r2, [r3, #63]	@ 0x3f
      TIM_CHANNEL_N_STATE_SET(htim, TIM_CHANNEL_2, HAL_TIM_CHANNEL_STATE_BUSY);
 8006258:	687b      	ldr	r3, [r7, #4]
 800625a:	2202      	movs	r2, #2
 800625c:	f883 2043 	strb.w	r2, [r3, #67]	@ 0x43
 8006260:	e01d      	b.n	800629e <HAL_TIM_Encoder_Start+0xb6>
    }
  }
  else
  {
    if ((channel_1_state != HAL_TIM_CHANNEL_STATE_READY)
 8006262:	7bfb      	ldrb	r3, [r7, #15]
 8006264:	2b01      	cmp	r3, #1
 8006266:	d108      	bne.n	800627a <HAL_TIM_Encoder_Start+0x92>
        || (channel_2_state != HAL_TIM_CHANNEL_STATE_READY)
 8006268:	7bbb      	ldrb	r3, [r7, #14]
 800626a:	2b01      	cmp	r3, #1
 800626c:	d105      	bne.n	800627a <HAL_TIM_Encoder_Start+0x92>
        || (complementary_channel_1_state != HAL_TIM_CHANNEL_STATE_READY)
 800626e:	7b7b      	ldrb	r3, [r7, #13]
 8006270:	2b01      	cmp	r3, #1
 8006272:	d102      	bne.n	800627a <HAL_TIM_Encoder_Start+0x92>
        || (complementary_channel_2_state != HAL_TIM_CHANNEL_STATE_READY))
 8006274:	7b3b      	ldrb	r3, [r7, #12]
 8006276:	2b01      	cmp	r3, #1
 8006278:	d001      	beq.n	800627e <HAL_TIM_Encoder_Start+0x96>
    {
      return HAL_ERROR;
 800627a:	2301      	movs	r3, #1
 800627c:	e03e      	b.n	80062fc <HAL_TIM_Encoder_Start+0x114>
    }
    else
    {
      TIM_CHANNEL_STATE_SET(htim, TIM_CHANNEL_1, HAL_TIM_CHANNEL_STATE_BUSY);
 800627e:	687b      	ldr	r3, [r7, #4]
 8006280:	2202      	movs	r2, #2
 8006282:	f883 203e 	strb.w	r2, [r3, #62]	@ 0x3e
      TIM_CHANNEL_STATE_SET(htim, TIM_CHANNEL_2, HAL_TIM_CHANNEL_STATE_BUSY);
 8006286:	687b      	ldr	r3, [r7, #4]
 8006288:	2202      	movs	r2, #2
 800628a:	f883 203f 	strb.w	r2, [r3, #63]	@ 0x3f
      TIM_CHANNEL_N_STATE_SET(htim, TIM_CHANNEL_1, HAL_TIM_CHANNEL_STATE_BUSY);
 800628e:	687b      	ldr	r3, [r7, #4]
 8006290:	2202      	movs	r2, #2
 8006292:	f883 2042 	strb.w	r2, [r3, #66]	@ 0x42
      TIM_CHANNEL_N_STATE_SET(htim, TIM_CHANNEL_2, HAL_TIM_CHANNEL_STATE_BUSY);
 8006296:	687b      	ldr	r3, [r7, #4]
 8006298:	2202      	movs	r2, #2
 800629a:	f883 2043 	strb.w	r2, [r3, #67]	@ 0x43
    }
  }

  /* Enable the encoder interface channels */
  switch (Channel)
 800629e:	683b      	ldr	r3, [r7, #0]
 80062a0:	2b00      	cmp	r3, #0
 80062a2:	d003      	beq.n	80062ac <HAL_TIM_Encoder_Start+0xc4>
 80062a4:	683b      	ldr	r3, [r7, #0]
 80062a6:	2b04      	cmp	r3, #4
 80062a8:	d008      	beq.n	80062bc <HAL_TIM_Encoder_Start+0xd4>
 80062aa:	e00f      	b.n	80062cc <HAL_TIM_Encoder_Start+0xe4>
  {
    case TIM_CHANNEL_1:
    {
      TIM_CCxChannelCmd(htim->Instance, TIM_CHANNEL_1, TIM_CCx_ENABLE);
 80062ac:	687b      	ldr	r3, [r7, #4]
 80062ae:	681b      	ldr	r3, [r3, #0]
 80062b0:	2201      	movs	r2, #1
 80062b2:	2100      	movs	r1, #0
 80062b4:	4618      	mov	r0, r3
 80062b6:	f000 fc3b 	bl	8006b30 <TIM_CCxChannelCmd>
      break;
 80062ba:	e016      	b.n	80062ea <HAL_TIM_Encoder_Start+0x102>
    }

    case TIM_CHANNEL_2:
    {
      TIM_CCxChannelCmd(htim->Instance, TIM_CHANNEL_2, TIM_CCx_ENABLE);
 80062bc:	687b      	ldr	r3, [r7, #4]
 80062be:	681b      	ldr	r3, [r3, #0]
 80062c0:	2201      	movs	r2, #1
 80062c2:	2104      	movs	r1, #4
 80062c4:	4618      	mov	r0, r3
 80062c6:	f000 fc33 	bl	8006b30 <TIM_CCxChannelCmd>
      break;
 80062ca:	e00e      	b.n	80062ea <HAL_TIM_Encoder_Start+0x102>
    }

    default :
    {
      TIM_CCxChannelCmd(htim->Instance, TIM_CHANNEL_1, TIM_CCx_ENABLE);
 80062cc:	687b      	ldr	r3, [r7, #4]
 80062ce:	681b      	ldr	r3, [r3, #0]
 80062d0:	2201      	movs	r2, #1
 80062d2:	2100      	movs	r1, #0
 80062d4:	4618      	mov	r0, r3
 80062d6:	f000 fc2b 	bl	8006b30 <TIM_CCxChannelCmd>
      TIM_CCxChannelCmd(htim->Instance, TIM_CHANNEL_2, TIM_CCx_ENABLE);
 80062da:	687b      	ldr	r3, [r7, #4]
 80062dc:	681b      	ldr	r3, [r3, #0]
 80062de:	2201      	movs	r2, #1
 80062e0:	2104      	movs	r1, #4
 80062e2:	4618      	mov	r0, r3
 80062e4:	f000 fc24 	bl	8006b30 <TIM_CCxChannelCmd>
      break;
 80062e8:	bf00      	nop
    }
  }
  /* Enable the Peripheral */
  __HAL_TIM_ENABLE(htim);
 80062ea:	687b      	ldr	r3, [r7, #4]
 80062ec:	681b      	ldr	r3, [r3, #0]
 80062ee:	681a      	ldr	r2, [r3, #0]
 80062f0:	687b      	ldr	r3, [r7, #4]
 80062f2:	681b      	ldr	r3, [r3, #0]
 80062f4:	f042 0201 	orr.w	r2, r2, #1
 80062f8:	601a      	str	r2, [r3, #0]

  /* Return function status */
  return HAL_OK;
 80062fa:	2300      	movs	r3, #0
}
 80062fc:	4618      	mov	r0, r3
 80062fe:	3710      	adds	r7, #16
 8006300:	46bd      	mov	sp, r7
 8006302:	bd80      	pop	{r7, pc}

08006304 <HAL_TIM_PWM_ConfigChannel>:
  * @retval HAL status
  */
HAL_StatusTypeDef HAL_TIM_PWM_ConfigChannel(TIM_HandleTypeDef *htim,
                                            const TIM_OC_InitTypeDef *sConfig,
                                            uint32_t Channel)
{
 8006304:	b580      	push	{r7, lr}
 8006306:	b086      	sub	sp, #24
 8006308:	af00      	add	r7, sp, #0
 800630a:	60f8      	str	r0, [r7, #12]
 800630c:	60b9      	str	r1, [r7, #8]
 800630e:	607a      	str	r2, [r7, #4]
  HAL_StatusTypeDef status = HAL_OK;
 8006310:	2300      	movs	r3, #0
 8006312:	75fb      	strb	r3, [r7, #23]
  assert_param(IS_TIM_PWM_MODE(sConfig->OCMode));
  assert_param(IS_TIM_OC_POLARITY(sConfig->OCPolarity));
  assert_param(IS_TIM_FAST_STATE(sConfig->OCFastMode));

  /* Process Locked */
  __HAL_LOCK(htim);
 8006314:	68fb      	ldr	r3, [r7, #12]
 8006316:	f893 303c 	ldrb.w	r3, [r3, #60]	@ 0x3c
 800631a:	2b01      	cmp	r3, #1
 800631c:	d101      	bne.n	8006322 <HAL_TIM_PWM_ConfigChannel+0x1e>
 800631e:	2302      	movs	r3, #2
 8006320:	e0ae      	b.n	8006480 <HAL_TIM_PWM_ConfigChannel+0x17c>
 8006322:	68fb      	ldr	r3, [r7, #12]
 8006324:	2201      	movs	r2, #1
 8006326:	f883 203c 	strb.w	r2, [r3, #60]	@ 0x3c

  switch (Channel)
 800632a:	687b      	ldr	r3, [r7, #4]
 800632c:	2b0c      	cmp	r3, #12
 800632e:	f200 809f 	bhi.w	8006470 <HAL_TIM_PWM_ConfigChannel+0x16c>
 8006332:	a201      	add	r2, pc, #4	@ (adr r2, 8006338 <HAL_TIM_PWM_ConfigChannel+0x34>)
 8006334:	f852 f023 	ldr.w	pc, [r2, r3, lsl #2]
 8006338:	0800636d 	.word	0x0800636d
 800633c:	08006471 	.word	0x08006471
 8006340:	08006471 	.word	0x08006471
 8006344:	08006471 	.word	0x08006471
 8006348:	080063ad 	.word	0x080063ad
 800634c:	08006471 	.word	0x08006471
 8006350:	08006471 	.word	0x08006471
 8006354:	08006471 	.word	0x08006471
 8006358:	080063ef 	.word	0x080063ef
 800635c:	08006471 	.word	0x08006471
 8006360:	08006471 	.word	0x08006471
 8006364:	08006471 	.word	0x08006471
 8006368:	0800642f 	.word	0x0800642f
    {
      /* Check the parameters */
      assert_param(IS_TIM_CC1_INSTANCE(htim->Instance));

      /* Configure the Channel 1 in PWM mode */
      TIM_OC1_SetConfig(htim->Instance, sConfig);
 800636c:	68fb      	ldr	r3, [r7, #12]
 800636e:	681b      	ldr	r3, [r3, #0]
 8006370:	68b9      	ldr	r1, [r7, #8]
 8006372:	4618      	mov	r0, r3
 8006374:	f000 f9be 	bl	80066f4 <TIM_OC1_SetConfig>

      /* Set the Preload enable bit for channel1 */
      htim->Instance->CCMR1 |= TIM_CCMR1_OC1PE;
 8006378:	68fb      	ldr	r3, [r7, #12]
 800637a:	681b      	ldr	r3, [r3, #0]
 800637c:	699a      	ldr	r2, [r3, #24]
 800637e:	68fb      	ldr	r3, [r7, #12]
 8006380:	681b      	ldr	r3, [r3, #0]
 8006382:	f042 0208 	orr.w	r2, r2, #8
 8006386:	619a      	str	r2, [r3, #24]

      /* Configure the Output Fast mode */
      htim->Instance->CCMR1 &= ~TIM_CCMR1_OC1FE;
 8006388:	68fb      	ldr	r3, [r7, #12]
 800638a:	681b      	ldr	r3, [r3, #0]
 800638c:	699a      	ldr	r2, [r3, #24]
 800638e:	68fb      	ldr	r3, [r7, #12]
 8006390:	681b      	ldr	r3, [r3, #0]
 8006392:	f022 0204 	bic.w	r2, r2, #4
 8006396:	619a      	str	r2, [r3, #24]
      htim->Instance->CCMR1 |= sConfig->OCFastMode;
 8006398:	68fb      	ldr	r3, [r7, #12]
 800639a:	681b      	ldr	r3, [r3, #0]
 800639c:	6999      	ldr	r1, [r3, #24]
 800639e:	68bb      	ldr	r3, [r7, #8]
 80063a0:	691a      	ldr	r2, [r3, #16]
 80063a2:	68fb      	ldr	r3, [r7, #12]
 80063a4:	681b      	ldr	r3, [r3, #0]
 80063a6:	430a      	orrs	r2, r1
 80063a8:	619a      	str	r2, [r3, #24]
      break;
 80063aa:	e064      	b.n	8006476 <HAL_TIM_PWM_ConfigChannel+0x172>
    {
      /* Check the parameters */
      assert_param(IS_TIM_CC2_INSTANCE(htim->Instance));

      /* Configure the Channel 2 in PWM mode */
      TIM_OC2_SetConfig(htim->Instance, sConfig);
 80063ac:	68fb      	ldr	r3, [r7, #12]
 80063ae:	681b      	ldr	r3, [r3, #0]
 80063b0:	68b9      	ldr	r1, [r7, #8]
 80063b2:	4618      	mov	r0, r3
 80063b4:	f000 fa04 	bl	80067c0 <TIM_OC2_SetConfig>

      /* Set the Preload enable bit for channel2 */
      htim->Instance->CCMR1 |= TIM_CCMR1_OC2PE;
 80063b8:	68fb      	ldr	r3, [r7, #12]
 80063ba:	681b      	ldr	r3, [r3, #0]
 80063bc:	699a      	ldr	r2, [r3, #24]
 80063be:	68fb      	ldr	r3, [r7, #12]
 80063c0:	681b      	ldr	r3, [r3, #0]
 80063c2:	f442 6200 	orr.w	r2, r2, #2048	@ 0x800
 80063c6:	619a      	str	r2, [r3, #24]

      /* Configure the Output Fast mode */
      htim->Instance->CCMR1 &= ~TIM_CCMR1_OC2FE;
 80063c8:	68fb      	ldr	r3, [r7, #12]
 80063ca:	681b      	ldr	r3, [r3, #0]
 80063cc:	699a      	ldr	r2, [r3, #24]
 80063ce:	68fb      	ldr	r3, [r7, #12]
 80063d0:	681b      	ldr	r3, [r3, #0]
 80063d2:	f422 6280 	bic.w	r2, r2, #1024	@ 0x400
 80063d6:	619a      	str	r2, [r3, #24]
      htim->Instance->CCMR1 |= sConfig->OCFastMode << 8U;
 80063d8:	68fb      	ldr	r3, [r7, #12]
 80063da:	681b      	ldr	r3, [r3, #0]
 80063dc:	6999      	ldr	r1, [r3, #24]
 80063de:	68bb      	ldr	r3, [r7, #8]
 80063e0:	691b      	ldr	r3, [r3, #16]
 80063e2:	021a      	lsls	r2, r3, #8
 80063e4:	68fb      	ldr	r3, [r7, #12]
 80063e6:	681b      	ldr	r3, [r3, #0]
 80063e8:	430a      	orrs	r2, r1
 80063ea:	619a      	str	r2, [r3, #24]
      break;
 80063ec:	e043      	b.n	8006476 <HAL_TIM_PWM_ConfigChannel+0x172>
    {
      /* Check the parameters */
      assert_param(IS_TIM_CC3_INSTANCE(htim->Instance));

      /* Configure the Channel 3 in PWM mode */
      TIM_OC3_SetConfig(htim->Instance, sConfig);
 80063ee:	68fb      	ldr	r3, [r7, #12]
 80063f0:	681b      	ldr	r3, [r3, #0]
 80063f2:	68b9      	ldr	r1, [r7, #8]
 80063f4:	4618      	mov	r0, r3
 80063f6:	f000 fa4d 	bl	8006894 <TIM_OC3_SetConfig>

      /* Set the Preload enable bit for channel3 */
      htim->Instance->CCMR2 |= TIM_CCMR2_OC3PE;
 80063fa:	68fb      	ldr	r3, [r7, #12]
 80063fc:	681b      	ldr	r3, [r3, #0]
 80063fe:	69da      	ldr	r2, [r3, #28]
 8006400:	68fb      	ldr	r3, [r7, #12]
 8006402:	681b      	ldr	r3, [r3, #0]
 8006404:	f042 0208 	orr.w	r2, r2, #8
 8006408:	61da      	str	r2, [r3, #28]

      /* Configure the Output Fast mode */
      htim->Instance->CCMR2 &= ~TIM_CCMR2_OC3FE;
 800640a:	68fb      	ldr	r3, [r7, #12]
 800640c:	681b      	ldr	r3, [r3, #0]
 800640e:	69da      	ldr	r2, [r3, #28]
 8006410:	68fb      	ldr	r3, [r7, #12]
 8006412:	681b      	ldr	r3, [r3, #0]
 8006414:	f022 0204 	bic.w	r2, r2, #4
 8006418:	61da      	str	r2, [r3, #28]
      htim->Instance->CCMR2 |= sConfig->OCFastMode;
 800641a:	68fb      	ldr	r3, [r7, #12]
 800641c:	681b      	ldr	r3, [r3, #0]
 800641e:	69d9      	ldr	r1, [r3, #28]
 8006420:	68bb      	ldr	r3, [r7, #8]
 8006422:	691a      	ldr	r2, [r3, #16]
 8006424:	68fb      	ldr	r3, [r7, #12]
 8006426:	681b      	ldr	r3, [r3, #0]
 8006428:	430a      	orrs	r2, r1
 800642a:	61da      	str	r2, [r3, #28]
      break;
 800642c:	e023      	b.n	8006476 <HAL_TIM_PWM_ConfigChannel+0x172>
    {
      /* Check the parameters */
      assert_param(IS_TIM_CC4_INSTANCE(htim->Instance));

      /* Configure the Channel 4 in PWM mode */
      TIM_OC4_SetConfig(htim->Instance, sConfig);
 800642e:	68fb      	ldr	r3, [r7, #12]
 8006430:	681b      	ldr	r3, [r3, #0]
 8006432:	68b9      	ldr	r1, [r7, #8]
 8006434:	4618      	mov	r0, r3
 8006436:	f000 fa97 	bl	8006968 <TIM_OC4_SetConfig>

      /* Set the Preload enable bit for channel4 */
      htim->Instance->CCMR2 |= TIM_CCMR2_OC4PE;
 800643a:	68fb      	ldr	r3, [r7, #12]
 800643c:	681b      	ldr	r3, [r3, #0]
 800643e:	69da      	ldr	r2, [r3, #28]
 8006440:	68fb      	ldr	r3, [r7, #12]
 8006442:	681b      	ldr	r3, [r3, #0]
 8006444:	f442 6200 	orr.w	r2, r2, #2048	@ 0x800
 8006448:	61da      	str	r2, [r3, #28]

      /* Configure the Output Fast mode */
      htim->Instance->CCMR2 &= ~TIM_CCMR2_OC4FE;
 800644a:	68fb      	ldr	r3, [r7, #12]
 800644c:	681b      	ldr	r3, [r3, #0]
 800644e:	69da      	ldr	r2, [r3, #28]
 8006450:	68fb      	ldr	r3, [r7, #12]
 8006452:	681b      	ldr	r3, [r3, #0]
 8006454:	f422 6280 	bic.w	r2, r2, #1024	@ 0x400
 8006458:	61da      	str	r2, [r3, #28]
      htim->Instance->CCMR2 |= sConfig->OCFastMode << 8U;
 800645a:	68fb      	ldr	r3, [r7, #12]
 800645c:	681b      	ldr	r3, [r3, #0]
 800645e:	69d9      	ldr	r1, [r3, #28]
 8006460:	68bb      	ldr	r3, [r7, #8]
 8006462:	691b      	ldr	r3, [r3, #16]
 8006464:	021a      	lsls	r2, r3, #8
 8006466:	68fb      	ldr	r3, [r7, #12]
 8006468:	681b      	ldr	r3, [r3, #0]
 800646a:	430a      	orrs	r2, r1
 800646c:	61da      	str	r2, [r3, #28]
      break;
 800646e:	e002      	b.n	8006476 <HAL_TIM_PWM_ConfigChannel+0x172>
    }

    default:
      status = HAL_ERROR;
 8006470:	2301      	movs	r3, #1
 8006472:	75fb      	strb	r3, [r7, #23]
      break;
 8006474:	bf00      	nop
  }

  __HAL_UNLOCK(htim);
 8006476:	68fb      	ldr	r3, [r7, #12]
 8006478:	2200      	movs	r2, #0
 800647a:	f883 203c 	strb.w	r2, [r3, #60]	@ 0x3c

  return status;
 800647e:	7dfb      	ldrb	r3, [r7, #23]
}
 8006480:	4618      	mov	r0, r3
 8006482:	3718      	adds	r7, #24
 8006484:	46bd      	mov	sp, r7
 8006486:	bd80      	pop	{r7, pc}

08006488 <HAL_TIM_ConfigClockSource>:
  * @param  sClockSourceConfig pointer to a TIM_ClockConfigTypeDef structure that
  *         contains the clock source information for the TIM peripheral.
  * @retval HAL status
  */
HAL_StatusTypeDef HAL_TIM_ConfigClockSource(TIM_HandleTypeDef *htim, const TIM_ClockConfigTypeDef *sClockSourceConfig)
{
 8006488:	b580      	push	{r7, lr}
 800648a:	b084      	sub	sp, #16
 800648c:	af00      	add	r7, sp, #0
 800648e:	6078      	str	r0, [r7, #4]
 8006490:	6039      	str	r1, [r7, #0]
  HAL_StatusTypeDef status = HAL_OK;
 8006492:	2300      	movs	r3, #0
 8006494:	73fb      	strb	r3, [r7, #15]
  uint32_t tmpsmcr;

  /* Process Locked */
  __HAL_LOCK(htim);
 8006496:	687b      	ldr	r3, [r7, #4]
 8006498:	f893 303c 	ldrb.w	r3, [r3, #60]	@ 0x3c
 800649c:	2b01      	cmp	r3, #1
 800649e:	d101      	bne.n	80064a4 <HAL_TIM_ConfigClockSource+0x1c>
 80064a0:	2302      	movs	r3, #2
 80064a2:	e0b4      	b.n	800660e <HAL_TIM_ConfigClockSource+0x186>
 80064a4:	687b      	ldr	r3, [r7, #4]
 80064a6:	2201      	movs	r2, #1
 80064a8:	f883 203c 	strb.w	r2, [r3, #60]	@ 0x3c

  htim->State = HAL_TIM_STATE_BUSY;
 80064ac:	687b      	ldr	r3, [r7, #4]
 80064ae:	2202      	movs	r2, #2
 80064b0:	f883 203d 	strb.w	r2, [r3, #61]	@ 0x3d

  /* Check the parameters */
  assert_param(IS_TIM_CLOCKSOURCE(sClockSourceConfig->ClockSource));

  /* Reset the SMS, TS, ECE, ETPS and ETRF bits */
  tmpsmcr = htim->Instance->SMCR;
 80064b4:	687b      	ldr	r3, [r7, #4]
 80064b6:	681b      	ldr	r3, [r3, #0]
 80064b8:	689b      	ldr	r3, [r3, #8]
 80064ba:	60bb      	str	r3, [r7, #8]
  tmpsmcr &= ~(TIM_SMCR_SMS | TIM_SMCR_TS);
 80064bc:	68bb      	ldr	r3, [r7, #8]
 80064be:	f023 0377 	bic.w	r3, r3, #119	@ 0x77
 80064c2:	60bb      	str	r3, [r7, #8]
  tmpsmcr &= ~(TIM_SMCR_ETF | TIM_SMCR_ETPS | TIM_SMCR_ECE | TIM_SMCR_ETP);
 80064c4:	68bb      	ldr	r3, [r7, #8]
 80064c6:	f423 437f 	bic.w	r3, r3, #65280	@ 0xff00
 80064ca:	60bb      	str	r3, [r7, #8]
  htim->Instance->SMCR = tmpsmcr;
 80064cc:	687b      	ldr	r3, [r7, #4]
 80064ce:	681b      	ldr	r3, [r3, #0]
 80064d0:	68ba      	ldr	r2, [r7, #8]
 80064d2:	609a      	str	r2, [r3, #8]

  switch (sClockSourceConfig->ClockSource)
 80064d4:	683b      	ldr	r3, [r7, #0]
 80064d6:	681b      	ldr	r3, [r3, #0]
 80064d8:	f5b3 5f00 	cmp.w	r3, #8192	@ 0x2000
 80064dc:	d03e      	beq.n	800655c <HAL_TIM_ConfigClockSource+0xd4>
 80064de:	f5b3 5f00 	cmp.w	r3, #8192	@ 0x2000
 80064e2:	f200 8087 	bhi.w	80065f4 <HAL_TIM_ConfigClockSource+0x16c>
 80064e6:	f5b3 5f80 	cmp.w	r3, #4096	@ 0x1000
 80064ea:	f000 8086 	beq.w	80065fa <HAL_TIM_ConfigClockSource+0x172>
 80064ee:	f5b3 5f80 	cmp.w	r3, #4096	@ 0x1000
 80064f2:	d87f      	bhi.n	80065f4 <HAL_TIM_ConfigClockSource+0x16c>
 80064f4:	2b70      	cmp	r3, #112	@ 0x70
 80064f6:	d01a      	beq.n	800652e <HAL_TIM_ConfigClockSource+0xa6>
 80064f8:	2b70      	cmp	r3, #112	@ 0x70
 80064fa:	d87b      	bhi.n	80065f4 <HAL_TIM_ConfigClockSource+0x16c>
 80064fc:	2b60      	cmp	r3, #96	@ 0x60
 80064fe:	d050      	beq.n	80065a2 <HAL_TIM_ConfigClockSource+0x11a>
 8006500:	2b60      	cmp	r3, #96	@ 0x60
 8006502:	d877      	bhi.n	80065f4 <HAL_TIM_ConfigClockSource+0x16c>
 8006504:	2b50      	cmp	r3, #80	@ 0x50
 8006506:	d03c      	beq.n	8006582 <HAL_TIM_ConfigClockSource+0xfa>
 8006508:	2b50      	cmp	r3, #80	@ 0x50
 800650a:	d873      	bhi.n	80065f4 <HAL_TIM_ConfigClockSource+0x16c>
 800650c:	2b40      	cmp	r3, #64	@ 0x40
 800650e:	d058      	beq.n	80065c2 <HAL_TIM_ConfigClockSource+0x13a>
 8006510:	2b40      	cmp	r3, #64	@ 0x40
 8006512:	d86f      	bhi.n	80065f4 <HAL_TIM_ConfigClockSource+0x16c>
 8006514:	2b30      	cmp	r3, #48	@ 0x30
 8006516:	d064      	beq.n	80065e2 <HAL_TIM_ConfigClockSource+0x15a>
 8006518:	2b30      	cmp	r3, #48	@ 0x30
 800651a:	d86b      	bhi.n	80065f4 <HAL_TIM_ConfigClockSource+0x16c>
 800651c:	2b20      	cmp	r3, #32
 800651e:	d060      	beq.n	80065e2 <HAL_TIM_ConfigClockSource+0x15a>
 8006520:	2b20      	cmp	r3, #32
 8006522:	d867      	bhi.n	80065f4 <HAL_TIM_ConfigClockSource+0x16c>
 8006524:	2b00      	cmp	r3, #0
 8006526:	d05c      	beq.n	80065e2 <HAL_TIM_ConfigClockSource+0x15a>
 8006528:	2b10      	cmp	r3, #16
 800652a:	d05a      	beq.n	80065e2 <HAL_TIM_ConfigClockSource+0x15a>
 800652c:	e062      	b.n	80065f4 <HAL_TIM_ConfigClockSource+0x16c>
      assert_param(IS_TIM_CLOCKPRESCALER(sClockSourceConfig->ClockPrescaler));
      assert_param(IS_TIM_CLOCKPOLARITY(sClockSourceConfig->ClockPolarity));
      assert_param(IS_TIM_CLOCKFILTER(sClockSourceConfig->ClockFilter));

      /* Configure the ETR Clock source */
      TIM_ETR_SetConfig(htim->Instance,
 800652e:	687b      	ldr	r3, [r7, #4]
 8006530:	6818      	ldr	r0, [r3, #0]
                        sClockSourceConfig->ClockPrescaler,
 8006532:	683b      	ldr	r3, [r7, #0]
 8006534:	6899      	ldr	r1, [r3, #8]
                        sClockSourceConfig->ClockPolarity,
 8006536:	683b      	ldr	r3, [r7, #0]
 8006538:	685a      	ldr	r2, [r3, #4]
                        sClockSourceConfig->ClockFilter);
 800653a:	683b      	ldr	r3, [r7, #0]
 800653c:	68db      	ldr	r3, [r3, #12]
      TIM_ETR_SetConfig(htim->Instance,
 800653e:	f000 fad8 	bl	8006af2 <TIM_ETR_SetConfig>

      /* Select the External clock mode1 and the ETRF trigger */
      tmpsmcr = htim->Instance->SMCR;
 8006542:	687b      	ldr	r3, [r7, #4]
 8006544:	681b      	ldr	r3, [r3, #0]
 8006546:	689b      	ldr	r3, [r3, #8]
 8006548:	60bb      	str	r3, [r7, #8]
      tmpsmcr |= (TIM_SLAVEMODE_EXTERNAL1 | TIM_CLOCKSOURCE_ETRMODE1);
 800654a:	68bb      	ldr	r3, [r7, #8]
 800654c:	f043 0377 	orr.w	r3, r3, #119	@ 0x77
 8006550:	60bb      	str	r3, [r7, #8]
      /* Write to TIMx SMCR */
      htim->Instance->SMCR = tmpsmcr;
 8006552:	687b      	ldr	r3, [r7, #4]
 8006554:	681b      	ldr	r3, [r3, #0]
 8006556:	68ba      	ldr	r2, [r7, #8]
 8006558:	609a      	str	r2, [r3, #8]
      break;
 800655a:	e04f      	b.n	80065fc <HAL_TIM_ConfigClockSource+0x174>
      assert_param(IS_TIM_CLOCKPRESCALER(sClockSourceConfig->ClockPrescaler));
      assert_param(IS_TIM_CLOCKPOLARITY(sClockSourceConfig->ClockPolarity));
      assert_param(IS_TIM_CLOCKFILTER(sClockSourceConfig->ClockFilter));

      /* Configure the ETR Clock source */
      TIM_ETR_SetConfig(htim->Instance,
 800655c:	687b      	ldr	r3, [r7, #4]
 800655e:	6818      	ldr	r0, [r3, #0]
                        sClockSourceConfig->ClockPrescaler,
 8006560:	683b      	ldr	r3, [r7, #0]
 8006562:	6899      	ldr	r1, [r3, #8]
                        sClockSourceConfig->ClockPolarity,
 8006564:	683b      	ldr	r3, [r7, #0]
 8006566:	685a      	ldr	r2, [r3, #4]
                        sClockSourceConfig->ClockFilter);
 8006568:	683b      	ldr	r3, [r7, #0]
 800656a:	68db      	ldr	r3, [r3, #12]
      TIM_ETR_SetConfig(htim->Instance,
 800656c:	f000 fac1 	bl	8006af2 <TIM_ETR_SetConfig>
      /* Enable the External clock mode2 */
      htim->Instance->SMCR |= TIM_SMCR_ECE;
 8006570:	687b      	ldr	r3, [r7, #4]
 8006572:	681b      	ldr	r3, [r3, #0]
 8006574:	689a      	ldr	r2, [r3, #8]
 8006576:	687b      	ldr	r3, [r7, #4]
 8006578:	681b      	ldr	r3, [r3, #0]
 800657a:	f442 4280 	orr.w	r2, r2, #16384	@ 0x4000
 800657e:	609a      	str	r2, [r3, #8]
      break;
 8006580:	e03c      	b.n	80065fc <HAL_TIM_ConfigClockSource+0x174>

      /* Check TI1 input conditioning related parameters */
      assert_param(IS_TIM_CLOCKPOLARITY(sClockSourceConfig->ClockPolarity));
      assert_param(IS_TIM_CLOCKFILTER(sClockSourceConfig->ClockFilter));

      TIM_TI1_ConfigInputStage(htim->Instance,
 8006582:	687b      	ldr	r3, [r7, #4]
 8006584:	6818      	ldr	r0, [r3, #0]
                               sClockSourceConfig->ClockPolarity,
 8006586:	683b      	ldr	r3, [r7, #0]
 8006588:	6859      	ldr	r1, [r3, #4]
                               sClockSourceConfig->ClockFilter);
 800658a:	683b      	ldr	r3, [r7, #0]
 800658c:	68db      	ldr	r3, [r3, #12]
      TIM_TI1_ConfigInputStage(htim->Instance,
 800658e:	461a      	mov	r2, r3
 8006590:	f000 fa38 	bl	8006a04 <TIM_TI1_ConfigInputStage>
      TIM_ITRx_SetConfig(htim->Instance, TIM_CLOCKSOURCE_TI1);
 8006594:	687b      	ldr	r3, [r7, #4]
 8006596:	681b      	ldr	r3, [r3, #0]
 8006598:	2150      	movs	r1, #80	@ 0x50
 800659a:	4618      	mov	r0, r3
 800659c:	f000 fa8f 	bl	8006abe <TIM_ITRx_SetConfig>
      break;
 80065a0:	e02c      	b.n	80065fc <HAL_TIM_ConfigClockSource+0x174>

      /* Check TI2 input conditioning related parameters */
      assert_param(IS_TIM_CLOCKPOLARITY(sClockSourceConfig->ClockPolarity));
      assert_param(IS_TIM_CLOCKFILTER(sClockSourceConfig->ClockFilter));

      TIM_TI2_ConfigInputStage(htim->Instance,
 80065a2:	687b      	ldr	r3, [r7, #4]
 80065a4:	6818      	ldr	r0, [r3, #0]
                               sClockSourceConfig->ClockPolarity,
 80065a6:	683b      	ldr	r3, [r7, #0]
 80065a8:	6859      	ldr	r1, [r3, #4]
                               sClockSourceConfig->ClockFilter);
 80065aa:	683b      	ldr	r3, [r7, #0]
 80065ac:	68db      	ldr	r3, [r3, #12]
      TIM_TI2_ConfigInputStage(htim->Instance,
 80065ae:	461a      	mov	r2, r3
 80065b0:	f000 fa56 	bl	8006a60 <TIM_TI2_ConfigInputStage>
      TIM_ITRx_SetConfig(htim->Instance, TIM_CLOCKSOURCE_TI2);
 80065b4:	687b      	ldr	r3, [r7, #4]
 80065b6:	681b      	ldr	r3, [r3, #0]
 80065b8:	2160      	movs	r1, #96	@ 0x60
 80065ba:	4618      	mov	r0, r3
 80065bc:	f000 fa7f 	bl	8006abe <TIM_ITRx_SetConfig>
      break;
 80065c0:	e01c      	b.n	80065fc <HAL_TIM_ConfigClockSource+0x174>

      /* Check TI1 input conditioning related parameters */
      assert_param(IS_TIM_CLOCKPOLARITY(sClockSourceConfig->ClockPolarity));
      assert_param(IS_TIM_CLOCKFILTER(sClockSourceConfig->ClockFilter));

      TIM_TI1_ConfigInputStage(htim->Instance,
 80065c2:	687b      	ldr	r3, [r7, #4]
 80065c4:	6818      	ldr	r0, [r3, #0]
                               sClockSourceConfig->ClockPolarity,
 80065c6:	683b      	ldr	r3, [r7, #0]
 80065c8:	6859      	ldr	r1, [r3, #4]
                               sClockSourceConfig->ClockFilter);
 80065ca:	683b      	ldr	r3, [r7, #0]
 80065cc:	68db      	ldr	r3, [r3, #12]
      TIM_TI1_ConfigInputStage(htim->Instance,
 80065ce:	461a      	mov	r2, r3
 80065d0:	f000 fa18 	bl	8006a04 <TIM_TI1_ConfigInputStage>
      TIM_ITRx_SetConfig(htim->Instance, TIM_CLOCKSOURCE_TI1ED);
 80065d4:	687b      	ldr	r3, [r7, #4]
 80065d6:	681b      	ldr	r3, [r3, #0]
 80065d8:	2140      	movs	r1, #64	@ 0x40
 80065da:	4618      	mov	r0, r3
 80065dc:	f000 fa6f 	bl	8006abe <TIM_ITRx_SetConfig>
      break;
 80065e0:	e00c      	b.n	80065fc <HAL_TIM_ConfigClockSource+0x174>
    case TIM_CLOCKSOURCE_ITR3:
    {
      /* Check whether or not the timer instance supports internal trigger input */
      assert_param(IS_TIM_CLOCKSOURCE_ITRX_INSTANCE(htim->Instance));

      TIM_ITRx_SetConfig(htim->Instance, sClockSourceConfig->ClockSource);
 80065e2:	687b      	ldr	r3, [r7, #4]
 80065e4:	681a      	ldr	r2, [r3, #0]
 80065e6:	683b      	ldr	r3, [r7, #0]
 80065e8:	681b      	ldr	r3, [r3, #0]
 80065ea:	4619      	mov	r1, r3
 80065ec:	4610      	mov	r0, r2
 80065ee:	f000 fa66 	bl	8006abe <TIM_ITRx_SetConfig>
      break;
 80065f2:	e003      	b.n	80065fc <HAL_TIM_ConfigClockSource+0x174>
    }

    default:
      status = HAL_ERROR;
 80065f4:	2301      	movs	r3, #1
 80065f6:	73fb      	strb	r3, [r7, #15]
      break;
 80065f8:	e000      	b.n	80065fc <HAL_TIM_ConfigClockSource+0x174>
      break;
 80065fa:	bf00      	nop
  }
  htim->State = HAL_TIM_STATE_READY;
 80065fc:	687b      	ldr	r3, [r7, #4]
 80065fe:	2201      	movs	r2, #1
 8006600:	f883 203d 	strb.w	r2, [r3, #61]	@ 0x3d

  __HAL_UNLOCK(htim);
 8006604:	687b      	ldr	r3, [r7, #4]
 8006606:	2200      	movs	r2, #0
 8006608:	f883 203c 	strb.w	r2, [r3, #60]	@ 0x3c

  return status;
 800660c:	7bfb      	ldrb	r3, [r7, #15]
}
 800660e:	4618      	mov	r0, r3
 8006610:	3710      	adds	r7, #16
 8006612:	46bd      	mov	sp, r7
 8006614:	bd80      	pop	{r7, pc}
	...

08006618 <TIM_Base_SetConfig>:
  * @param  TIMx TIM peripheral
  * @param  Structure TIM Base configuration structure
  * @retval None
  */
void TIM_Base_SetConfig(TIM_TypeDef *TIMx, const TIM_Base_InitTypeDef *Structure)
{
 8006618:	b480      	push	{r7}
 800661a:	b085      	sub	sp, #20
 800661c:	af00      	add	r7, sp, #0
 800661e:	6078      	str	r0, [r7, #4]
 8006620:	6039      	str	r1, [r7, #0]
  uint32_t tmpcr1;
  tmpcr1 = TIMx->CR1;
 8006622:	687b      	ldr	r3, [r7, #4]
 8006624:	681b      	ldr	r3, [r3, #0]
 8006626:	60fb      	str	r3, [r7, #12]

  /* Set TIM Time Base Unit parameters ---------------------------------------*/
  if (IS_TIM_COUNTER_MODE_SELECT_INSTANCE(TIMx))
 8006628:	687b      	ldr	r3, [r7, #4]
 800662a:	4a2f      	ldr	r2, [pc, #188]	@ (80066e8 <TIM_Base_SetConfig+0xd0>)
 800662c:	4293      	cmp	r3, r2
 800662e:	d00b      	beq.n	8006648 <TIM_Base_SetConfig+0x30>
 8006630:	687b      	ldr	r3, [r7, #4]
 8006632:	f1b3 4f80 	cmp.w	r3, #1073741824	@ 0x40000000
 8006636:	d007      	beq.n	8006648 <TIM_Base_SetConfig+0x30>
 8006638:	687b      	ldr	r3, [r7, #4]
 800663a:	4a2c      	ldr	r2, [pc, #176]	@ (80066ec <TIM_Base_SetConfig+0xd4>)
 800663c:	4293      	cmp	r3, r2
 800663e:	d003      	beq.n	8006648 <TIM_Base_SetConfig+0x30>
 8006640:	687b      	ldr	r3, [r7, #4]
 8006642:	4a2b      	ldr	r2, [pc, #172]	@ (80066f0 <TIM_Base_SetConfig+0xd8>)
 8006644:	4293      	cmp	r3, r2
 8006646:	d108      	bne.n	800665a <TIM_Base_SetConfig+0x42>
  {
    /* Select the Counter Mode */
    tmpcr1 &= ~(TIM_CR1_DIR | TIM_CR1_CMS);
 8006648:	68fb      	ldr	r3, [r7, #12]
 800664a:	f023 0370 	bic.w	r3, r3, #112	@ 0x70
 800664e:	60fb      	str	r3, [r7, #12]
    tmpcr1 |= Structure->CounterMode;
 8006650:	683b      	ldr	r3, [r7, #0]
 8006652:	685b      	ldr	r3, [r3, #4]
 8006654:	68fa      	ldr	r2, [r7, #12]
 8006656:	4313      	orrs	r3, r2
 8006658:	60fb      	str	r3, [r7, #12]
  }

  if (IS_TIM_CLOCK_DIVISION_INSTANCE(TIMx))
 800665a:	687b      	ldr	r3, [r7, #4]
 800665c:	4a22      	ldr	r2, [pc, #136]	@ (80066e8 <TIM_Base_SetConfig+0xd0>)
 800665e:	4293      	cmp	r3, r2
 8006660:	d00b      	beq.n	800667a <TIM_Base_SetConfig+0x62>
 8006662:	687b      	ldr	r3, [r7, #4]
 8006664:	f1b3 4f80 	cmp.w	r3, #1073741824	@ 0x40000000
 8006668:	d007      	beq.n	800667a <TIM_Base_SetConfig+0x62>
 800666a:	687b      	ldr	r3, [r7, #4]
 800666c:	4a1f      	ldr	r2, [pc, #124]	@ (80066ec <TIM_Base_SetConfig+0xd4>)
 800666e:	4293      	cmp	r3, r2
 8006670:	d003      	beq.n	800667a <TIM_Base_SetConfig+0x62>
 8006672:	687b      	ldr	r3, [r7, #4]
 8006674:	4a1e      	ldr	r2, [pc, #120]	@ (80066f0 <TIM_Base_SetConfig+0xd8>)
 8006676:	4293      	cmp	r3, r2
 8006678:	d108      	bne.n	800668c <TIM_Base_SetConfig+0x74>
  {
    /* Set the clock division */
    tmpcr1 &= ~TIM_CR1_CKD;
 800667a:	68fb      	ldr	r3, [r7, #12]
 800667c:	f423 7340 	bic.w	r3, r3, #768	@ 0x300
 8006680:	60fb      	str	r3, [r7, #12]
    tmpcr1 |= (uint32_t)Structure->ClockDivision;
 8006682:	683b      	ldr	r3, [r7, #0]
 8006684:	68db      	ldr	r3, [r3, #12]
 8006686:	68fa      	ldr	r2, [r7, #12]
 8006688:	4313      	orrs	r3, r2
 800668a:	60fb      	str	r3, [r7, #12]
  }

  /* Set the auto-reload preload */
  MODIFY_REG(tmpcr1, TIM_CR1_ARPE, Structure->AutoReloadPreload);
 800668c:	68fb      	ldr	r3, [r7, #12]
 800668e:	f023 0280 	bic.w	r2, r3, #128	@ 0x80
 8006692:	683b      	ldr	r3, [r7, #0]
 8006694:	695b      	ldr	r3, [r3, #20]
 8006696:	4313      	orrs	r3, r2
 8006698:	60fb      	str	r3, [r7, #12]

  TIMx->CR1 = tmpcr1;
 800669a:	687b      	ldr	r3, [r7, #4]
 800669c:	68fa      	ldr	r2, [r7, #12]
 800669e:	601a      	str	r2, [r3, #0]

  /* Set the Autoreload value */
  TIMx->ARR = (uint32_t)Structure->Period ;
 80066a0:	683b      	ldr	r3, [r7, #0]
 80066a2:	689a      	ldr	r2, [r3, #8]
 80066a4:	687b      	ldr	r3, [r7, #4]
 80066a6:	62da      	str	r2, [r3, #44]	@ 0x2c

  /* Set the Prescaler value */
  TIMx->PSC = Structure->Prescaler;
 80066a8:	683b      	ldr	r3, [r7, #0]
 80066aa:	681a      	ldr	r2, [r3, #0]
 80066ac:	687b      	ldr	r3, [r7, #4]
 80066ae:	629a      	str	r2, [r3, #40]	@ 0x28

  if (IS_TIM_REPETITION_COUNTER_INSTANCE(TIMx))
 80066b0:	687b      	ldr	r3, [r7, #4]
 80066b2:	4a0d      	ldr	r2, [pc, #52]	@ (80066e8 <TIM_Base_SetConfig+0xd0>)
 80066b4:	4293      	cmp	r3, r2
 80066b6:	d103      	bne.n	80066c0 <TIM_Base_SetConfig+0xa8>
  {
    /* Set the Repetition Counter value */
    TIMx->RCR = Structure->RepetitionCounter;
 80066b8:	683b      	ldr	r3, [r7, #0]
 80066ba:	691a      	ldr	r2, [r3, #16]
 80066bc:	687b      	ldr	r3, [r7, #4]
 80066be:	631a      	str	r2, [r3, #48]	@ 0x30
  }

  /* Generate an update event to reload the Prescaler
     and the repetition counter (only for advanced timer) value immediately */
  TIMx->EGR = TIM_EGR_UG;
 80066c0:	687b      	ldr	r3, [r7, #4]
 80066c2:	2201      	movs	r2, #1
 80066c4:	615a      	str	r2, [r3, #20]

  /* Check if the update flag is set after the Update Generation, if so clear the UIF flag */
  if (HAL_IS_BIT_SET(TIMx->SR, TIM_FLAG_UPDATE))
 80066c6:	687b      	ldr	r3, [r7, #4]
 80066c8:	691b      	ldr	r3, [r3, #16]
 80066ca:	f003 0301 	and.w	r3, r3, #1
 80066ce:	2b00      	cmp	r3, #0
 80066d0:	d005      	beq.n	80066de <TIM_Base_SetConfig+0xc6>
  {
    /* Clear the update flag */
    CLEAR_BIT(TIMx->SR, TIM_FLAG_UPDATE);
 80066d2:	687b      	ldr	r3, [r7, #4]
 80066d4:	691b      	ldr	r3, [r3, #16]
 80066d6:	f023 0201 	bic.w	r2, r3, #1
 80066da:	687b      	ldr	r3, [r7, #4]
 80066dc:	611a      	str	r2, [r3, #16]
  }
}
 80066de:	bf00      	nop
 80066e0:	3714      	adds	r7, #20
 80066e2:	46bd      	mov	sp, r7
 80066e4:	bc80      	pop	{r7}
 80066e6:	4770      	bx	lr
 80066e8:	40012c00 	.word	0x40012c00
 80066ec:	40000400 	.word	0x40000400
 80066f0:	40000800 	.word	0x40000800

080066f4 <TIM_OC1_SetConfig>:
  * @param  TIMx to select the TIM peripheral
  * @param  OC_Config The output configuration structure
  * @retval None
  */
static void TIM_OC1_SetConfig(TIM_TypeDef *TIMx, const TIM_OC_InitTypeDef *OC_Config)
{
 80066f4:	b480      	push	{r7}
 80066f6:	b087      	sub	sp, #28
 80066f8:	af00      	add	r7, sp, #0
 80066fa:	6078      	str	r0, [r7, #4]
 80066fc:	6039      	str	r1, [r7, #0]
  uint32_t tmpccmrx;
  uint32_t tmpccer;
  uint32_t tmpcr2;

  /* Get the TIMx CCER register value */
  tmpccer = TIMx->CCER;
 80066fe:	687b      	ldr	r3, [r7, #4]
 8006700:	6a1b      	ldr	r3, [r3, #32]
 8006702:	617b      	str	r3, [r7, #20]

  /* Disable the Channel 1: Reset the CC1E Bit */
  TIMx->CCER &= ~TIM_CCER_CC1E;
 8006704:	687b      	ldr	r3, [r7, #4]
 8006706:	6a1b      	ldr	r3, [r3, #32]
 8006708:	f023 0201 	bic.w	r2, r3, #1
 800670c:	687b      	ldr	r3, [r7, #4]
 800670e:	621a      	str	r2, [r3, #32]

  /* Get the TIMx CR2 register value */
  tmpcr2 =  TIMx->CR2;
 8006710:	687b      	ldr	r3, [r7, #4]
 8006712:	685b      	ldr	r3, [r3, #4]
 8006714:	613b      	str	r3, [r7, #16]

  /* Get the TIMx CCMR1 register value */
  tmpccmrx = TIMx->CCMR1;
 8006716:	687b      	ldr	r3, [r7, #4]
 8006718:	699b      	ldr	r3, [r3, #24]
 800671a:	60fb      	str	r3, [r7, #12]

  /* Reset the Output Compare Mode Bits */
  tmpccmrx &= ~TIM_CCMR1_OC1M;
 800671c:	68fb      	ldr	r3, [r7, #12]
 800671e:	f023 0370 	bic.w	r3, r3, #112	@ 0x70
 8006722:	60fb      	str	r3, [r7, #12]
  tmpccmrx &= ~TIM_CCMR1_CC1S;
 8006724:	68fb      	ldr	r3, [r7, #12]
 8006726:	f023 0303 	bic.w	r3, r3, #3
 800672a:	60fb      	str	r3, [r7, #12]
  /* Select the Output Compare Mode */
  tmpccmrx |= OC_Config->OCMode;
 800672c:	683b      	ldr	r3, [r7, #0]
 800672e:	681b      	ldr	r3, [r3, #0]
 8006730:	68fa      	ldr	r2, [r7, #12]
 8006732:	4313      	orrs	r3, r2
 8006734:	60fb      	str	r3, [r7, #12]

  /* Reset the Output Polarity level */
  tmpccer &= ~TIM_CCER_CC1P;
 8006736:	697b      	ldr	r3, [r7, #20]
 8006738:	f023 0302 	bic.w	r3, r3, #2
 800673c:	617b      	str	r3, [r7, #20]
  /* Set the Output Compare Polarity */
  tmpccer |= OC_Config->OCPolarity;
 800673e:	683b      	ldr	r3, [r7, #0]
 8006740:	689b      	ldr	r3, [r3, #8]
 8006742:	697a      	ldr	r2, [r7, #20]
 8006744:	4313      	orrs	r3, r2
 8006746:	617b      	str	r3, [r7, #20]

  if (IS_TIM_CCXN_INSTANCE(TIMx, TIM_CHANNEL_1))
 8006748:	687b      	ldr	r3, [r7, #4]
 800674a:	4a1c      	ldr	r2, [pc, #112]	@ (80067bc <TIM_OC1_SetConfig+0xc8>)
 800674c:	4293      	cmp	r3, r2
 800674e:	d10c      	bne.n	800676a <TIM_OC1_SetConfig+0x76>
  {
    /* Check parameters */
    assert_param(IS_TIM_OCN_POLARITY(OC_Config->OCNPolarity));

    /* Reset the Output N Polarity level */
    tmpccer &= ~TIM_CCER_CC1NP;
 8006750:	697b      	ldr	r3, [r7, #20]
 8006752:	f023 0308 	bic.w	r3, r3, #8
 8006756:	617b      	str	r3, [r7, #20]
    /* Set the Output N Polarity */
    tmpccer |= OC_Config->OCNPolarity;
 8006758:	683b      	ldr	r3, [r7, #0]
 800675a:	68db      	ldr	r3, [r3, #12]
 800675c:	697a      	ldr	r2, [r7, #20]
 800675e:	4313      	orrs	r3, r2
 8006760:	617b      	str	r3, [r7, #20]
    /* Reset the Output N State */
    tmpccer &= ~TIM_CCER_CC1NE;
 8006762:	697b      	ldr	r3, [r7, #20]
 8006764:	f023 0304 	bic.w	r3, r3, #4
 8006768:	617b      	str	r3, [r7, #20]
  }

  if (IS_TIM_BREAK_INSTANCE(TIMx))
 800676a:	687b      	ldr	r3, [r7, #4]
 800676c:	4a13      	ldr	r2, [pc, #76]	@ (80067bc <TIM_OC1_SetConfig+0xc8>)
 800676e:	4293      	cmp	r3, r2
 8006770:	d111      	bne.n	8006796 <TIM_OC1_SetConfig+0xa2>
    /* Check parameters */
    assert_param(IS_TIM_OCNIDLE_STATE(OC_Config->OCNIdleState));
    assert_param(IS_TIM_OCIDLE_STATE(OC_Config->OCIdleState));

    /* Reset the Output Compare and Output Compare N IDLE State */
    tmpcr2 &= ~TIM_CR2_OIS1;
 8006772:	693b      	ldr	r3, [r7, #16]
 8006774:	f423 7380 	bic.w	r3, r3, #256	@ 0x100
 8006778:	613b      	str	r3, [r7, #16]
    tmpcr2 &= ~TIM_CR2_OIS1N;
 800677a:	693b      	ldr	r3, [r7, #16]
 800677c:	f423 7300 	bic.w	r3, r3, #512	@ 0x200
 8006780:	613b      	str	r3, [r7, #16]
    /* Set the Output Idle state */
    tmpcr2 |= OC_Config->OCIdleState;
 8006782:	683b      	ldr	r3, [r7, #0]
 8006784:	695b      	ldr	r3, [r3, #20]
 8006786:	693a      	ldr	r2, [r7, #16]
 8006788:	4313      	orrs	r3, r2
 800678a:	613b      	str	r3, [r7, #16]
    /* Set the Output N Idle state */
    tmpcr2 |= OC_Config->OCNIdleState;
 800678c:	683b      	ldr	r3, [r7, #0]
 800678e:	699b      	ldr	r3, [r3, #24]
 8006790:	693a      	ldr	r2, [r7, #16]
 8006792:	4313      	orrs	r3, r2
 8006794:	613b      	str	r3, [r7, #16]
  }

  /* Write to TIMx CR2 */
  TIMx->CR2 = tmpcr2;
 8006796:	687b      	ldr	r3, [r7, #4]
 8006798:	693a      	ldr	r2, [r7, #16]
 800679a:	605a      	str	r2, [r3, #4]

  /* Write to TIMx CCMR1 */
  TIMx->CCMR1 = tmpccmrx;
 800679c:	687b      	ldr	r3, [r7, #4]
 800679e:	68fa      	ldr	r2, [r7, #12]
 80067a0:	619a      	str	r2, [r3, #24]

  /* Set the Capture Compare Register value */
  TIMx->CCR1 = OC_Config->Pulse;
 80067a2:	683b      	ldr	r3, [r7, #0]
 80067a4:	685a      	ldr	r2, [r3, #4]
 80067a6:	687b      	ldr	r3, [r7, #4]
 80067a8:	635a      	str	r2, [r3, #52]	@ 0x34

  /* Write to TIMx CCER */
  TIMx->CCER = tmpccer;
 80067aa:	687b      	ldr	r3, [r7, #4]
 80067ac:	697a      	ldr	r2, [r7, #20]
 80067ae:	621a      	str	r2, [r3, #32]
}
 80067b0:	bf00      	nop
 80067b2:	371c      	adds	r7, #28
 80067b4:	46bd      	mov	sp, r7
 80067b6:	bc80      	pop	{r7}
 80067b8:	4770      	bx	lr
 80067ba:	bf00      	nop
 80067bc:	40012c00 	.word	0x40012c00

080067c0 <TIM_OC2_SetConfig>:
  * @param  TIMx to select the TIM peripheral
  * @param  OC_Config The output configuration structure
  * @retval None
  */
void TIM_OC2_SetConfig(TIM_TypeDef *TIMx, const TIM_OC_InitTypeDef *OC_Config)
{
 80067c0:	b480      	push	{r7}
 80067c2:	b087      	sub	sp, #28
 80067c4:	af00      	add	r7, sp, #0
 80067c6:	6078      	str	r0, [r7, #4]
 80067c8:	6039      	str	r1, [r7, #0]
  uint32_t tmpccmrx;
  uint32_t tmpccer;
  uint32_t tmpcr2;

  /* Get the TIMx CCER register value */
  tmpccer = TIMx->CCER;
 80067ca:	687b      	ldr	r3, [r7, #4]
 80067cc:	6a1b      	ldr	r3, [r3, #32]
 80067ce:	617b      	str	r3, [r7, #20]

  /* Disable the Channel 2: Reset the CC2E Bit */
  TIMx->CCER &= ~TIM_CCER_CC2E;
 80067d0:	687b      	ldr	r3, [r7, #4]
 80067d2:	6a1b      	ldr	r3, [r3, #32]
 80067d4:	f023 0210 	bic.w	r2, r3, #16
 80067d8:	687b      	ldr	r3, [r7, #4]
 80067da:	621a      	str	r2, [r3, #32]

  /* Get the TIMx CR2 register value */
  tmpcr2 =  TIMx->CR2;
 80067dc:	687b      	ldr	r3, [r7, #4]
 80067de:	685b      	ldr	r3, [r3, #4]
 80067e0:	613b      	str	r3, [r7, #16]

  /* Get the TIMx CCMR1 register value */
  tmpccmrx = TIMx->CCMR1;
 80067e2:	687b      	ldr	r3, [r7, #4]
 80067e4:	699b      	ldr	r3, [r3, #24]
 80067e6:	60fb      	str	r3, [r7, #12]

  /* Reset the Output Compare mode and Capture/Compare selection Bits */
  tmpccmrx &= ~TIM_CCMR1_OC2M;
 80067e8:	68fb      	ldr	r3, [r7, #12]
 80067ea:	f423 43e0 	bic.w	r3, r3, #28672	@ 0x7000
 80067ee:	60fb      	str	r3, [r7, #12]
  tmpccmrx &= ~TIM_CCMR1_CC2S;
 80067f0:	68fb      	ldr	r3, [r7, #12]
 80067f2:	f423 7340 	bic.w	r3, r3, #768	@ 0x300
 80067f6:	60fb      	str	r3, [r7, #12]

  /* Select the Output Compare Mode */
  tmpccmrx |= (OC_Config->OCMode << 8U);
 80067f8:	683b      	ldr	r3, [r7, #0]
 80067fa:	681b      	ldr	r3, [r3, #0]
 80067fc:	021b      	lsls	r3, r3, #8
 80067fe:	68fa      	ldr	r2, [r7, #12]
 8006800:	4313      	orrs	r3, r2
 8006802:	60fb      	str	r3, [r7, #12]

  /* Reset the Output Polarity level */
  tmpccer &= ~TIM_CCER_CC2P;
 8006804:	697b      	ldr	r3, [r7, #20]
 8006806:	f023 0320 	bic.w	r3, r3, #32
 800680a:	617b      	str	r3, [r7, #20]
  /* Set the Output Compare Polarity */
  tmpccer |= (OC_Config->OCPolarity << 4U);
 800680c:	683b      	ldr	r3, [r7, #0]
 800680e:	689b      	ldr	r3, [r3, #8]
 8006810:	011b      	lsls	r3, r3, #4
 8006812:	697a      	ldr	r2, [r7, #20]
 8006814:	4313      	orrs	r3, r2
 8006816:	617b      	str	r3, [r7, #20]

  if (IS_TIM_CCXN_INSTANCE(TIMx, TIM_CHANNEL_2))
 8006818:	687b      	ldr	r3, [r7, #4]
 800681a:	4a1d      	ldr	r2, [pc, #116]	@ (8006890 <TIM_OC2_SetConfig+0xd0>)
 800681c:	4293      	cmp	r3, r2
 800681e:	d10d      	bne.n	800683c <TIM_OC2_SetConfig+0x7c>
  {
    assert_param(IS_TIM_OCN_POLARITY(OC_Config->OCNPolarity));

    /* Reset the Output N Polarity level */
    tmpccer &= ~TIM_CCER_CC2NP;
 8006820:	697b      	ldr	r3, [r7, #20]
 8006822:	f023 0380 	bic.w	r3, r3, #128	@ 0x80
 8006826:	617b      	str	r3, [r7, #20]
    /* Set the Output N Polarity */
    tmpccer |= (OC_Config->OCNPolarity << 4U);
 8006828:	683b      	ldr	r3, [r7, #0]
 800682a:	68db      	ldr	r3, [r3, #12]
 800682c:	011b      	lsls	r3, r3, #4
 800682e:	697a      	ldr	r2, [r7, #20]
 8006830:	4313      	orrs	r3, r2
 8006832:	617b      	str	r3, [r7, #20]
    /* Reset the Output N State */
    tmpccer &= ~TIM_CCER_CC2NE;
 8006834:	697b      	ldr	r3, [r7, #20]
 8006836:	f023 0340 	bic.w	r3, r3, #64	@ 0x40
 800683a:	617b      	str	r3, [r7, #20]
  }

  if (IS_TIM_BREAK_INSTANCE(TIMx))
 800683c:	687b      	ldr	r3, [r7, #4]
 800683e:	4a14      	ldr	r2, [pc, #80]	@ (8006890 <TIM_OC2_SetConfig+0xd0>)
 8006840:	4293      	cmp	r3, r2
 8006842:	d113      	bne.n	800686c <TIM_OC2_SetConfig+0xac>
    /* Check parameters */
    assert_param(IS_TIM_OCNIDLE_STATE(OC_Config->OCNIdleState));
    assert_param(IS_TIM_OCIDLE_STATE(OC_Config->OCIdleState));

    /* Reset the Output Compare and Output Compare N IDLE State */
    tmpcr2 &= ~TIM_CR2_OIS2;
 8006844:	693b      	ldr	r3, [r7, #16]
 8006846:	f423 6380 	bic.w	r3, r3, #1024	@ 0x400
 800684a:	613b      	str	r3, [r7, #16]
    tmpcr2 &= ~TIM_CR2_OIS2N;
 800684c:	693b      	ldr	r3, [r7, #16]
 800684e:	f423 6300 	bic.w	r3, r3, #2048	@ 0x800
 8006852:	613b      	str	r3, [r7, #16]
    /* Set the Output Idle state */
    tmpcr2 |= (OC_Config->OCIdleState << 2U);
 8006854:	683b      	ldr	r3, [r7, #0]
 8006856:	695b      	ldr	r3, [r3, #20]
 8006858:	009b      	lsls	r3, r3, #2
 800685a:	693a      	ldr	r2, [r7, #16]
 800685c:	4313      	orrs	r3, r2
 800685e:	613b      	str	r3, [r7, #16]
    /* Set the Output N Idle state */
    tmpcr2 |= (OC_Config->OCNIdleState << 2U);
 8006860:	683b      	ldr	r3, [r7, #0]
 8006862:	699b      	ldr	r3, [r3, #24]
 8006864:	009b      	lsls	r3, r3, #2
 8006866:	693a      	ldr	r2, [r7, #16]
 8006868:	4313      	orrs	r3, r2
 800686a:	613b      	str	r3, [r7, #16]
  }

  /* Write to TIMx CR2 */
  TIMx->CR2 = tmpcr2;
 800686c:	687b      	ldr	r3, [r7, #4]
 800686e:	693a      	ldr	r2, [r7, #16]
 8006870:	605a      	str	r2, [r3, #4]

  /* Write to TIMx CCMR1 */
  TIMx->CCMR1 = tmpccmrx;
 8006872:	687b      	ldr	r3, [r7, #4]
 8006874:	68fa      	ldr	r2, [r7, #12]
 8006876:	619a      	str	r2, [r3, #24]

  /* Set the Capture Compare Register value */
  TIMx->CCR2 = OC_Config->Pulse;
 8006878:	683b      	ldr	r3, [r7, #0]
 800687a:	685a      	ldr	r2, [r3, #4]
 800687c:	687b      	ldr	r3, [r7, #4]
 800687e:	639a      	str	r2, [r3, #56]	@ 0x38

  /* Write to TIMx CCER */
  TIMx->CCER = tmpccer;
 8006880:	687b      	ldr	r3, [r7, #4]
 8006882:	697a      	ldr	r2, [r7, #20]
 8006884:	621a      	str	r2, [r3, #32]
}
 8006886:	bf00      	nop
 8006888:	371c      	adds	r7, #28
 800688a:	46bd      	mov	sp, r7
 800688c:	bc80      	pop	{r7}
 800688e:	4770      	bx	lr
 8006890:	40012c00 	.word	0x40012c00

08006894 <TIM_OC3_SetConfig>:
  * @param  TIMx to select the TIM peripheral
  * @param  OC_Config The output configuration structure
  * @retval None
  */
static void TIM_OC3_SetConfig(TIM_TypeDef *TIMx, const TIM_OC_InitTypeDef *OC_Config)
{
 8006894:	b480      	push	{r7}
 8006896:	b087      	sub	sp, #28
 8006898:	af00      	add	r7, sp, #0
 800689a:	6078      	str	r0, [r7, #4]
 800689c:	6039      	str	r1, [r7, #0]
  uint32_t tmpccmrx;
  uint32_t tmpccer;
  uint32_t tmpcr2;

  /* Get the TIMx CCER register value */
  tmpccer = TIMx->CCER;
 800689e:	687b      	ldr	r3, [r7, #4]
 80068a0:	6a1b      	ldr	r3, [r3, #32]
 80068a2:	617b      	str	r3, [r7, #20]

  /* Disable the Channel 3: Reset the CC2E Bit */
  TIMx->CCER &= ~TIM_CCER_CC3E;
 80068a4:	687b      	ldr	r3, [r7, #4]
 80068a6:	6a1b      	ldr	r3, [r3, #32]
 80068a8:	f423 7280 	bic.w	r2, r3, #256	@ 0x100
 80068ac:	687b      	ldr	r3, [r7, #4]
 80068ae:	621a      	str	r2, [r3, #32]

  /* Get the TIMx CR2 register value */
  tmpcr2 =  TIMx->CR2;
 80068b0:	687b      	ldr	r3, [r7, #4]
 80068b2:	685b      	ldr	r3, [r3, #4]
 80068b4:	613b      	str	r3, [r7, #16]

  /* Get the TIMx CCMR2 register value */
  tmpccmrx = TIMx->CCMR2;
 80068b6:	687b      	ldr	r3, [r7, #4]
 80068b8:	69db      	ldr	r3, [r3, #28]
 80068ba:	60fb      	str	r3, [r7, #12]

  /* Reset the Output Compare mode and Capture/Compare selection Bits */
  tmpccmrx &= ~TIM_CCMR2_OC3M;
 80068bc:	68fb      	ldr	r3, [r7, #12]
 80068be:	f023 0370 	bic.w	r3, r3, #112	@ 0x70
 80068c2:	60fb      	str	r3, [r7, #12]
  tmpccmrx &= ~TIM_CCMR2_CC3S;
 80068c4:	68fb      	ldr	r3, [r7, #12]
 80068c6:	f023 0303 	bic.w	r3, r3, #3
 80068ca:	60fb      	str	r3, [r7, #12]
  /* Select the Output Compare Mode */
  tmpccmrx |= OC_Config->OCMode;
 80068cc:	683b      	ldr	r3, [r7, #0]
 80068ce:	681b      	ldr	r3, [r3, #0]
 80068d0:	68fa      	ldr	r2, [r7, #12]
 80068d2:	4313      	orrs	r3, r2
 80068d4:	60fb      	str	r3, [r7, #12]

  /* Reset the Output Polarity level */
  tmpccer &= ~TIM_CCER_CC3P;
 80068d6:	697b      	ldr	r3, [r7, #20]
 80068d8:	f423 7300 	bic.w	r3, r3, #512	@ 0x200
 80068dc:	617b      	str	r3, [r7, #20]
  /* Set the Output Compare Polarity */
  tmpccer |= (OC_Config->OCPolarity << 8U);
 80068de:	683b      	ldr	r3, [r7, #0]
 80068e0:	689b      	ldr	r3, [r3, #8]
 80068e2:	021b      	lsls	r3, r3, #8
 80068e4:	697a      	ldr	r2, [r7, #20]
 80068e6:	4313      	orrs	r3, r2
 80068e8:	617b      	str	r3, [r7, #20]

  if (IS_TIM_CCXN_INSTANCE(TIMx, TIM_CHANNEL_3))
 80068ea:	687b      	ldr	r3, [r7, #4]
 80068ec:	4a1d      	ldr	r2, [pc, #116]	@ (8006964 <TIM_OC3_SetConfig+0xd0>)
 80068ee:	4293      	cmp	r3, r2
 80068f0:	d10d      	bne.n	800690e <TIM_OC3_SetConfig+0x7a>
  {
    assert_param(IS_TIM_OCN_POLARITY(OC_Config->OCNPolarity));

    /* Reset the Output N Polarity level */
    tmpccer &= ~TIM_CCER_CC3NP;
 80068f2:	697b      	ldr	r3, [r7, #20]
 80068f4:	f423 6300 	bic.w	r3, r3, #2048	@ 0x800
 80068f8:	617b      	str	r3, [r7, #20]
    /* Set the Output N Polarity */
    tmpccer |= (OC_Config->OCNPolarity << 8U);
 80068fa:	683b      	ldr	r3, [r7, #0]
 80068fc:	68db      	ldr	r3, [r3, #12]
 80068fe:	021b      	lsls	r3, r3, #8
 8006900:	697a      	ldr	r2, [r7, #20]
 8006902:	4313      	orrs	r3, r2
 8006904:	617b      	str	r3, [r7, #20]
    /* Reset the Output N State */
    tmpccer &= ~TIM_CCER_CC3NE;
 8006906:	697b      	ldr	r3, [r7, #20]
 8006908:	f423 6380 	bic.w	r3, r3, #1024	@ 0x400
 800690c:	617b      	str	r3, [r7, #20]
  }

  if (IS_TIM_BREAK_INSTANCE(TIMx))
 800690e:	687b      	ldr	r3, [r7, #4]
 8006910:	4a14      	ldr	r2, [pc, #80]	@ (8006964 <TIM_OC3_SetConfig+0xd0>)
 8006912:	4293      	cmp	r3, r2
 8006914:	d113      	bne.n	800693e <TIM_OC3_SetConfig+0xaa>
    /* Check parameters */
    assert_param(IS_TIM_OCNIDLE_STATE(OC_Config->OCNIdleState));
    assert_param(IS_TIM_OCIDLE_STATE(OC_Config->OCIdleState));

    /* Reset the Output Compare and Output Compare N IDLE State */
    tmpcr2 &= ~TIM_CR2_OIS3;
 8006916:	693b      	ldr	r3, [r7, #16]
 8006918:	f423 5380 	bic.w	r3, r3, #4096	@ 0x1000
 800691c:	613b      	str	r3, [r7, #16]
    tmpcr2 &= ~TIM_CR2_OIS3N;
 800691e:	693b      	ldr	r3, [r7, #16]
 8006920:	f423 5300 	bic.w	r3, r3, #8192	@ 0x2000
 8006924:	613b      	str	r3, [r7, #16]
    /* Set the Output Idle state */
    tmpcr2 |= (OC_Config->OCIdleState << 4U);
 8006926:	683b      	ldr	r3, [r7, #0]
 8006928:	695b      	ldr	r3, [r3, #20]
 800692a:	011b      	lsls	r3, r3, #4
 800692c:	693a      	ldr	r2, [r7, #16]
 800692e:	4313      	orrs	r3, r2
 8006930:	613b      	str	r3, [r7, #16]
    /* Set the Output N Idle state */
    tmpcr2 |= (OC_Config->OCNIdleState << 4U);
 8006932:	683b      	ldr	r3, [r7, #0]
 8006934:	699b      	ldr	r3, [r3, #24]
 8006936:	011b      	lsls	r3, r3, #4
 8006938:	693a      	ldr	r2, [r7, #16]
 800693a:	4313      	orrs	r3, r2
 800693c:	613b      	str	r3, [r7, #16]
  }

  /* Write to TIMx CR2 */
  TIMx->CR2 = tmpcr2;
 800693e:	687b      	ldr	r3, [r7, #4]
 8006940:	693a      	ldr	r2, [r7, #16]
 8006942:	605a      	str	r2, [r3, #4]

  /* Write to TIMx CCMR2 */
  TIMx->CCMR2 = tmpccmrx;
 8006944:	687b      	ldr	r3, [r7, #4]
 8006946:	68fa      	ldr	r2, [r7, #12]
 8006948:	61da      	str	r2, [r3, #28]

  /* Set the Capture Compare Register value */
  TIMx->CCR3 = OC_Config->Pulse;
 800694a:	683b      	ldr	r3, [r7, #0]
 800694c:	685a      	ldr	r2, [r3, #4]
 800694e:	687b      	ldr	r3, [r7, #4]
 8006950:	63da      	str	r2, [r3, #60]	@ 0x3c

  /* Write to TIMx CCER */
  TIMx->CCER = tmpccer;
 8006952:	687b      	ldr	r3, [r7, #4]
 8006954:	697a      	ldr	r2, [r7, #20]
 8006956:	621a      	str	r2, [r3, #32]
}
 8006958:	bf00      	nop
 800695a:	371c      	adds	r7, #28
 800695c:	46bd      	mov	sp, r7
 800695e:	bc80      	pop	{r7}
 8006960:	4770      	bx	lr
 8006962:	bf00      	nop
 8006964:	40012c00 	.word	0x40012c00

08006968 <TIM_OC4_SetConfig>:
  * @param  TIMx to select the TIM peripheral
  * @param  OC_Config The output configuration structure
  * @retval None
  */
static void TIM_OC4_SetConfig(TIM_TypeDef *TIMx, const TIM_OC_InitTypeDef *OC_Config)
{
 8006968:	b480      	push	{r7}
 800696a:	b087      	sub	sp, #28
 800696c:	af00      	add	r7, sp, #0
 800696e:	6078      	str	r0, [r7, #4]
 8006970:	6039      	str	r1, [r7, #0]
  uint32_t tmpccmrx;
  uint32_t tmpccer;
  uint32_t tmpcr2;

  /* Get the TIMx CCER register value */
  tmpccer = TIMx->CCER;
 8006972:	687b      	ldr	r3, [r7, #4]
 8006974:	6a1b      	ldr	r3, [r3, #32]
 8006976:	613b      	str	r3, [r7, #16]

  /* Disable the Channel 4: Reset the CC4E Bit */
  TIMx->CCER &= ~TIM_CCER_CC4E;
 8006978:	687b      	ldr	r3, [r7, #4]
 800697a:	6a1b      	ldr	r3, [r3, #32]
 800697c:	f423 5280 	bic.w	r2, r3, #4096	@ 0x1000
 8006980:	687b      	ldr	r3, [r7, #4]
 8006982:	621a      	str	r2, [r3, #32]

  /* Get the TIMx CR2 register value */
  tmpcr2 =  TIMx->CR2;
 8006984:	687b      	ldr	r3, [r7, #4]
 8006986:	685b      	ldr	r3, [r3, #4]
 8006988:	617b      	str	r3, [r7, #20]

  /* Get the TIMx CCMR2 register value */
  tmpccmrx = TIMx->CCMR2;
 800698a:	687b      	ldr	r3, [r7, #4]
 800698c:	69db      	ldr	r3, [r3, #28]
 800698e:	60fb      	str	r3, [r7, #12]

  /* Reset the Output Compare mode and Capture/Compare selection Bits */
  tmpccmrx &= ~TIM_CCMR2_OC4M;
 8006990:	68fb      	ldr	r3, [r7, #12]
 8006992:	f423 43e0 	bic.w	r3, r3, #28672	@ 0x7000
 8006996:	60fb      	str	r3, [r7, #12]
  tmpccmrx &= ~TIM_CCMR2_CC4S;
 8006998:	68fb      	ldr	r3, [r7, #12]
 800699a:	f423 7340 	bic.w	r3, r3, #768	@ 0x300
 800699e:	60fb      	str	r3, [r7, #12]

  /* Select the Output Compare Mode */
  tmpccmrx |= (OC_Config->OCMode << 8U);
 80069a0:	683b      	ldr	r3, [r7, #0]
 80069a2:	681b      	ldr	r3, [r3, #0]
 80069a4:	021b      	lsls	r3, r3, #8
 80069a6:	68fa      	ldr	r2, [r7, #12]
 80069a8:	4313      	orrs	r3, r2
 80069aa:	60fb      	str	r3, [r7, #12]

  /* Reset the Output Polarity level */
  tmpccer &= ~TIM_CCER_CC4P;
 80069ac:	693b      	ldr	r3, [r7, #16]
 80069ae:	f423 5300 	bic.w	r3, r3, #8192	@ 0x2000
 80069b2:	613b      	str	r3, [r7, #16]
  /* Set the Output Compare Polarity */
  tmpccer |= (OC_Config->OCPolarity << 12U);
 80069b4:	683b      	ldr	r3, [r7, #0]
 80069b6:	689b      	ldr	r3, [r3, #8]
 80069b8:	031b      	lsls	r3, r3, #12
 80069ba:	693a      	ldr	r2, [r7, #16]
 80069bc:	4313      	orrs	r3, r2
 80069be:	613b      	str	r3, [r7, #16]

  if (IS_TIM_BREAK_INSTANCE(TIMx))
 80069c0:	687b      	ldr	r3, [r7, #4]
 80069c2:	4a0f      	ldr	r2, [pc, #60]	@ (8006a00 <TIM_OC4_SetConfig+0x98>)
 80069c4:	4293      	cmp	r3, r2
 80069c6:	d109      	bne.n	80069dc <TIM_OC4_SetConfig+0x74>
  {
    /* Check parameters */
    assert_param(IS_TIM_OCIDLE_STATE(OC_Config->OCIdleState));

    /* Reset the Output Compare IDLE State */
    tmpcr2 &= ~TIM_CR2_OIS4;
 80069c8:	697b      	ldr	r3, [r7, #20]
 80069ca:	f423 4380 	bic.w	r3, r3, #16384	@ 0x4000
 80069ce:	617b      	str	r3, [r7, #20]

    /* Set the Output Idle state */
    tmpcr2 |= (OC_Config->OCIdleState << 6U);
 80069d0:	683b      	ldr	r3, [r7, #0]
 80069d2:	695b      	ldr	r3, [r3, #20]
 80069d4:	019b      	lsls	r3, r3, #6
 80069d6:	697a      	ldr	r2, [r7, #20]
 80069d8:	4313      	orrs	r3, r2
 80069da:	617b      	str	r3, [r7, #20]
  }

  /* Write to TIMx CR2 */
  TIMx->CR2 = tmpcr2;
 80069dc:	687b      	ldr	r3, [r7, #4]
 80069de:	697a      	ldr	r2, [r7, #20]
 80069e0:	605a      	str	r2, [r3, #4]

  /* Write to TIMx CCMR2 */
  TIMx->CCMR2 = tmpccmrx;
 80069e2:	687b      	ldr	r3, [r7, #4]
 80069e4:	68fa      	ldr	r2, [r7, #12]
 80069e6:	61da      	str	r2, [r3, #28]

  /* Set the Capture Compare Register value */
  TIMx->CCR4 = OC_Config->Pulse;
 80069e8:	683b      	ldr	r3, [r7, #0]
 80069ea:	685a      	ldr	r2, [r3, #4]
 80069ec:	687b      	ldr	r3, [r7, #4]
 80069ee:	641a      	str	r2, [r3, #64]	@ 0x40

  /* Write to TIMx CCER */
  TIMx->CCER = tmpccer;
 80069f0:	687b      	ldr	r3, [r7, #4]
 80069f2:	693a      	ldr	r2, [r7, #16]
 80069f4:	621a      	str	r2, [r3, #32]
}
 80069f6:	bf00      	nop
 80069f8:	371c      	adds	r7, #28
 80069fa:	46bd      	mov	sp, r7
 80069fc:	bc80      	pop	{r7}
 80069fe:	4770      	bx	lr
 8006a00:	40012c00 	.word	0x40012c00

08006a04 <TIM_TI1_ConfigInputStage>:
  * @param  TIM_ICFilter Specifies the Input Capture Filter.
  *          This parameter must be a value between 0x00 and 0x0F.
  * @retval None
  */
static void TIM_TI1_ConfigInputStage(TIM_TypeDef *TIMx, uint32_t TIM_ICPolarity, uint32_t TIM_ICFilter)
{
 8006a04:	b480      	push	{r7}
 8006a06:	b087      	sub	sp, #28
 8006a08:	af00      	add	r7, sp, #0
 8006a0a:	60f8      	str	r0, [r7, #12]
 8006a0c:	60b9      	str	r1, [r7, #8]
 8006a0e:	607a      	str	r2, [r7, #4]
  uint32_t tmpccmr1;
  uint32_t tmpccer;

  /* Disable the Channel 1: Reset the CC1E Bit */
  tmpccer = TIMx->CCER;
 8006a10:	68fb      	ldr	r3, [r7, #12]
 8006a12:	6a1b      	ldr	r3, [r3, #32]
 8006a14:	617b      	str	r3, [r7, #20]
  TIMx->CCER &= ~TIM_CCER_CC1E;
 8006a16:	68fb      	ldr	r3, [r7, #12]
 8006a18:	6a1b      	ldr	r3, [r3, #32]
 8006a1a:	f023 0201 	bic.w	r2, r3, #1
 8006a1e:	68fb      	ldr	r3, [r7, #12]
 8006a20:	621a      	str	r2, [r3, #32]
  tmpccmr1 = TIMx->CCMR1;
 8006a22:	68fb      	ldr	r3, [r7, #12]
 8006a24:	699b      	ldr	r3, [r3, #24]
 8006a26:	613b      	str	r3, [r7, #16]

  /* Set the filter */
  tmpccmr1 &= ~TIM_CCMR1_IC1F;
 8006a28:	693b      	ldr	r3, [r7, #16]
 8006a2a:	f023 03f0 	bic.w	r3, r3, #240	@ 0xf0
 8006a2e:	613b      	str	r3, [r7, #16]
  tmpccmr1 |= (TIM_ICFilter << 4U);
 8006a30:	687b      	ldr	r3, [r7, #4]
 8006a32:	011b      	lsls	r3, r3, #4
 8006a34:	693a      	ldr	r2, [r7, #16]
 8006a36:	4313      	orrs	r3, r2
 8006a38:	613b      	str	r3, [r7, #16]

  /* Select the Polarity and set the CC1E Bit */
  tmpccer &= ~(TIM_CCER_CC1P | TIM_CCER_CC1NP);
 8006a3a:	697b      	ldr	r3, [r7, #20]
 8006a3c:	f023 030a 	bic.w	r3, r3, #10
 8006a40:	617b      	str	r3, [r7, #20]
  tmpccer |= TIM_ICPolarity;
 8006a42:	697a      	ldr	r2, [r7, #20]
 8006a44:	68bb      	ldr	r3, [r7, #8]
 8006a46:	4313      	orrs	r3, r2
 8006a48:	617b      	str	r3, [r7, #20]

  /* Write to TIMx CCMR1 and CCER registers */
  TIMx->CCMR1 = tmpccmr1;
 8006a4a:	68fb      	ldr	r3, [r7, #12]
 8006a4c:	693a      	ldr	r2, [r7, #16]
 8006a4e:	619a      	str	r2, [r3, #24]
  TIMx->CCER = tmpccer;
 8006a50:	68fb      	ldr	r3, [r7, #12]
 8006a52:	697a      	ldr	r2, [r7, #20]
 8006a54:	621a      	str	r2, [r3, #32]
}
 8006a56:	bf00      	nop
 8006a58:	371c      	adds	r7, #28
 8006a5a:	46bd      	mov	sp, r7
 8006a5c:	bc80      	pop	{r7}
 8006a5e:	4770      	bx	lr

08006a60 <TIM_TI2_ConfigInputStage>:
  * @param  TIM_ICFilter Specifies the Input Capture Filter.
  *          This parameter must be a value between 0x00 and 0x0F.
  * @retval None
  */
static void TIM_TI2_ConfigInputStage(TIM_TypeDef *TIMx, uint32_t TIM_ICPolarity, uint32_t TIM_ICFilter)
{
 8006a60:	b480      	push	{r7}
 8006a62:	b087      	sub	sp, #28
 8006a64:	af00      	add	r7, sp, #0
 8006a66:	60f8      	str	r0, [r7, #12]
 8006a68:	60b9      	str	r1, [r7, #8]
 8006a6a:	607a      	str	r2, [r7, #4]
  uint32_t tmpccmr1;
  uint32_t tmpccer;

  /* Disable the Channel 2: Reset the CC2E Bit */
  tmpccer = TIMx->CCER;
 8006a6c:	68fb      	ldr	r3, [r7, #12]
 8006a6e:	6a1b      	ldr	r3, [r3, #32]
 8006a70:	617b      	str	r3, [r7, #20]
  TIMx->CCER &= ~TIM_CCER_CC2E;
 8006a72:	68fb      	ldr	r3, [r7, #12]
 8006a74:	6a1b      	ldr	r3, [r3, #32]
 8006a76:	f023 0210 	bic.w	r2, r3, #16
 8006a7a:	68fb      	ldr	r3, [r7, #12]
 8006a7c:	621a      	str	r2, [r3, #32]
  tmpccmr1 = TIMx->CCMR1;
 8006a7e:	68fb      	ldr	r3, [r7, #12]
 8006a80:	699b      	ldr	r3, [r3, #24]
 8006a82:	613b      	str	r3, [r7, #16]

  /* Set the filter */
  tmpccmr1 &= ~TIM_CCMR1_IC2F;
 8006a84:	693b      	ldr	r3, [r7, #16]
 8006a86:	f423 4370 	bic.w	r3, r3, #61440	@ 0xf000
 8006a8a:	613b      	str	r3, [r7, #16]
  tmpccmr1 |= (TIM_ICFilter << 12U);
 8006a8c:	687b      	ldr	r3, [r7, #4]
 8006a8e:	031b      	lsls	r3, r3, #12
 8006a90:	693a      	ldr	r2, [r7, #16]
 8006a92:	4313      	orrs	r3, r2
 8006a94:	613b      	str	r3, [r7, #16]

  /* Select the Polarity and set the CC2E Bit */
  tmpccer &= ~(TIM_CCER_CC2P | TIM_CCER_CC2NP);
 8006a96:	697b      	ldr	r3, [r7, #20]
 8006a98:	f023 03a0 	bic.w	r3, r3, #160	@ 0xa0
 8006a9c:	617b      	str	r3, [r7, #20]
  tmpccer |= (TIM_ICPolarity << 4U);
 8006a9e:	68bb      	ldr	r3, [r7, #8]
 8006aa0:	011b      	lsls	r3, r3, #4
 8006aa2:	697a      	ldr	r2, [r7, #20]
 8006aa4:	4313      	orrs	r3, r2
 8006aa6:	617b      	str	r3, [r7, #20]

  /* Write to TIMx CCMR1 and CCER registers */
  TIMx->CCMR1 = tmpccmr1 ;
 8006aa8:	68fb      	ldr	r3, [r7, #12]
 8006aaa:	693a      	ldr	r2, [r7, #16]
 8006aac:	619a      	str	r2, [r3, #24]
  TIMx->CCER = tmpccer;
 8006aae:	68fb      	ldr	r3, [r7, #12]
 8006ab0:	697a      	ldr	r2, [r7, #20]
 8006ab2:	621a      	str	r2, [r3, #32]
}
 8006ab4:	bf00      	nop
 8006ab6:	371c      	adds	r7, #28
 8006ab8:	46bd      	mov	sp, r7
 8006aba:	bc80      	pop	{r7}
 8006abc:	4770      	bx	lr

08006abe <TIM_ITRx_SetConfig>:
  *            @arg TIM_TS_TI2FP2: Filtered Timer Input 2
  *            @arg TIM_TS_ETRF: External Trigger input
  * @retval None
  */
static void TIM_ITRx_SetConfig(TIM_TypeDef *TIMx, uint32_t InputTriggerSource)
{
 8006abe:	b480      	push	{r7}
 8006ac0:	b085      	sub	sp, #20
 8006ac2:	af00      	add	r7, sp, #0
 8006ac4:	6078      	str	r0, [r7, #4]
 8006ac6:	6039      	str	r1, [r7, #0]
  uint32_t tmpsmcr;

  /* Get the TIMx SMCR register value */
  tmpsmcr = TIMx->SMCR;
 8006ac8:	687b      	ldr	r3, [r7, #4]
 8006aca:	689b      	ldr	r3, [r3, #8]
 8006acc:	60fb      	str	r3, [r7, #12]
  /* Reset the TS Bits */
  tmpsmcr &= ~TIM_SMCR_TS;
 8006ace:	68fb      	ldr	r3, [r7, #12]
 8006ad0:	f023 0370 	bic.w	r3, r3, #112	@ 0x70
 8006ad4:	60fb      	str	r3, [r7, #12]
  /* Set the Input Trigger source and the slave mode*/
  tmpsmcr |= (InputTriggerSource | TIM_SLAVEMODE_EXTERNAL1);
 8006ad6:	683a      	ldr	r2, [r7, #0]
 8006ad8:	68fb      	ldr	r3, [r7, #12]
 8006ada:	4313      	orrs	r3, r2
 8006adc:	f043 0307 	orr.w	r3, r3, #7
 8006ae0:	60fb      	str	r3, [r7, #12]
  /* Write to TIMx SMCR */
  TIMx->SMCR = tmpsmcr;
 8006ae2:	687b      	ldr	r3, [r7, #4]
 8006ae4:	68fa      	ldr	r2, [r7, #12]
 8006ae6:	609a      	str	r2, [r3, #8]
}
 8006ae8:	bf00      	nop
 8006aea:	3714      	adds	r7, #20
 8006aec:	46bd      	mov	sp, r7
 8006aee:	bc80      	pop	{r7}
 8006af0:	4770      	bx	lr

08006af2 <TIM_ETR_SetConfig>:
  *          This parameter must be a value between 0x00 and 0x0F
  * @retval None
  */
void TIM_ETR_SetConfig(TIM_TypeDef *TIMx, uint32_t TIM_ExtTRGPrescaler,
                       uint32_t TIM_ExtTRGPolarity, uint32_t ExtTRGFilter)
{
 8006af2:	b480      	push	{r7}
 8006af4:	b087      	sub	sp, #28
 8006af6:	af00      	add	r7, sp, #0
 8006af8:	60f8      	str	r0, [r7, #12]
 8006afa:	60b9      	str	r1, [r7, #8]
 8006afc:	607a      	str	r2, [r7, #4]
 8006afe:	603b      	str	r3, [r7, #0]
  uint32_t tmpsmcr;

  tmpsmcr = TIMx->SMCR;
 8006b00:	68fb      	ldr	r3, [r7, #12]
 8006b02:	689b      	ldr	r3, [r3, #8]
 8006b04:	617b      	str	r3, [r7, #20]

  /* Reset the ETR Bits */
  tmpsmcr &= ~(TIM_SMCR_ETF | TIM_SMCR_ETPS | TIM_SMCR_ECE | TIM_SMCR_ETP);
 8006b06:	697b      	ldr	r3, [r7, #20]
 8006b08:	f423 437f 	bic.w	r3, r3, #65280	@ 0xff00
 8006b0c:	617b      	str	r3, [r7, #20]

  /* Set the Prescaler, the Filter value and the Polarity */
  tmpsmcr |= (uint32_t)(TIM_ExtTRGPrescaler | (TIM_ExtTRGPolarity | (ExtTRGFilter << 8U)));
 8006b0e:	683b      	ldr	r3, [r7, #0]
 8006b10:	021a      	lsls	r2, r3, #8
 8006b12:	687b      	ldr	r3, [r7, #4]
 8006b14:	431a      	orrs	r2, r3
 8006b16:	68bb      	ldr	r3, [r7, #8]
 8006b18:	4313      	orrs	r3, r2
 8006b1a:	697a      	ldr	r2, [r7, #20]
 8006b1c:	4313      	orrs	r3, r2
 8006b1e:	617b      	str	r3, [r7, #20]

  /* Write to TIMx SMCR */
  TIMx->SMCR = tmpsmcr;
 8006b20:	68fb      	ldr	r3, [r7, #12]
 8006b22:	697a      	ldr	r2, [r7, #20]
 8006b24:	609a      	str	r2, [r3, #8]
}
 8006b26:	bf00      	nop
 8006b28:	371c      	adds	r7, #28
 8006b2a:	46bd      	mov	sp, r7
 8006b2c:	bc80      	pop	{r7}
 8006b2e:	4770      	bx	lr

08006b30 <TIM_CCxChannelCmd>:
  * @param  ChannelState specifies the TIM Channel CCxE bit new state.
  *          This parameter can be: TIM_CCx_ENABLE or TIM_CCx_DISABLE.
  * @retval None
  */
void TIM_CCxChannelCmd(TIM_TypeDef *TIMx, uint32_t Channel, uint32_t ChannelState)
{
 8006b30:	b480      	push	{r7}
 8006b32:	b087      	sub	sp, #28
 8006b34:	af00      	add	r7, sp, #0
 8006b36:	60f8      	str	r0, [r7, #12]
 8006b38:	60b9      	str	r1, [r7, #8]
 8006b3a:	607a      	str	r2, [r7, #4]

  /* Check the parameters */
  assert_param(IS_TIM_CC1_INSTANCE(TIMx));
  assert_param(IS_TIM_CHANNELS(Channel));

  tmp = TIM_CCER_CC1E << (Channel & 0x1FU); /* 0x1FU = 31 bits max shift */
 8006b3c:	68bb      	ldr	r3, [r7, #8]
 8006b3e:	f003 031f 	and.w	r3, r3, #31
 8006b42:	2201      	movs	r2, #1
 8006b44:	fa02 f303 	lsl.w	r3, r2, r3
 8006b48:	617b      	str	r3, [r7, #20]

  /* Reset the CCxE Bit */
  TIMx->CCER &= ~tmp;
 8006b4a:	68fb      	ldr	r3, [r7, #12]
 8006b4c:	6a1a      	ldr	r2, [r3, #32]
 8006b4e:	697b      	ldr	r3, [r7, #20]
 8006b50:	43db      	mvns	r3, r3
 8006b52:	401a      	ands	r2, r3
 8006b54:	68fb      	ldr	r3, [r7, #12]
 8006b56:	621a      	str	r2, [r3, #32]

  /* Set or reset the CCxE Bit */
  TIMx->CCER |= (uint32_t)(ChannelState << (Channel & 0x1FU)); /* 0x1FU = 31 bits max shift */
 8006b58:	68fb      	ldr	r3, [r7, #12]
 8006b5a:	6a1a      	ldr	r2, [r3, #32]
 8006b5c:	68bb      	ldr	r3, [r7, #8]
 8006b5e:	f003 031f 	and.w	r3, r3, #31
 8006b62:	6879      	ldr	r1, [r7, #4]
 8006b64:	fa01 f303 	lsl.w	r3, r1, r3
 8006b68:	431a      	orrs	r2, r3
 8006b6a:	68fb      	ldr	r3, [r7, #12]
 8006b6c:	621a      	str	r2, [r3, #32]
}
 8006b6e:	bf00      	nop
 8006b70:	371c      	adds	r7, #28
 8006b72:	46bd      	mov	sp, r7
 8006b74:	bc80      	pop	{r7}
 8006b76:	4770      	bx	lr

08006b78 <HAL_TIMEx_MasterConfigSynchronization>:
  *         mode.
  * @retval HAL status
  */
HAL_StatusTypeDef HAL_TIMEx_MasterConfigSynchronization(TIM_HandleTypeDef *htim,
                                                        const TIM_MasterConfigTypeDef *sMasterConfig)
{
 8006b78:	b480      	push	{r7}
 8006b7a:	b085      	sub	sp, #20
 8006b7c:	af00      	add	r7, sp, #0
 8006b7e:	6078      	str	r0, [r7, #4]
 8006b80:	6039      	str	r1, [r7, #0]
  assert_param(IS_TIM_MASTER_INSTANCE(htim->Instance));
  assert_param(IS_TIM_TRGO_SOURCE(sMasterConfig->MasterOutputTrigger));
  assert_param(IS_TIM_MSM_STATE(sMasterConfig->MasterSlaveMode));

  /* Check input state */
  __HAL_LOCK(htim);
 8006b82:	687b      	ldr	r3, [r7, #4]
 8006b84:	f893 303c 	ldrb.w	r3, [r3, #60]	@ 0x3c
 8006b88:	2b01      	cmp	r3, #1
 8006b8a:	d101      	bne.n	8006b90 <HAL_TIMEx_MasterConfigSynchronization+0x18>
 8006b8c:	2302      	movs	r3, #2
 8006b8e:	e046      	b.n	8006c1e <HAL_TIMEx_MasterConfigSynchronization+0xa6>
 8006b90:	687b      	ldr	r3, [r7, #4]
 8006b92:	2201      	movs	r2, #1
 8006b94:	f883 203c 	strb.w	r2, [r3, #60]	@ 0x3c

  /* Change the handler state */
  htim->State = HAL_TIM_STATE_BUSY;
 8006b98:	687b      	ldr	r3, [r7, #4]
 8006b9a:	2202      	movs	r2, #2
 8006b9c:	f883 203d 	strb.w	r2, [r3, #61]	@ 0x3d

  /* Get the TIMx CR2 register value */
  tmpcr2 = htim->Instance->CR2;
 8006ba0:	687b      	ldr	r3, [r7, #4]
 8006ba2:	681b      	ldr	r3, [r3, #0]
 8006ba4:	685b      	ldr	r3, [r3, #4]
 8006ba6:	60fb      	str	r3, [r7, #12]

  /* Get the TIMx SMCR register value */
  tmpsmcr = htim->Instance->SMCR;
 8006ba8:	687b      	ldr	r3, [r7, #4]
 8006baa:	681b      	ldr	r3, [r3, #0]
 8006bac:	689b      	ldr	r3, [r3, #8]
 8006bae:	60bb      	str	r3, [r7, #8]

  /* Reset the MMS Bits */
  tmpcr2 &= ~TIM_CR2_MMS;
 8006bb0:	68fb      	ldr	r3, [r7, #12]
 8006bb2:	f023 0370 	bic.w	r3, r3, #112	@ 0x70
 8006bb6:	60fb      	str	r3, [r7, #12]
  /* Select the TRGO source */
  tmpcr2 |=  sMasterConfig->MasterOutputTrigger;
 8006bb8:	683b      	ldr	r3, [r7, #0]
 8006bba:	681b      	ldr	r3, [r3, #0]
 8006bbc:	68fa      	ldr	r2, [r7, #12]
 8006bbe:	4313      	orrs	r3, r2
 8006bc0:	60fb      	str	r3, [r7, #12]

  /* Update TIMx CR2 */
  htim->Instance->CR2 = tmpcr2;
 8006bc2:	687b      	ldr	r3, [r7, #4]
 8006bc4:	681b      	ldr	r3, [r3, #0]
 8006bc6:	68fa      	ldr	r2, [r7, #12]
 8006bc8:	605a      	str	r2, [r3, #4]

  if (IS_TIM_SLAVE_INSTANCE(htim->Instance))
 8006bca:	687b      	ldr	r3, [r7, #4]
 8006bcc:	681b      	ldr	r3, [r3, #0]
 8006bce:	4a16      	ldr	r2, [pc, #88]	@ (8006c28 <HAL_TIMEx_MasterConfigSynchronization+0xb0>)
 8006bd0:	4293      	cmp	r3, r2
 8006bd2:	d00e      	beq.n	8006bf2 <HAL_TIMEx_MasterConfigSynchronization+0x7a>
 8006bd4:	687b      	ldr	r3, [r7, #4]
 8006bd6:	681b      	ldr	r3, [r3, #0]
 8006bd8:	f1b3 4f80 	cmp.w	r3, #1073741824	@ 0x40000000
 8006bdc:	d009      	beq.n	8006bf2 <HAL_TIMEx_MasterConfigSynchronization+0x7a>
 8006bde:	687b      	ldr	r3, [r7, #4]
 8006be0:	681b      	ldr	r3, [r3, #0]
 8006be2:	4a12      	ldr	r2, [pc, #72]	@ (8006c2c <HAL_TIMEx_MasterConfigSynchronization+0xb4>)
 8006be4:	4293      	cmp	r3, r2
 8006be6:	d004      	beq.n	8006bf2 <HAL_TIMEx_MasterConfigSynchronization+0x7a>
 8006be8:	687b      	ldr	r3, [r7, #4]
 8006bea:	681b      	ldr	r3, [r3, #0]
 8006bec:	4a10      	ldr	r2, [pc, #64]	@ (8006c30 <HAL_TIMEx_MasterConfigSynchronization+0xb8>)
 8006bee:	4293      	cmp	r3, r2
 8006bf0:	d10c      	bne.n	8006c0c <HAL_TIMEx_MasterConfigSynchronization+0x94>
  {
    /* Reset the MSM Bit */
    tmpsmcr &= ~TIM_SMCR_MSM;
 8006bf2:	68bb      	ldr	r3, [r7, #8]
 8006bf4:	f023 0380 	bic.w	r3, r3, #128	@ 0x80
 8006bf8:	60bb      	str	r3, [r7, #8]
    /* Set master mode */
    tmpsmcr |= sMasterConfig->MasterSlaveMode;
 8006bfa:	683b      	ldr	r3, [r7, #0]
 8006bfc:	685b      	ldr	r3, [r3, #4]
 8006bfe:	68ba      	ldr	r2, [r7, #8]
 8006c00:	4313      	orrs	r3, r2
 8006c02:	60bb      	str	r3, [r7, #8]

    /* Update TIMx SMCR */
    htim->Instance->SMCR = tmpsmcr;
 8006c04:	687b      	ldr	r3, [r7, #4]
 8006c06:	681b      	ldr	r3, [r3, #0]
 8006c08:	68ba      	ldr	r2, [r7, #8]
 8006c0a:	609a      	str	r2, [r3, #8]
  }

  /* Change the htim state */
  htim->State = HAL_TIM_STATE_READY;
 8006c0c:	687b      	ldr	r3, [r7, #4]
 8006c0e:	2201      	movs	r2, #1
 8006c10:	f883 203d 	strb.w	r2, [r3, #61]	@ 0x3d

  __HAL_UNLOCK(htim);
 8006c14:	687b      	ldr	r3, [r7, #4]
 8006c16:	2200      	movs	r2, #0
 8006c18:	f883 203c 	strb.w	r2, [r3, #60]	@ 0x3c

  return HAL_OK;
 8006c1c:	2300      	movs	r3, #0
}
 8006c1e:	4618      	mov	r0, r3
 8006c20:	3714      	adds	r7, #20
 8006c22:	46bd      	mov	sp, r7
 8006c24:	bc80      	pop	{r7}
 8006c26:	4770      	bx	lr
 8006c28:	40012c00 	.word	0x40012c00
 8006c2c:	40000400 	.word	0x40000400
 8006c30:	40000800 	.word	0x40000800

08006c34 <HAL_TIMEx_ConfigBreakDeadTime>:
  *         interrupt can be enabled by calling the @ref __HAL_TIM_ENABLE_IT macro.
  * @retval HAL status
  */
HAL_StatusTypeDef HAL_TIMEx_ConfigBreakDeadTime(TIM_HandleTypeDef *htim,
                                                const TIM_BreakDeadTimeConfigTypeDef *sBreakDeadTimeConfig)
{
 8006c34:	b480      	push	{r7}
 8006c36:	b085      	sub	sp, #20
 8006c38:	af00      	add	r7, sp, #0
 8006c3a:	6078      	str	r0, [r7, #4]
 8006c3c:	6039      	str	r1, [r7, #0]
  /* Keep this variable initialized to 0 as it is used to configure BDTR register */
  uint32_t tmpbdtr = 0U;
 8006c3e:	2300      	movs	r3, #0
 8006c40:	60fb      	str	r3, [r7, #12]
  assert_param(IS_TIM_BREAK_STATE(sBreakDeadTimeConfig->BreakState));
  assert_param(IS_TIM_BREAK_POLARITY(sBreakDeadTimeConfig->BreakPolarity));
  assert_param(IS_TIM_AUTOMATIC_OUTPUT_STATE(sBreakDeadTimeConfig->AutomaticOutput));

  /* Check input state */
  __HAL_LOCK(htim);
 8006c42:	687b      	ldr	r3, [r7, #4]
 8006c44:	f893 303c 	ldrb.w	r3, [r3, #60]	@ 0x3c
 8006c48:	2b01      	cmp	r3, #1
 8006c4a:	d101      	bne.n	8006c50 <HAL_TIMEx_ConfigBreakDeadTime+0x1c>
 8006c4c:	2302      	movs	r3, #2
 8006c4e:	e03d      	b.n	8006ccc <HAL_TIMEx_ConfigBreakDeadTime+0x98>
 8006c50:	687b      	ldr	r3, [r7, #4]
 8006c52:	2201      	movs	r2, #1
 8006c54:	f883 203c 	strb.w	r2, [r3, #60]	@ 0x3c

  /* Set the Lock level, the Break enable Bit and the Polarity, the OSSR State,
     the OSSI State, the dead time value and the Automatic Output Enable Bit */

  /* Set the BDTR bits */
  MODIFY_REG(tmpbdtr, TIM_BDTR_DTG, sBreakDeadTimeConfig->DeadTime);
 8006c58:	68fb      	ldr	r3, [r7, #12]
 8006c5a:	f023 02ff 	bic.w	r2, r3, #255	@ 0xff
 8006c5e:	683b      	ldr	r3, [r7, #0]
 8006c60:	68db      	ldr	r3, [r3, #12]
 8006c62:	4313      	orrs	r3, r2
 8006c64:	60fb      	str	r3, [r7, #12]
  MODIFY_REG(tmpbdtr, TIM_BDTR_LOCK, sBreakDeadTimeConfig->LockLevel);
 8006c66:	68fb      	ldr	r3, [r7, #12]
 8006c68:	f423 7240 	bic.w	r2, r3, #768	@ 0x300
 8006c6c:	683b      	ldr	r3, [r7, #0]
 8006c6e:	689b      	ldr	r3, [r3, #8]
 8006c70:	4313      	orrs	r3, r2
 8006c72:	60fb      	str	r3, [r7, #12]
  MODIFY_REG(tmpbdtr, TIM_BDTR_OSSI, sBreakDeadTimeConfig->OffStateIDLEMode);
 8006c74:	68fb      	ldr	r3, [r7, #12]
 8006c76:	f423 6280 	bic.w	r2, r3, #1024	@ 0x400
 8006c7a:	683b      	ldr	r3, [r7, #0]
 8006c7c:	685b      	ldr	r3, [r3, #4]
 8006c7e:	4313      	orrs	r3, r2
 8006c80:	60fb      	str	r3, [r7, #12]
  MODIFY_REG(tmpbdtr, TIM_BDTR_OSSR, sBreakDeadTimeConfig->OffStateRunMode);
 8006c82:	68fb      	ldr	r3, [r7, #12]
 8006c84:	f423 6200 	bic.w	r2, r3, #2048	@ 0x800
 8006c88:	683b      	ldr	r3, [r7, #0]
 8006c8a:	681b      	ldr	r3, [r3, #0]
 8006c8c:	4313      	orrs	r3, r2
 8006c8e:	60fb      	str	r3, [r7, #12]
  MODIFY_REG(tmpbdtr, TIM_BDTR_BKE, sBreakDeadTimeConfig->BreakState);
 8006c90:	68fb      	ldr	r3, [r7, #12]
 8006c92:	f423 5280 	bic.w	r2, r3, #4096	@ 0x1000
 8006c96:	683b      	ldr	r3, [r7, #0]
 8006c98:	691b      	ldr	r3, [r3, #16]
 8006c9a:	4313      	orrs	r3, r2
 8006c9c:	60fb      	str	r3, [r7, #12]
  MODIFY_REG(tmpbdtr, TIM_BDTR_BKP, sBreakDeadTimeConfig->BreakPolarity);
 8006c9e:	68fb      	ldr	r3, [r7, #12]
 8006ca0:	f423 5200 	bic.w	r2, r3, #8192	@ 0x2000
 8006ca4:	683b      	ldr	r3, [r7, #0]
 8006ca6:	695b      	ldr	r3, [r3, #20]
 8006ca8:	4313      	orrs	r3, r2
 8006caa:	60fb      	str	r3, [r7, #12]
  MODIFY_REG(tmpbdtr, TIM_BDTR_AOE, sBreakDeadTimeConfig->AutomaticOutput);
 8006cac:	68fb      	ldr	r3, [r7, #12]
 8006cae:	f423 4280 	bic.w	r2, r3, #16384	@ 0x4000
 8006cb2:	683b      	ldr	r3, [r7, #0]
 8006cb4:	69db      	ldr	r3, [r3, #28]
 8006cb6:	4313      	orrs	r3, r2
 8006cb8:	60fb      	str	r3, [r7, #12]


  /* Set TIMx_BDTR */
  htim->Instance->BDTR = tmpbdtr;
 8006cba:	687b      	ldr	r3, [r7, #4]
 8006cbc:	681b      	ldr	r3, [r3, #0]
 8006cbe:	68fa      	ldr	r2, [r7, #12]
 8006cc0:	645a      	str	r2, [r3, #68]	@ 0x44

  __HAL_UNLOCK(htim);
 8006cc2:	687b      	ldr	r3, [r7, #4]
 8006cc4:	2200      	movs	r2, #0
 8006cc6:	f883 203c 	strb.w	r2, [r3, #60]	@ 0x3c

  return HAL_OK;
 8006cca:	2300      	movs	r3, #0
}
 8006ccc:	4618      	mov	r0, r3
 8006cce:	3714      	adds	r7, #20
 8006cd0:	46bd      	mov	sp, r7
 8006cd2:	bc80      	pop	{r7}
 8006cd4:	4770      	bx	lr
	...

08006cd8 <siprintf>:
 8006cd8:	b40e      	push	{r1, r2, r3}
 8006cda:	f06f 4100 	mvn.w	r1, #2147483648	@ 0x80000000
 8006cde:	b510      	push	{r4, lr}
 8006ce0:	2400      	movs	r4, #0
 8006ce2:	b09d      	sub	sp, #116	@ 0x74
 8006ce4:	ab1f      	add	r3, sp, #124	@ 0x7c
 8006ce6:	9002      	str	r0, [sp, #8]
 8006ce8:	9006      	str	r0, [sp, #24]
 8006cea:	9107      	str	r1, [sp, #28]
 8006cec:	9104      	str	r1, [sp, #16]
 8006cee:	4809      	ldr	r0, [pc, #36]	@ (8006d14 <siprintf+0x3c>)
 8006cf0:	4909      	ldr	r1, [pc, #36]	@ (8006d18 <siprintf+0x40>)
 8006cf2:	f853 2b04 	ldr.w	r2, [r3], #4
 8006cf6:	9105      	str	r1, [sp, #20]
 8006cf8:	6800      	ldr	r0, [r0, #0]
 8006cfa:	a902      	add	r1, sp, #8
 8006cfc:	9301      	str	r3, [sp, #4]
 8006cfe:	941b      	str	r4, [sp, #108]	@ 0x6c
 8006d00:	f000 f9b4 	bl	800706c <_svfiprintf_r>
 8006d04:	9b02      	ldr	r3, [sp, #8]
 8006d06:	701c      	strb	r4, [r3, #0]
 8006d08:	b01d      	add	sp, #116	@ 0x74
 8006d0a:	e8bd 4010 	ldmia.w	sp!, {r4, lr}
 8006d0e:	b003      	add	sp, #12
 8006d10:	4770      	bx	lr
 8006d12:	bf00      	nop
 8006d14:	20000024 	.word	0x20000024
 8006d18:	ffff0208 	.word	0xffff0208

08006d1c <memset>:
 8006d1c:	4603      	mov	r3, r0
 8006d1e:	4402      	add	r2, r0
 8006d20:	4293      	cmp	r3, r2
 8006d22:	d100      	bne.n	8006d26 <memset+0xa>
 8006d24:	4770      	bx	lr
 8006d26:	f803 1b01 	strb.w	r1, [r3], #1
 8006d2a:	e7f9      	b.n	8006d20 <memset+0x4>

08006d2c <strncpy>:
 8006d2c:	4603      	mov	r3, r0
 8006d2e:	b510      	push	{r4, lr}
 8006d30:	3901      	subs	r1, #1
 8006d32:	b132      	cbz	r2, 8006d42 <strncpy+0x16>
 8006d34:	f811 4f01 	ldrb.w	r4, [r1, #1]!
 8006d38:	3a01      	subs	r2, #1
 8006d3a:	f803 4b01 	strb.w	r4, [r3], #1
 8006d3e:	2c00      	cmp	r4, #0
 8006d40:	d1f7      	bne.n	8006d32 <strncpy+0x6>
 8006d42:	2100      	movs	r1, #0
 8006d44:	441a      	add	r2, r3
 8006d46:	4293      	cmp	r3, r2
 8006d48:	d100      	bne.n	8006d4c <strncpy+0x20>
 8006d4a:	bd10      	pop	{r4, pc}
 8006d4c:	f803 1b01 	strb.w	r1, [r3], #1
 8006d50:	e7f9      	b.n	8006d46 <strncpy+0x1a>
	...

08006d54 <__errno>:
 8006d54:	4b01      	ldr	r3, [pc, #4]	@ (8006d5c <__errno+0x8>)
 8006d56:	6818      	ldr	r0, [r3, #0]
 8006d58:	4770      	bx	lr
 8006d5a:	bf00      	nop
 8006d5c:	20000024 	.word	0x20000024

08006d60 <__libc_init_array>:
 8006d60:	b570      	push	{r4, r5, r6, lr}
 8006d62:	2600      	movs	r6, #0
 8006d64:	4d0c      	ldr	r5, [pc, #48]	@ (8006d98 <__libc_init_array+0x38>)
 8006d66:	4c0d      	ldr	r4, [pc, #52]	@ (8006d9c <__libc_init_array+0x3c>)
 8006d68:	1b64      	subs	r4, r4, r5
 8006d6a:	10a4      	asrs	r4, r4, #2
 8006d6c:	42a6      	cmp	r6, r4
 8006d6e:	d109      	bne.n	8006d84 <__libc_init_array+0x24>
 8006d70:	f001 fed2 	bl	8008b18 <_init>
 8006d74:	2600      	movs	r6, #0
 8006d76:	4d0a      	ldr	r5, [pc, #40]	@ (8006da0 <__libc_init_array+0x40>)
 8006d78:	4c0a      	ldr	r4, [pc, #40]	@ (8006da4 <__libc_init_array+0x44>)
 8006d7a:	1b64      	subs	r4, r4, r5
 8006d7c:	10a4      	asrs	r4, r4, #2
 8006d7e:	42a6      	cmp	r6, r4
 8006d80:	d105      	bne.n	8006d8e <__libc_init_array+0x2e>
 8006d82:	bd70      	pop	{r4, r5, r6, pc}
 8006d84:	f855 3b04 	ldr.w	r3, [r5], #4
 8006d88:	4798      	blx	r3
 8006d8a:	3601      	adds	r6, #1
 8006d8c:	e7ee      	b.n	8006d6c <__libc_init_array+0xc>
 8006d8e:	f855 3b04 	ldr.w	r3, [r5], #4
 8006d92:	4798      	blx	r3
 8006d94:	3601      	adds	r6, #1
 8006d96:	e7f2      	b.n	8006d7e <__libc_init_array+0x1e>
 8006d98:	08009364 	.word	0x08009364
 8006d9c:	08009364 	.word	0x08009364
 8006da0:	08009364 	.word	0x08009364
 8006da4:	08009368 	.word	0x08009368

08006da8 <__retarget_lock_acquire_recursive>:
 8006da8:	4770      	bx	lr

08006daa <__retarget_lock_release_recursive>:
 8006daa:	4770      	bx	lr

08006dac <memcpy>:
 8006dac:	440a      	add	r2, r1
 8006dae:	4291      	cmp	r1, r2
 8006db0:	f100 33ff 	add.w	r3, r0, #4294967295
 8006db4:	d100      	bne.n	8006db8 <memcpy+0xc>
 8006db6:	4770      	bx	lr
 8006db8:	b510      	push	{r4, lr}
 8006dba:	f811 4b01 	ldrb.w	r4, [r1], #1
 8006dbe:	4291      	cmp	r1, r2
 8006dc0:	f803 4f01 	strb.w	r4, [r3, #1]!
 8006dc4:	d1f9      	bne.n	8006dba <memcpy+0xe>
 8006dc6:	bd10      	pop	{r4, pc}

08006dc8 <_free_r>:
 8006dc8:	b538      	push	{r3, r4, r5, lr}
 8006dca:	4605      	mov	r5, r0
 8006dcc:	2900      	cmp	r1, #0
 8006dce:	d040      	beq.n	8006e52 <_free_r+0x8a>
 8006dd0:	f851 3c04 	ldr.w	r3, [r1, #-4]
 8006dd4:	1f0c      	subs	r4, r1, #4
 8006dd6:	2b00      	cmp	r3, #0
 8006dd8:	bfb8      	it	lt
 8006dda:	18e4      	addlt	r4, r4, r3
 8006ddc:	f000 f8de 	bl	8006f9c <__malloc_lock>
 8006de0:	4a1c      	ldr	r2, [pc, #112]	@ (8006e54 <_free_r+0x8c>)
 8006de2:	6813      	ldr	r3, [r2, #0]
 8006de4:	b933      	cbnz	r3, 8006df4 <_free_r+0x2c>
 8006de6:	6063      	str	r3, [r4, #4]
 8006de8:	6014      	str	r4, [r2, #0]
 8006dea:	4628      	mov	r0, r5
 8006dec:	e8bd 4038 	ldmia.w	sp!, {r3, r4, r5, lr}
 8006df0:	f000 b8da 	b.w	8006fa8 <__malloc_unlock>
 8006df4:	42a3      	cmp	r3, r4
 8006df6:	d908      	bls.n	8006e0a <_free_r+0x42>
 8006df8:	6820      	ldr	r0, [r4, #0]
 8006dfa:	1821      	adds	r1, r4, r0
 8006dfc:	428b      	cmp	r3, r1
 8006dfe:	bf01      	itttt	eq
 8006e00:	6819      	ldreq	r1, [r3, #0]
 8006e02:	685b      	ldreq	r3, [r3, #4]
 8006e04:	1809      	addeq	r1, r1, r0
 8006e06:	6021      	streq	r1, [r4, #0]
 8006e08:	e7ed      	b.n	8006de6 <_free_r+0x1e>
 8006e0a:	461a      	mov	r2, r3
 8006e0c:	685b      	ldr	r3, [r3, #4]
 8006e0e:	b10b      	cbz	r3, 8006e14 <_free_r+0x4c>
 8006e10:	42a3      	cmp	r3, r4
 8006e12:	d9fa      	bls.n	8006e0a <_free_r+0x42>
 8006e14:	6811      	ldr	r1, [r2, #0]
 8006e16:	1850      	adds	r0, r2, r1
 8006e18:	42a0      	cmp	r0, r4
 8006e1a:	d10b      	bne.n	8006e34 <_free_r+0x6c>
 8006e1c:	6820      	ldr	r0, [r4, #0]
 8006e1e:	4401      	add	r1, r0
 8006e20:	1850      	adds	r0, r2, r1
 8006e22:	4283      	cmp	r3, r0
 8006e24:	6011      	str	r1, [r2, #0]
 8006e26:	d1e0      	bne.n	8006dea <_free_r+0x22>
 8006e28:	6818      	ldr	r0, [r3, #0]
 8006e2a:	685b      	ldr	r3, [r3, #4]
 8006e2c:	4408      	add	r0, r1
 8006e2e:	6010      	str	r0, [r2, #0]
 8006e30:	6053      	str	r3, [r2, #4]
 8006e32:	e7da      	b.n	8006dea <_free_r+0x22>
 8006e34:	d902      	bls.n	8006e3c <_free_r+0x74>
 8006e36:	230c      	movs	r3, #12
 8006e38:	602b      	str	r3, [r5, #0]
 8006e3a:	e7d6      	b.n	8006dea <_free_r+0x22>
 8006e3c:	6820      	ldr	r0, [r4, #0]
 8006e3e:	1821      	adds	r1, r4, r0
 8006e40:	428b      	cmp	r3, r1
 8006e42:	bf01      	itttt	eq
 8006e44:	6819      	ldreq	r1, [r3, #0]
 8006e46:	685b      	ldreq	r3, [r3, #4]
 8006e48:	1809      	addeq	r1, r1, r0
 8006e4a:	6021      	streq	r1, [r4, #0]
 8006e4c:	6063      	str	r3, [r4, #4]
 8006e4e:	6054      	str	r4, [r2, #4]
 8006e50:	e7cb      	b.n	8006dea <_free_r+0x22>
 8006e52:	bd38      	pop	{r3, r4, r5, pc}
 8006e54:	20003f20 	.word	0x20003f20

08006e58 <sbrk_aligned>:
 8006e58:	b570      	push	{r4, r5, r6, lr}
 8006e5a:	4e0f      	ldr	r6, [pc, #60]	@ (8006e98 <sbrk_aligned+0x40>)
 8006e5c:	460c      	mov	r4, r1
 8006e5e:	6831      	ldr	r1, [r6, #0]
 8006e60:	4605      	mov	r5, r0
 8006e62:	b911      	cbnz	r1, 8006e6a <sbrk_aligned+0x12>
 8006e64:	f000 fba8 	bl	80075b8 <_sbrk_r>
 8006e68:	6030      	str	r0, [r6, #0]
 8006e6a:	4621      	mov	r1, r4
 8006e6c:	4628      	mov	r0, r5
 8006e6e:	f000 fba3 	bl	80075b8 <_sbrk_r>
 8006e72:	1c43      	adds	r3, r0, #1
 8006e74:	d103      	bne.n	8006e7e <sbrk_aligned+0x26>
 8006e76:	f04f 34ff 	mov.w	r4, #4294967295
 8006e7a:	4620      	mov	r0, r4
 8006e7c:	bd70      	pop	{r4, r5, r6, pc}
 8006e7e:	1cc4      	adds	r4, r0, #3
 8006e80:	f024 0403 	bic.w	r4, r4, #3
 8006e84:	42a0      	cmp	r0, r4
 8006e86:	d0f8      	beq.n	8006e7a <sbrk_aligned+0x22>
 8006e88:	1a21      	subs	r1, r4, r0
 8006e8a:	4628      	mov	r0, r5
 8006e8c:	f000 fb94 	bl	80075b8 <_sbrk_r>
 8006e90:	3001      	adds	r0, #1
 8006e92:	d1f2      	bne.n	8006e7a <sbrk_aligned+0x22>
 8006e94:	e7ef      	b.n	8006e76 <sbrk_aligned+0x1e>
 8006e96:	bf00      	nop
 8006e98:	20003f1c 	.word	0x20003f1c

08006e9c <_malloc_r>:
 8006e9c:	e92d 43f8 	stmdb	sp!, {r3, r4, r5, r6, r7, r8, r9, lr}
 8006ea0:	1ccd      	adds	r5, r1, #3
 8006ea2:	f025 0503 	bic.w	r5, r5, #3
 8006ea6:	3508      	adds	r5, #8
 8006ea8:	2d0c      	cmp	r5, #12
 8006eaa:	bf38      	it	cc
 8006eac:	250c      	movcc	r5, #12
 8006eae:	2d00      	cmp	r5, #0
 8006eb0:	4606      	mov	r6, r0
 8006eb2:	db01      	blt.n	8006eb8 <_malloc_r+0x1c>
 8006eb4:	42a9      	cmp	r1, r5
 8006eb6:	d904      	bls.n	8006ec2 <_malloc_r+0x26>
 8006eb8:	230c      	movs	r3, #12
 8006eba:	6033      	str	r3, [r6, #0]
 8006ebc:	2000      	movs	r0, #0
 8006ebe:	e8bd 83f8 	ldmia.w	sp!, {r3, r4, r5, r6, r7, r8, r9, pc}
 8006ec2:	f8df 80d4 	ldr.w	r8, [pc, #212]	@ 8006f98 <_malloc_r+0xfc>
 8006ec6:	f000 f869 	bl	8006f9c <__malloc_lock>
 8006eca:	f8d8 3000 	ldr.w	r3, [r8]
 8006ece:	461c      	mov	r4, r3
 8006ed0:	bb44      	cbnz	r4, 8006f24 <_malloc_r+0x88>
 8006ed2:	4629      	mov	r1, r5
 8006ed4:	4630      	mov	r0, r6
 8006ed6:	f7ff ffbf 	bl	8006e58 <sbrk_aligned>
 8006eda:	1c43      	adds	r3, r0, #1
 8006edc:	4604      	mov	r4, r0
 8006ede:	d158      	bne.n	8006f92 <_malloc_r+0xf6>
 8006ee0:	f8d8 4000 	ldr.w	r4, [r8]
 8006ee4:	4627      	mov	r7, r4
 8006ee6:	2f00      	cmp	r7, #0
 8006ee8:	d143      	bne.n	8006f72 <_malloc_r+0xd6>
 8006eea:	2c00      	cmp	r4, #0
 8006eec:	d04b      	beq.n	8006f86 <_malloc_r+0xea>
 8006eee:	6823      	ldr	r3, [r4, #0]
 8006ef0:	4639      	mov	r1, r7
 8006ef2:	4630      	mov	r0, r6
 8006ef4:	eb04 0903 	add.w	r9, r4, r3
 8006ef8:	f000 fb5e 	bl	80075b8 <_sbrk_r>
 8006efc:	4581      	cmp	r9, r0
 8006efe:	d142      	bne.n	8006f86 <_malloc_r+0xea>
 8006f00:	6821      	ldr	r1, [r4, #0]
 8006f02:	4630      	mov	r0, r6
 8006f04:	1a6d      	subs	r5, r5, r1
 8006f06:	4629      	mov	r1, r5
 8006f08:	f7ff ffa6 	bl	8006e58 <sbrk_aligned>
 8006f0c:	3001      	adds	r0, #1
 8006f0e:	d03a      	beq.n	8006f86 <_malloc_r+0xea>
 8006f10:	6823      	ldr	r3, [r4, #0]
 8006f12:	442b      	add	r3, r5
 8006f14:	6023      	str	r3, [r4, #0]
 8006f16:	f8d8 3000 	ldr.w	r3, [r8]
 8006f1a:	685a      	ldr	r2, [r3, #4]
 8006f1c:	bb62      	cbnz	r2, 8006f78 <_malloc_r+0xdc>
 8006f1e:	f8c8 7000 	str.w	r7, [r8]
 8006f22:	e00f      	b.n	8006f44 <_malloc_r+0xa8>
 8006f24:	6822      	ldr	r2, [r4, #0]
 8006f26:	1b52      	subs	r2, r2, r5
 8006f28:	d420      	bmi.n	8006f6c <_malloc_r+0xd0>
 8006f2a:	2a0b      	cmp	r2, #11
 8006f2c:	d917      	bls.n	8006f5e <_malloc_r+0xc2>
 8006f2e:	1961      	adds	r1, r4, r5
 8006f30:	42a3      	cmp	r3, r4
 8006f32:	6025      	str	r5, [r4, #0]
 8006f34:	bf18      	it	ne
 8006f36:	6059      	strne	r1, [r3, #4]
 8006f38:	6863      	ldr	r3, [r4, #4]
 8006f3a:	bf08      	it	eq
 8006f3c:	f8c8 1000 	streq.w	r1, [r8]
 8006f40:	5162      	str	r2, [r4, r5]
 8006f42:	604b      	str	r3, [r1, #4]
 8006f44:	4630      	mov	r0, r6
 8006f46:	f000 f82f 	bl	8006fa8 <__malloc_unlock>
 8006f4a:	f104 000b 	add.w	r0, r4, #11
 8006f4e:	1d23      	adds	r3, r4, #4
 8006f50:	f020 0007 	bic.w	r0, r0, #7
 8006f54:	1ac2      	subs	r2, r0, r3
 8006f56:	bf1c      	itt	ne
 8006f58:	1a1b      	subne	r3, r3, r0
 8006f5a:	50a3      	strne	r3, [r4, r2]
 8006f5c:	e7af      	b.n	8006ebe <_malloc_r+0x22>
 8006f5e:	6862      	ldr	r2, [r4, #4]
 8006f60:	42a3      	cmp	r3, r4
 8006f62:	bf0c      	ite	eq
 8006f64:	f8c8 2000 	streq.w	r2, [r8]
 8006f68:	605a      	strne	r2, [r3, #4]
 8006f6a:	e7eb      	b.n	8006f44 <_malloc_r+0xa8>
 8006f6c:	4623      	mov	r3, r4
 8006f6e:	6864      	ldr	r4, [r4, #4]
 8006f70:	e7ae      	b.n	8006ed0 <_malloc_r+0x34>
 8006f72:	463c      	mov	r4, r7
 8006f74:	687f      	ldr	r7, [r7, #4]
 8006f76:	e7b6      	b.n	8006ee6 <_malloc_r+0x4a>
 8006f78:	461a      	mov	r2, r3
 8006f7a:	685b      	ldr	r3, [r3, #4]
 8006f7c:	42a3      	cmp	r3, r4
 8006f7e:	d1fb      	bne.n	8006f78 <_malloc_r+0xdc>
 8006f80:	2300      	movs	r3, #0
 8006f82:	6053      	str	r3, [r2, #4]
 8006f84:	e7de      	b.n	8006f44 <_malloc_r+0xa8>
 8006f86:	230c      	movs	r3, #12
 8006f88:	4630      	mov	r0, r6
 8006f8a:	6033      	str	r3, [r6, #0]
 8006f8c:	f000 f80c 	bl	8006fa8 <__malloc_unlock>
 8006f90:	e794      	b.n	8006ebc <_malloc_r+0x20>
 8006f92:	6005      	str	r5, [r0, #0]
 8006f94:	e7d6      	b.n	8006f44 <_malloc_r+0xa8>
 8006f96:	bf00      	nop
 8006f98:	20003f20 	.word	0x20003f20

08006f9c <__malloc_lock>:
 8006f9c:	4801      	ldr	r0, [pc, #4]	@ (8006fa4 <__malloc_lock+0x8>)
 8006f9e:	f7ff bf03 	b.w	8006da8 <__retarget_lock_acquire_recursive>
 8006fa2:	bf00      	nop
 8006fa4:	20003f18 	.word	0x20003f18

08006fa8 <__malloc_unlock>:
 8006fa8:	4801      	ldr	r0, [pc, #4]	@ (8006fb0 <__malloc_unlock+0x8>)
 8006faa:	f7ff befe 	b.w	8006daa <__retarget_lock_release_recursive>
 8006fae:	bf00      	nop
 8006fb0:	20003f18 	.word	0x20003f18

08006fb4 <__ssputs_r>:
 8006fb4:	e92d 47f0 	stmdb	sp!, {r4, r5, r6, r7, r8, r9, sl, lr}
 8006fb8:	461f      	mov	r7, r3
 8006fba:	688e      	ldr	r6, [r1, #8]
 8006fbc:	4682      	mov	sl, r0
 8006fbe:	42be      	cmp	r6, r7
 8006fc0:	460c      	mov	r4, r1
 8006fc2:	4690      	mov	r8, r2
 8006fc4:	680b      	ldr	r3, [r1, #0]
 8006fc6:	d82d      	bhi.n	8007024 <__ssputs_r+0x70>
 8006fc8:	f9b1 200c 	ldrsh.w	r2, [r1, #12]
 8006fcc:	f412 6f90 	tst.w	r2, #1152	@ 0x480
 8006fd0:	d026      	beq.n	8007020 <__ssputs_r+0x6c>
 8006fd2:	6965      	ldr	r5, [r4, #20]
 8006fd4:	6909      	ldr	r1, [r1, #16]
 8006fd6:	eb05 0545 	add.w	r5, r5, r5, lsl #1
 8006fda:	eba3 0901 	sub.w	r9, r3, r1
 8006fde:	eb05 75d5 	add.w	r5, r5, r5, lsr #31
 8006fe2:	1c7b      	adds	r3, r7, #1
 8006fe4:	444b      	add	r3, r9
 8006fe6:	106d      	asrs	r5, r5, #1
 8006fe8:	429d      	cmp	r5, r3
 8006fea:	bf38      	it	cc
 8006fec:	461d      	movcc	r5, r3
 8006fee:	0553      	lsls	r3, r2, #21
 8006ff0:	d527      	bpl.n	8007042 <__ssputs_r+0x8e>
 8006ff2:	4629      	mov	r1, r5
 8006ff4:	f7ff ff52 	bl	8006e9c <_malloc_r>
 8006ff8:	4606      	mov	r6, r0
 8006ffa:	b360      	cbz	r0, 8007056 <__ssputs_r+0xa2>
 8006ffc:	464a      	mov	r2, r9
 8006ffe:	6921      	ldr	r1, [r4, #16]
 8007000:	f7ff fed4 	bl	8006dac <memcpy>
 8007004:	89a3      	ldrh	r3, [r4, #12]
 8007006:	f423 6390 	bic.w	r3, r3, #1152	@ 0x480
 800700a:	f043 0380 	orr.w	r3, r3, #128	@ 0x80
 800700e:	81a3      	strh	r3, [r4, #12]
 8007010:	6126      	str	r6, [r4, #16]
 8007012:	444e      	add	r6, r9
 8007014:	6026      	str	r6, [r4, #0]
 8007016:	463e      	mov	r6, r7
 8007018:	6165      	str	r5, [r4, #20]
 800701a:	eba5 0509 	sub.w	r5, r5, r9
 800701e:	60a5      	str	r5, [r4, #8]
 8007020:	42be      	cmp	r6, r7
 8007022:	d900      	bls.n	8007026 <__ssputs_r+0x72>
 8007024:	463e      	mov	r6, r7
 8007026:	4632      	mov	r2, r6
 8007028:	4641      	mov	r1, r8
 800702a:	6820      	ldr	r0, [r4, #0]
 800702c:	f000 faaa 	bl	8007584 <memmove>
 8007030:	2000      	movs	r0, #0
 8007032:	68a3      	ldr	r3, [r4, #8]
 8007034:	1b9b      	subs	r3, r3, r6
 8007036:	60a3      	str	r3, [r4, #8]
 8007038:	6823      	ldr	r3, [r4, #0]
 800703a:	4433      	add	r3, r6
 800703c:	6023      	str	r3, [r4, #0]
 800703e:	e8bd 87f0 	ldmia.w	sp!, {r4, r5, r6, r7, r8, r9, sl, pc}
 8007042:	462a      	mov	r2, r5
 8007044:	f000 fad6 	bl	80075f4 <_realloc_r>
 8007048:	4606      	mov	r6, r0
 800704a:	2800      	cmp	r0, #0
 800704c:	d1e0      	bne.n	8007010 <__ssputs_r+0x5c>
 800704e:	4650      	mov	r0, sl
 8007050:	6921      	ldr	r1, [r4, #16]
 8007052:	f7ff feb9 	bl	8006dc8 <_free_r>
 8007056:	230c      	movs	r3, #12
 8007058:	f8ca 3000 	str.w	r3, [sl]
 800705c:	89a3      	ldrh	r3, [r4, #12]
 800705e:	f04f 30ff 	mov.w	r0, #4294967295
 8007062:	f043 0340 	orr.w	r3, r3, #64	@ 0x40
 8007066:	81a3      	strh	r3, [r4, #12]
 8007068:	e7e9      	b.n	800703e <__ssputs_r+0x8a>
	...

0800706c <_svfiprintf_r>:
 800706c:	e92d 4ff0 	stmdb	sp!, {r4, r5, r6, r7, r8, r9, sl, fp, lr}
 8007070:	4698      	mov	r8, r3
 8007072:	898b      	ldrh	r3, [r1, #12]
 8007074:	4607      	mov	r7, r0
 8007076:	061b      	lsls	r3, r3, #24
 8007078:	460d      	mov	r5, r1
 800707a:	4614      	mov	r4, r2
 800707c:	b09d      	sub	sp, #116	@ 0x74
 800707e:	d510      	bpl.n	80070a2 <_svfiprintf_r+0x36>
 8007080:	690b      	ldr	r3, [r1, #16]
 8007082:	b973      	cbnz	r3, 80070a2 <_svfiprintf_r+0x36>
 8007084:	2140      	movs	r1, #64	@ 0x40
 8007086:	f7ff ff09 	bl	8006e9c <_malloc_r>
 800708a:	6028      	str	r0, [r5, #0]
 800708c:	6128      	str	r0, [r5, #16]
 800708e:	b930      	cbnz	r0, 800709e <_svfiprintf_r+0x32>
 8007090:	230c      	movs	r3, #12
 8007092:	603b      	str	r3, [r7, #0]
 8007094:	f04f 30ff 	mov.w	r0, #4294967295
 8007098:	b01d      	add	sp, #116	@ 0x74
 800709a:	e8bd 8ff0 	ldmia.w	sp!, {r4, r5, r6, r7, r8, r9, sl, fp, pc}
 800709e:	2340      	movs	r3, #64	@ 0x40
 80070a0:	616b      	str	r3, [r5, #20]
 80070a2:	2300      	movs	r3, #0
 80070a4:	9309      	str	r3, [sp, #36]	@ 0x24
 80070a6:	2320      	movs	r3, #32
 80070a8:	f88d 3029 	strb.w	r3, [sp, #41]	@ 0x29
 80070ac:	2330      	movs	r3, #48	@ 0x30
 80070ae:	f04f 0901 	mov.w	r9, #1
 80070b2:	f8cd 800c 	str.w	r8, [sp, #12]
 80070b6:	f8df 8198 	ldr.w	r8, [pc, #408]	@ 8007250 <_svfiprintf_r+0x1e4>
 80070ba:	f88d 302a 	strb.w	r3, [sp, #42]	@ 0x2a
 80070be:	4623      	mov	r3, r4
 80070c0:	469a      	mov	sl, r3
 80070c2:	f813 2b01 	ldrb.w	r2, [r3], #1
 80070c6:	b10a      	cbz	r2, 80070cc <_svfiprintf_r+0x60>
 80070c8:	2a25      	cmp	r2, #37	@ 0x25
 80070ca:	d1f9      	bne.n	80070c0 <_svfiprintf_r+0x54>
 80070cc:	ebba 0b04 	subs.w	fp, sl, r4
 80070d0:	d00b      	beq.n	80070ea <_svfiprintf_r+0x7e>
 80070d2:	465b      	mov	r3, fp
 80070d4:	4622      	mov	r2, r4
 80070d6:	4629      	mov	r1, r5
 80070d8:	4638      	mov	r0, r7
 80070da:	f7ff ff6b 	bl	8006fb4 <__ssputs_r>
 80070de:	3001      	adds	r0, #1
 80070e0:	f000 80a7 	beq.w	8007232 <_svfiprintf_r+0x1c6>
 80070e4:	9a09      	ldr	r2, [sp, #36]	@ 0x24
 80070e6:	445a      	add	r2, fp
 80070e8:	9209      	str	r2, [sp, #36]	@ 0x24
 80070ea:	f89a 3000 	ldrb.w	r3, [sl]
 80070ee:	2b00      	cmp	r3, #0
 80070f0:	f000 809f 	beq.w	8007232 <_svfiprintf_r+0x1c6>
 80070f4:	2300      	movs	r3, #0
 80070f6:	f04f 32ff 	mov.w	r2, #4294967295
 80070fa:	e9cd 2305 	strd	r2, r3, [sp, #20]
 80070fe:	f10a 0a01 	add.w	sl, sl, #1
 8007102:	9304      	str	r3, [sp, #16]
 8007104:	9307      	str	r3, [sp, #28]
 8007106:	f88d 3053 	strb.w	r3, [sp, #83]	@ 0x53
 800710a:	931a      	str	r3, [sp, #104]	@ 0x68
 800710c:	4654      	mov	r4, sl
 800710e:	2205      	movs	r2, #5
 8007110:	f814 1b01 	ldrb.w	r1, [r4], #1
 8007114:	484e      	ldr	r0, [pc, #312]	@ (8007250 <_svfiprintf_r+0x1e4>)
 8007116:	f000 fa5f 	bl	80075d8 <memchr>
 800711a:	9a04      	ldr	r2, [sp, #16]
 800711c:	b9d8      	cbnz	r0, 8007156 <_svfiprintf_r+0xea>
 800711e:	06d0      	lsls	r0, r2, #27
 8007120:	bf44      	itt	mi
 8007122:	2320      	movmi	r3, #32
 8007124:	f88d 3053 	strbmi.w	r3, [sp, #83]	@ 0x53
 8007128:	0711      	lsls	r1, r2, #28
 800712a:	bf44      	itt	mi
 800712c:	232b      	movmi	r3, #43	@ 0x2b
 800712e:	f88d 3053 	strbmi.w	r3, [sp, #83]	@ 0x53
 8007132:	f89a 3000 	ldrb.w	r3, [sl]
 8007136:	2b2a      	cmp	r3, #42	@ 0x2a
 8007138:	d015      	beq.n	8007166 <_svfiprintf_r+0xfa>
 800713a:	4654      	mov	r4, sl
 800713c:	2000      	movs	r0, #0
 800713e:	f04f 0c0a 	mov.w	ip, #10
 8007142:	9a07      	ldr	r2, [sp, #28]
 8007144:	4621      	mov	r1, r4
 8007146:	f811 3b01 	ldrb.w	r3, [r1], #1
 800714a:	3b30      	subs	r3, #48	@ 0x30
 800714c:	2b09      	cmp	r3, #9
 800714e:	d94b      	bls.n	80071e8 <_svfiprintf_r+0x17c>
 8007150:	b1b0      	cbz	r0, 8007180 <_svfiprintf_r+0x114>
 8007152:	9207      	str	r2, [sp, #28]
 8007154:	e014      	b.n	8007180 <_svfiprintf_r+0x114>
 8007156:	eba0 0308 	sub.w	r3, r0, r8
 800715a:	fa09 f303 	lsl.w	r3, r9, r3
 800715e:	4313      	orrs	r3, r2
 8007160:	46a2      	mov	sl, r4
 8007162:	9304      	str	r3, [sp, #16]
 8007164:	e7d2      	b.n	800710c <_svfiprintf_r+0xa0>
 8007166:	9b03      	ldr	r3, [sp, #12]
 8007168:	1d19      	adds	r1, r3, #4
 800716a:	681b      	ldr	r3, [r3, #0]
 800716c:	9103      	str	r1, [sp, #12]
 800716e:	2b00      	cmp	r3, #0
 8007170:	bfbb      	ittet	lt
 8007172:	425b      	neglt	r3, r3
 8007174:	f042 0202 	orrlt.w	r2, r2, #2
 8007178:	9307      	strge	r3, [sp, #28]
 800717a:	9307      	strlt	r3, [sp, #28]
 800717c:	bfb8      	it	lt
 800717e:	9204      	strlt	r2, [sp, #16]
 8007180:	7823      	ldrb	r3, [r4, #0]
 8007182:	2b2e      	cmp	r3, #46	@ 0x2e
 8007184:	d10a      	bne.n	800719c <_svfiprintf_r+0x130>
 8007186:	7863      	ldrb	r3, [r4, #1]
 8007188:	2b2a      	cmp	r3, #42	@ 0x2a
 800718a:	d132      	bne.n	80071f2 <_svfiprintf_r+0x186>
 800718c:	9b03      	ldr	r3, [sp, #12]
 800718e:	3402      	adds	r4, #2
 8007190:	1d1a      	adds	r2, r3, #4
 8007192:	681b      	ldr	r3, [r3, #0]
 8007194:	9203      	str	r2, [sp, #12]
 8007196:	ea43 73e3 	orr.w	r3, r3, r3, asr #31
 800719a:	9305      	str	r3, [sp, #20]
 800719c:	f8df a0b4 	ldr.w	sl, [pc, #180]	@ 8007254 <_svfiprintf_r+0x1e8>
 80071a0:	2203      	movs	r2, #3
 80071a2:	4650      	mov	r0, sl
 80071a4:	7821      	ldrb	r1, [r4, #0]
 80071a6:	f000 fa17 	bl	80075d8 <memchr>
 80071aa:	b138      	cbz	r0, 80071bc <_svfiprintf_r+0x150>
 80071ac:	2240      	movs	r2, #64	@ 0x40
 80071ae:	9b04      	ldr	r3, [sp, #16]
 80071b0:	eba0 000a 	sub.w	r0, r0, sl
 80071b4:	4082      	lsls	r2, r0
 80071b6:	4313      	orrs	r3, r2
 80071b8:	3401      	adds	r4, #1
 80071ba:	9304      	str	r3, [sp, #16]
 80071bc:	f814 1b01 	ldrb.w	r1, [r4], #1
 80071c0:	2206      	movs	r2, #6
 80071c2:	4825      	ldr	r0, [pc, #148]	@ (8007258 <_svfiprintf_r+0x1ec>)
 80071c4:	f88d 1028 	strb.w	r1, [sp, #40]	@ 0x28
 80071c8:	f000 fa06 	bl	80075d8 <memchr>
 80071cc:	2800      	cmp	r0, #0
 80071ce:	d036      	beq.n	800723e <_svfiprintf_r+0x1d2>
 80071d0:	4b22      	ldr	r3, [pc, #136]	@ (800725c <_svfiprintf_r+0x1f0>)
 80071d2:	bb1b      	cbnz	r3, 800721c <_svfiprintf_r+0x1b0>
 80071d4:	9b03      	ldr	r3, [sp, #12]
 80071d6:	3307      	adds	r3, #7
 80071d8:	f023 0307 	bic.w	r3, r3, #7
 80071dc:	3308      	adds	r3, #8
 80071de:	9303      	str	r3, [sp, #12]
 80071e0:	9b09      	ldr	r3, [sp, #36]	@ 0x24
 80071e2:	4433      	add	r3, r6
 80071e4:	9309      	str	r3, [sp, #36]	@ 0x24
 80071e6:	e76a      	b.n	80070be <_svfiprintf_r+0x52>
 80071e8:	460c      	mov	r4, r1
 80071ea:	2001      	movs	r0, #1
 80071ec:	fb0c 3202 	mla	r2, ip, r2, r3
 80071f0:	e7a8      	b.n	8007144 <_svfiprintf_r+0xd8>
 80071f2:	2300      	movs	r3, #0
 80071f4:	f04f 0c0a 	mov.w	ip, #10
 80071f8:	4619      	mov	r1, r3
 80071fa:	3401      	adds	r4, #1
 80071fc:	9305      	str	r3, [sp, #20]
 80071fe:	4620      	mov	r0, r4
 8007200:	f810 2b01 	ldrb.w	r2, [r0], #1
 8007204:	3a30      	subs	r2, #48	@ 0x30
 8007206:	2a09      	cmp	r2, #9
 8007208:	d903      	bls.n	8007212 <_svfiprintf_r+0x1a6>
 800720a:	2b00      	cmp	r3, #0
 800720c:	d0c6      	beq.n	800719c <_svfiprintf_r+0x130>
 800720e:	9105      	str	r1, [sp, #20]
 8007210:	e7c4      	b.n	800719c <_svfiprintf_r+0x130>
 8007212:	4604      	mov	r4, r0
 8007214:	2301      	movs	r3, #1
 8007216:	fb0c 2101 	mla	r1, ip, r1, r2
 800721a:	e7f0      	b.n	80071fe <_svfiprintf_r+0x192>
 800721c:	ab03      	add	r3, sp, #12
 800721e:	9300      	str	r3, [sp, #0]
 8007220:	462a      	mov	r2, r5
 8007222:	4638      	mov	r0, r7
 8007224:	4b0e      	ldr	r3, [pc, #56]	@ (8007260 <_svfiprintf_r+0x1f4>)
 8007226:	a904      	add	r1, sp, #16
 8007228:	f3af 8000 	nop.w
 800722c:	1c42      	adds	r2, r0, #1
 800722e:	4606      	mov	r6, r0
 8007230:	d1d6      	bne.n	80071e0 <_svfiprintf_r+0x174>
 8007232:	89ab      	ldrh	r3, [r5, #12]
 8007234:	065b      	lsls	r3, r3, #25
 8007236:	f53f af2d 	bmi.w	8007094 <_svfiprintf_r+0x28>
 800723a:	9809      	ldr	r0, [sp, #36]	@ 0x24
 800723c:	e72c      	b.n	8007098 <_svfiprintf_r+0x2c>
 800723e:	ab03      	add	r3, sp, #12
 8007240:	9300      	str	r3, [sp, #0]
 8007242:	462a      	mov	r2, r5
 8007244:	4638      	mov	r0, r7
 8007246:	4b06      	ldr	r3, [pc, #24]	@ (8007260 <_svfiprintf_r+0x1f4>)
 8007248:	a904      	add	r1, sp, #16
 800724a:	f000 f87d 	bl	8007348 <_printf_i>
 800724e:	e7ed      	b.n	800722c <_svfiprintf_r+0x1c0>
 8007250:	08008f36 	.word	0x08008f36
 8007254:	08008f3c 	.word	0x08008f3c
 8007258:	08008f40 	.word	0x08008f40
 800725c:	00000000 	.word	0x00000000
 8007260:	08006fb5 	.word	0x08006fb5

08007264 <_printf_common>:
 8007264:	e92d 47f0 	stmdb	sp!, {r4, r5, r6, r7, r8, r9, sl, lr}
 8007268:	4616      	mov	r6, r2
 800726a:	4698      	mov	r8, r3
 800726c:	688a      	ldr	r2, [r1, #8]
 800726e:	690b      	ldr	r3, [r1, #16]
 8007270:	4607      	mov	r7, r0
 8007272:	4293      	cmp	r3, r2
 8007274:	bfb8      	it	lt
 8007276:	4613      	movlt	r3, r2
 8007278:	6033      	str	r3, [r6, #0]
 800727a:	f891 2043 	ldrb.w	r2, [r1, #67]	@ 0x43
 800727e:	460c      	mov	r4, r1
 8007280:	f8dd 9020 	ldr.w	r9, [sp, #32]
 8007284:	b10a      	cbz	r2, 800728a <_printf_common+0x26>
 8007286:	3301      	adds	r3, #1
 8007288:	6033      	str	r3, [r6, #0]
 800728a:	6823      	ldr	r3, [r4, #0]
 800728c:	0699      	lsls	r1, r3, #26
 800728e:	bf42      	ittt	mi
 8007290:	6833      	ldrmi	r3, [r6, #0]
 8007292:	3302      	addmi	r3, #2
 8007294:	6033      	strmi	r3, [r6, #0]
 8007296:	6825      	ldr	r5, [r4, #0]
 8007298:	f015 0506 	ands.w	r5, r5, #6
 800729c:	d106      	bne.n	80072ac <_printf_common+0x48>
 800729e:	f104 0a19 	add.w	sl, r4, #25
 80072a2:	68e3      	ldr	r3, [r4, #12]
 80072a4:	6832      	ldr	r2, [r6, #0]
 80072a6:	1a9b      	subs	r3, r3, r2
 80072a8:	42ab      	cmp	r3, r5
 80072aa:	dc2b      	bgt.n	8007304 <_printf_common+0xa0>
 80072ac:	f894 3043 	ldrb.w	r3, [r4, #67]	@ 0x43
 80072b0:	6822      	ldr	r2, [r4, #0]
 80072b2:	3b00      	subs	r3, #0
 80072b4:	bf18      	it	ne
 80072b6:	2301      	movne	r3, #1
 80072b8:	0692      	lsls	r2, r2, #26
 80072ba:	d430      	bmi.n	800731e <_printf_common+0xba>
 80072bc:	4641      	mov	r1, r8
 80072be:	4638      	mov	r0, r7
 80072c0:	f104 0243 	add.w	r2, r4, #67	@ 0x43
 80072c4:	47c8      	blx	r9
 80072c6:	3001      	adds	r0, #1
 80072c8:	d023      	beq.n	8007312 <_printf_common+0xae>
 80072ca:	6823      	ldr	r3, [r4, #0]
 80072cc:	6922      	ldr	r2, [r4, #16]
 80072ce:	f003 0306 	and.w	r3, r3, #6
 80072d2:	2b04      	cmp	r3, #4
 80072d4:	bf14      	ite	ne
 80072d6:	2500      	movne	r5, #0
 80072d8:	6833      	ldreq	r3, [r6, #0]
 80072da:	f04f 0600 	mov.w	r6, #0
 80072de:	bf08      	it	eq
 80072e0:	68e5      	ldreq	r5, [r4, #12]
 80072e2:	f104 041a 	add.w	r4, r4, #26
 80072e6:	bf08      	it	eq
 80072e8:	1aed      	subeq	r5, r5, r3
 80072ea:	f854 3c12 	ldr.w	r3, [r4, #-18]
 80072ee:	bf08      	it	eq
 80072f0:	ea25 75e5 	biceq.w	r5, r5, r5, asr #31
 80072f4:	4293      	cmp	r3, r2
 80072f6:	bfc4      	itt	gt
 80072f8:	1a9b      	subgt	r3, r3, r2
 80072fa:	18ed      	addgt	r5, r5, r3
 80072fc:	42b5      	cmp	r5, r6
 80072fe:	d11a      	bne.n	8007336 <_printf_common+0xd2>
 8007300:	2000      	movs	r0, #0
 8007302:	e008      	b.n	8007316 <_printf_common+0xb2>
 8007304:	2301      	movs	r3, #1
 8007306:	4652      	mov	r2, sl
 8007308:	4641      	mov	r1, r8
 800730a:	4638      	mov	r0, r7
 800730c:	47c8      	blx	r9
 800730e:	3001      	adds	r0, #1
 8007310:	d103      	bne.n	800731a <_printf_common+0xb6>
 8007312:	f04f 30ff 	mov.w	r0, #4294967295
 8007316:	e8bd 87f0 	ldmia.w	sp!, {r4, r5, r6, r7, r8, r9, sl, pc}
 800731a:	3501      	adds	r5, #1
 800731c:	e7c1      	b.n	80072a2 <_printf_common+0x3e>
 800731e:	2030      	movs	r0, #48	@ 0x30
 8007320:	18e1      	adds	r1, r4, r3
 8007322:	f881 0043 	strb.w	r0, [r1, #67]	@ 0x43
 8007326:	1c5a      	adds	r2, r3, #1
 8007328:	f894 1045 	ldrb.w	r1, [r4, #69]	@ 0x45
 800732c:	4422      	add	r2, r4
 800732e:	3302      	adds	r3, #2
 8007330:	f882 1043 	strb.w	r1, [r2, #67]	@ 0x43
 8007334:	e7c2      	b.n	80072bc <_printf_common+0x58>
 8007336:	2301      	movs	r3, #1
 8007338:	4622      	mov	r2, r4
 800733a:	4641      	mov	r1, r8
 800733c:	4638      	mov	r0, r7
 800733e:	47c8      	blx	r9
 8007340:	3001      	adds	r0, #1
 8007342:	d0e6      	beq.n	8007312 <_printf_common+0xae>
 8007344:	3601      	adds	r6, #1
 8007346:	e7d9      	b.n	80072fc <_printf_common+0x98>

08007348 <_printf_i>:
 8007348:	e92d 47ff 	stmdb	sp!, {r0, r1, r2, r3, r4, r5, r6, r7, r8, r9, sl, lr}
 800734c:	7e0f      	ldrb	r7, [r1, #24]
 800734e:	4691      	mov	r9, r2
 8007350:	2f78      	cmp	r7, #120	@ 0x78
 8007352:	4680      	mov	r8, r0
 8007354:	460c      	mov	r4, r1
 8007356:	469a      	mov	sl, r3
 8007358:	9e0c      	ldr	r6, [sp, #48]	@ 0x30
 800735a:	f101 0243 	add.w	r2, r1, #67	@ 0x43
 800735e:	d807      	bhi.n	8007370 <_printf_i+0x28>
 8007360:	2f62      	cmp	r7, #98	@ 0x62
 8007362:	d80a      	bhi.n	800737a <_printf_i+0x32>
 8007364:	2f00      	cmp	r7, #0
 8007366:	f000 80d1 	beq.w	800750c <_printf_i+0x1c4>
 800736a:	2f58      	cmp	r7, #88	@ 0x58
 800736c:	f000 80b8 	beq.w	80074e0 <_printf_i+0x198>
 8007370:	f104 0642 	add.w	r6, r4, #66	@ 0x42
 8007374:	f884 7042 	strb.w	r7, [r4, #66]	@ 0x42
 8007378:	e03a      	b.n	80073f0 <_printf_i+0xa8>
 800737a:	f1a7 0363 	sub.w	r3, r7, #99	@ 0x63
 800737e:	2b15      	cmp	r3, #21
 8007380:	d8f6      	bhi.n	8007370 <_printf_i+0x28>
 8007382:	a101      	add	r1, pc, #4	@ (adr r1, 8007388 <_printf_i+0x40>)
 8007384:	f851 f023 	ldr.w	pc, [r1, r3, lsl #2]
 8007388:	080073e1 	.word	0x080073e1
 800738c:	080073f5 	.word	0x080073f5
 8007390:	08007371 	.word	0x08007371
 8007394:	08007371 	.word	0x08007371
 8007398:	08007371 	.word	0x08007371
 800739c:	08007371 	.word	0x08007371
 80073a0:	080073f5 	.word	0x080073f5
 80073a4:	08007371 	.word	0x08007371
 80073a8:	08007371 	.word	0x08007371
 80073ac:	08007371 	.word	0x08007371
 80073b0:	08007371 	.word	0x08007371
 80073b4:	080074f3 	.word	0x080074f3
 80073b8:	0800741f 	.word	0x0800741f
 80073bc:	080074ad 	.word	0x080074ad
 80073c0:	08007371 	.word	0x08007371
 80073c4:	08007371 	.word	0x08007371
 80073c8:	08007515 	.word	0x08007515
 80073cc:	08007371 	.word	0x08007371
 80073d0:	0800741f 	.word	0x0800741f
 80073d4:	08007371 	.word	0x08007371
 80073d8:	08007371 	.word	0x08007371
 80073dc:	080074b5 	.word	0x080074b5
 80073e0:	6833      	ldr	r3, [r6, #0]
 80073e2:	1d1a      	adds	r2, r3, #4
 80073e4:	681b      	ldr	r3, [r3, #0]
 80073e6:	6032      	str	r2, [r6, #0]
 80073e8:	f104 0642 	add.w	r6, r4, #66	@ 0x42
 80073ec:	f884 3042 	strb.w	r3, [r4, #66]	@ 0x42
 80073f0:	2301      	movs	r3, #1
 80073f2:	e09c      	b.n	800752e <_printf_i+0x1e6>
 80073f4:	6833      	ldr	r3, [r6, #0]
 80073f6:	6820      	ldr	r0, [r4, #0]
 80073f8:	1d19      	adds	r1, r3, #4
 80073fa:	6031      	str	r1, [r6, #0]
 80073fc:	0606      	lsls	r6, r0, #24
 80073fe:	d501      	bpl.n	8007404 <_printf_i+0xbc>
 8007400:	681d      	ldr	r5, [r3, #0]
 8007402:	e003      	b.n	800740c <_printf_i+0xc4>
 8007404:	0645      	lsls	r5, r0, #25
 8007406:	d5fb      	bpl.n	8007400 <_printf_i+0xb8>
 8007408:	f9b3 5000 	ldrsh.w	r5, [r3]
 800740c:	2d00      	cmp	r5, #0
 800740e:	da03      	bge.n	8007418 <_printf_i+0xd0>
 8007410:	232d      	movs	r3, #45	@ 0x2d
 8007412:	426d      	negs	r5, r5
 8007414:	f884 3043 	strb.w	r3, [r4, #67]	@ 0x43
 8007418:	230a      	movs	r3, #10
 800741a:	4858      	ldr	r0, [pc, #352]	@ (800757c <_printf_i+0x234>)
 800741c:	e011      	b.n	8007442 <_printf_i+0xfa>
 800741e:	6821      	ldr	r1, [r4, #0]
 8007420:	6833      	ldr	r3, [r6, #0]
 8007422:	0608      	lsls	r0, r1, #24
 8007424:	f853 5b04 	ldr.w	r5, [r3], #4
 8007428:	d402      	bmi.n	8007430 <_printf_i+0xe8>
 800742a:	0649      	lsls	r1, r1, #25
 800742c:	bf48      	it	mi
 800742e:	b2ad      	uxthmi	r5, r5
 8007430:	2f6f      	cmp	r7, #111	@ 0x6f
 8007432:	6033      	str	r3, [r6, #0]
 8007434:	bf14      	ite	ne
 8007436:	230a      	movne	r3, #10
 8007438:	2308      	moveq	r3, #8
 800743a:	4850      	ldr	r0, [pc, #320]	@ (800757c <_printf_i+0x234>)
 800743c:	2100      	movs	r1, #0
 800743e:	f884 1043 	strb.w	r1, [r4, #67]	@ 0x43
 8007442:	6866      	ldr	r6, [r4, #4]
 8007444:	2e00      	cmp	r6, #0
 8007446:	60a6      	str	r6, [r4, #8]
 8007448:	db05      	blt.n	8007456 <_printf_i+0x10e>
 800744a:	6821      	ldr	r1, [r4, #0]
 800744c:	432e      	orrs	r6, r5
 800744e:	f021 0104 	bic.w	r1, r1, #4
 8007452:	6021      	str	r1, [r4, #0]
 8007454:	d04b      	beq.n	80074ee <_printf_i+0x1a6>
 8007456:	4616      	mov	r6, r2
 8007458:	fbb5 f1f3 	udiv	r1, r5, r3
 800745c:	fb03 5711 	mls	r7, r3, r1, r5
 8007460:	5dc7      	ldrb	r7, [r0, r7]
 8007462:	f806 7d01 	strb.w	r7, [r6, #-1]!
 8007466:	462f      	mov	r7, r5
 8007468:	42bb      	cmp	r3, r7
 800746a:	460d      	mov	r5, r1
 800746c:	d9f4      	bls.n	8007458 <_printf_i+0x110>
 800746e:	2b08      	cmp	r3, #8
 8007470:	d10b      	bne.n	800748a <_printf_i+0x142>
 8007472:	6823      	ldr	r3, [r4, #0]
 8007474:	07df      	lsls	r7, r3, #31
 8007476:	d508      	bpl.n	800748a <_printf_i+0x142>
 8007478:	6923      	ldr	r3, [r4, #16]
 800747a:	6861      	ldr	r1, [r4, #4]
 800747c:	4299      	cmp	r1, r3
 800747e:	bfde      	ittt	le
 8007480:	2330      	movle	r3, #48	@ 0x30
 8007482:	f806 3c01 	strble.w	r3, [r6, #-1]
 8007486:	f106 36ff 	addle.w	r6, r6, #4294967295
 800748a:	1b92      	subs	r2, r2, r6
 800748c:	6122      	str	r2, [r4, #16]
 800748e:	464b      	mov	r3, r9
 8007490:	4621      	mov	r1, r4
 8007492:	4640      	mov	r0, r8
 8007494:	f8cd a000 	str.w	sl, [sp]
 8007498:	aa03      	add	r2, sp, #12
 800749a:	f7ff fee3 	bl	8007264 <_printf_common>
 800749e:	3001      	adds	r0, #1
 80074a0:	d14a      	bne.n	8007538 <_printf_i+0x1f0>
 80074a2:	f04f 30ff 	mov.w	r0, #4294967295
 80074a6:	b004      	add	sp, #16
 80074a8:	e8bd 87f0 	ldmia.w	sp!, {r4, r5, r6, r7, r8, r9, sl, pc}
 80074ac:	6823      	ldr	r3, [r4, #0]
 80074ae:	f043 0320 	orr.w	r3, r3, #32
 80074b2:	6023      	str	r3, [r4, #0]
 80074b4:	2778      	movs	r7, #120	@ 0x78
 80074b6:	4832      	ldr	r0, [pc, #200]	@ (8007580 <_printf_i+0x238>)
 80074b8:	f884 7045 	strb.w	r7, [r4, #69]	@ 0x45
 80074bc:	6823      	ldr	r3, [r4, #0]
 80074be:	6831      	ldr	r1, [r6, #0]
 80074c0:	061f      	lsls	r7, r3, #24
 80074c2:	f851 5b04 	ldr.w	r5, [r1], #4
 80074c6:	d402      	bmi.n	80074ce <_printf_i+0x186>
 80074c8:	065f      	lsls	r7, r3, #25
 80074ca:	bf48      	it	mi
 80074cc:	b2ad      	uxthmi	r5, r5
 80074ce:	6031      	str	r1, [r6, #0]
 80074d0:	07d9      	lsls	r1, r3, #31
 80074d2:	bf44      	itt	mi
 80074d4:	f043 0320 	orrmi.w	r3, r3, #32
 80074d8:	6023      	strmi	r3, [r4, #0]
 80074da:	b11d      	cbz	r5, 80074e4 <_printf_i+0x19c>
 80074dc:	2310      	movs	r3, #16
 80074de:	e7ad      	b.n	800743c <_printf_i+0xf4>
 80074e0:	4826      	ldr	r0, [pc, #152]	@ (800757c <_printf_i+0x234>)
 80074e2:	e7e9      	b.n	80074b8 <_printf_i+0x170>
 80074e4:	6823      	ldr	r3, [r4, #0]
 80074e6:	f023 0320 	bic.w	r3, r3, #32
 80074ea:	6023      	str	r3, [r4, #0]
 80074ec:	e7f6      	b.n	80074dc <_printf_i+0x194>
 80074ee:	4616      	mov	r6, r2
 80074f0:	e7bd      	b.n	800746e <_printf_i+0x126>
 80074f2:	6833      	ldr	r3, [r6, #0]
 80074f4:	6825      	ldr	r5, [r4, #0]
 80074f6:	1d18      	adds	r0, r3, #4
 80074f8:	6961      	ldr	r1, [r4, #20]
 80074fa:	6030      	str	r0, [r6, #0]
 80074fc:	062e      	lsls	r6, r5, #24
 80074fe:	681b      	ldr	r3, [r3, #0]
 8007500:	d501      	bpl.n	8007506 <_printf_i+0x1be>
 8007502:	6019      	str	r1, [r3, #0]
 8007504:	e002      	b.n	800750c <_printf_i+0x1c4>
 8007506:	0668      	lsls	r0, r5, #25
 8007508:	d5fb      	bpl.n	8007502 <_printf_i+0x1ba>
 800750a:	8019      	strh	r1, [r3, #0]
 800750c:	2300      	movs	r3, #0
 800750e:	4616      	mov	r6, r2
 8007510:	6123      	str	r3, [r4, #16]
 8007512:	e7bc      	b.n	800748e <_printf_i+0x146>
 8007514:	6833      	ldr	r3, [r6, #0]
 8007516:	2100      	movs	r1, #0
 8007518:	1d1a      	adds	r2, r3, #4
 800751a:	6032      	str	r2, [r6, #0]
 800751c:	681e      	ldr	r6, [r3, #0]
 800751e:	6862      	ldr	r2, [r4, #4]
 8007520:	4630      	mov	r0, r6
 8007522:	f000 f859 	bl	80075d8 <memchr>
 8007526:	b108      	cbz	r0, 800752c <_printf_i+0x1e4>
 8007528:	1b80      	subs	r0, r0, r6
 800752a:	6060      	str	r0, [r4, #4]
 800752c:	6863      	ldr	r3, [r4, #4]
 800752e:	6123      	str	r3, [r4, #16]
 8007530:	2300      	movs	r3, #0
 8007532:	f884 3043 	strb.w	r3, [r4, #67]	@ 0x43
 8007536:	e7aa      	b.n	800748e <_printf_i+0x146>
 8007538:	4632      	mov	r2, r6
 800753a:	4649      	mov	r1, r9
 800753c:	4640      	mov	r0, r8
 800753e:	6923      	ldr	r3, [r4, #16]
 8007540:	47d0      	blx	sl
 8007542:	3001      	adds	r0, #1
 8007544:	d0ad      	beq.n	80074a2 <_printf_i+0x15a>
 8007546:	6823      	ldr	r3, [r4, #0]
 8007548:	079b      	lsls	r3, r3, #30
 800754a:	d413      	bmi.n	8007574 <_printf_i+0x22c>
 800754c:	68e0      	ldr	r0, [r4, #12]
 800754e:	9b03      	ldr	r3, [sp, #12]
 8007550:	4298      	cmp	r0, r3
 8007552:	bfb8      	it	lt
 8007554:	4618      	movlt	r0, r3
 8007556:	e7a6      	b.n	80074a6 <_printf_i+0x15e>
 8007558:	2301      	movs	r3, #1
 800755a:	4632      	mov	r2, r6
 800755c:	4649      	mov	r1, r9
 800755e:	4640      	mov	r0, r8
 8007560:	47d0      	blx	sl
 8007562:	3001      	adds	r0, #1
 8007564:	d09d      	beq.n	80074a2 <_printf_i+0x15a>
 8007566:	3501      	adds	r5, #1
 8007568:	68e3      	ldr	r3, [r4, #12]
 800756a:	9903      	ldr	r1, [sp, #12]
 800756c:	1a5b      	subs	r3, r3, r1
 800756e:	42ab      	cmp	r3, r5
 8007570:	dcf2      	bgt.n	8007558 <_printf_i+0x210>
 8007572:	e7eb      	b.n	800754c <_printf_i+0x204>
 8007574:	2500      	movs	r5, #0
 8007576:	f104 0619 	add.w	r6, r4, #25
 800757a:	e7f5      	b.n	8007568 <_printf_i+0x220>
 800757c:	08008f47 	.word	0x08008f47
 8007580:	08008f58 	.word	0x08008f58

08007584 <memmove>:
 8007584:	4288      	cmp	r0, r1
 8007586:	b510      	push	{r4, lr}
 8007588:	eb01 0402 	add.w	r4, r1, r2
 800758c:	d902      	bls.n	8007594 <memmove+0x10>
 800758e:	4284      	cmp	r4, r0
 8007590:	4623      	mov	r3, r4
 8007592:	d807      	bhi.n	80075a4 <memmove+0x20>
 8007594:	1e43      	subs	r3, r0, #1
 8007596:	42a1      	cmp	r1, r4
 8007598:	d008      	beq.n	80075ac <memmove+0x28>
 800759a:	f811 2b01 	ldrb.w	r2, [r1], #1
 800759e:	f803 2f01 	strb.w	r2, [r3, #1]!
 80075a2:	e7f8      	b.n	8007596 <memmove+0x12>
 80075a4:	4601      	mov	r1, r0
 80075a6:	4402      	add	r2, r0
 80075a8:	428a      	cmp	r2, r1
 80075aa:	d100      	bne.n	80075ae <memmove+0x2a>
 80075ac:	bd10      	pop	{r4, pc}
 80075ae:	f813 4d01 	ldrb.w	r4, [r3, #-1]!
 80075b2:	f802 4d01 	strb.w	r4, [r2, #-1]!
 80075b6:	e7f7      	b.n	80075a8 <memmove+0x24>

080075b8 <_sbrk_r>:
 80075b8:	b538      	push	{r3, r4, r5, lr}
 80075ba:	2300      	movs	r3, #0
 80075bc:	4d05      	ldr	r5, [pc, #20]	@ (80075d4 <_sbrk_r+0x1c>)
 80075be:	4604      	mov	r4, r0
 80075c0:	4608      	mov	r0, r1
 80075c2:	602b      	str	r3, [r5, #0]
 80075c4:	f7fc fce8 	bl	8003f98 <_sbrk>
 80075c8:	1c43      	adds	r3, r0, #1
 80075ca:	d102      	bne.n	80075d2 <_sbrk_r+0x1a>
 80075cc:	682b      	ldr	r3, [r5, #0]
 80075ce:	b103      	cbz	r3, 80075d2 <_sbrk_r+0x1a>
 80075d0:	6023      	str	r3, [r4, #0]
 80075d2:	bd38      	pop	{r3, r4, r5, pc}
 80075d4:	20003f14 	.word	0x20003f14

080075d8 <memchr>:
 80075d8:	4603      	mov	r3, r0
 80075da:	b510      	push	{r4, lr}
 80075dc:	b2c9      	uxtb	r1, r1
 80075de:	4402      	add	r2, r0
 80075e0:	4293      	cmp	r3, r2
 80075e2:	4618      	mov	r0, r3
 80075e4:	d101      	bne.n	80075ea <memchr+0x12>
 80075e6:	2000      	movs	r0, #0
 80075e8:	e003      	b.n	80075f2 <memchr+0x1a>
 80075ea:	7804      	ldrb	r4, [r0, #0]
 80075ec:	3301      	adds	r3, #1
 80075ee:	428c      	cmp	r4, r1
 80075f0:	d1f6      	bne.n	80075e0 <memchr+0x8>
 80075f2:	bd10      	pop	{r4, pc}

080075f4 <_realloc_r>:
 80075f4:	e92d 41f0 	stmdb	sp!, {r4, r5, r6, r7, r8, lr}
 80075f8:	4607      	mov	r7, r0
 80075fa:	4614      	mov	r4, r2
 80075fc:	460d      	mov	r5, r1
 80075fe:	b921      	cbnz	r1, 800760a <_realloc_r+0x16>
 8007600:	4611      	mov	r1, r2
 8007602:	e8bd 41f0 	ldmia.w	sp!, {r4, r5, r6, r7, r8, lr}
 8007606:	f7ff bc49 	b.w	8006e9c <_malloc_r>
 800760a:	b92a      	cbnz	r2, 8007618 <_realloc_r+0x24>
 800760c:	f7ff fbdc 	bl	8006dc8 <_free_r>
 8007610:	4625      	mov	r5, r4
 8007612:	4628      	mov	r0, r5
 8007614:	e8bd 81f0 	ldmia.w	sp!, {r4, r5, r6, r7, r8, pc}
 8007618:	f000 f81a 	bl	8007650 <_malloc_usable_size_r>
 800761c:	4284      	cmp	r4, r0
 800761e:	4606      	mov	r6, r0
 8007620:	d802      	bhi.n	8007628 <_realloc_r+0x34>
 8007622:	ebb4 0f50 	cmp.w	r4, r0, lsr #1
 8007626:	d8f4      	bhi.n	8007612 <_realloc_r+0x1e>
 8007628:	4621      	mov	r1, r4
 800762a:	4638      	mov	r0, r7
 800762c:	f7ff fc36 	bl	8006e9c <_malloc_r>
 8007630:	4680      	mov	r8, r0
 8007632:	b908      	cbnz	r0, 8007638 <_realloc_r+0x44>
 8007634:	4645      	mov	r5, r8
 8007636:	e7ec      	b.n	8007612 <_realloc_r+0x1e>
 8007638:	42b4      	cmp	r4, r6
 800763a:	4622      	mov	r2, r4
 800763c:	4629      	mov	r1, r5
 800763e:	bf28      	it	cs
 8007640:	4632      	movcs	r2, r6
 8007642:	f7ff fbb3 	bl	8006dac <memcpy>
 8007646:	4629      	mov	r1, r5
 8007648:	4638      	mov	r0, r7
 800764a:	f7ff fbbd 	bl	8006dc8 <_free_r>
 800764e:	e7f1      	b.n	8007634 <_realloc_r+0x40>

08007650 <_malloc_usable_size_r>:
 8007650:	f851 3c04 	ldr.w	r3, [r1, #-4]
 8007654:	1f18      	subs	r0, r3, #4
 8007656:	2b00      	cmp	r3, #0
 8007658:	bfbc      	itt	lt
 800765a:	580b      	ldrlt	r3, [r1, r0]
 800765c:	18c0      	addlt	r0, r0, r3
 800765e:	4770      	bx	lr

08007660 <powf>:
 8007660:	b570      	push	{r4, r5, r6, lr}
 8007662:	460c      	mov	r4, r1
 8007664:	4606      	mov	r6, r0
 8007666:	f000 fa43 	bl	8007af0 <__ieee754_powf>
 800766a:	4621      	mov	r1, r4
 800766c:	4605      	mov	r5, r0
 800766e:	4620      	mov	r0, r4
 8007670:	f7f9 f852 	bl	8000718 <__aeabi_fcmpun>
 8007674:	bb68      	cbnz	r0, 80076d2 <powf+0x72>
 8007676:	2100      	movs	r1, #0
 8007678:	4630      	mov	r0, r6
 800767a:	f7f9 f81b 	bl	80006b4 <__aeabi_fcmpeq>
 800767e:	b190      	cbz	r0, 80076a6 <powf+0x46>
 8007680:	2100      	movs	r1, #0
 8007682:	4620      	mov	r0, r4
 8007684:	f7f9 f816 	bl	80006b4 <__aeabi_fcmpeq>
 8007688:	2800      	cmp	r0, #0
 800768a:	d133      	bne.n	80076f4 <powf+0x94>
 800768c:	4620      	mov	r0, r4
 800768e:	f000 f8c1 	bl	8007814 <finitef>
 8007692:	b1f0      	cbz	r0, 80076d2 <powf+0x72>
 8007694:	2100      	movs	r1, #0
 8007696:	4620      	mov	r0, r4
 8007698:	f7f9 f816 	bl	80006c8 <__aeabi_fcmplt>
 800769c:	b1c8      	cbz	r0, 80076d2 <powf+0x72>
 800769e:	f7ff fb59 	bl	8006d54 <__errno>
 80076a2:	2322      	movs	r3, #34	@ 0x22
 80076a4:	e014      	b.n	80076d0 <powf+0x70>
 80076a6:	4628      	mov	r0, r5
 80076a8:	f000 f8b4 	bl	8007814 <finitef>
 80076ac:	b998      	cbnz	r0, 80076d6 <powf+0x76>
 80076ae:	4630      	mov	r0, r6
 80076b0:	f000 f8b0 	bl	8007814 <finitef>
 80076b4:	b178      	cbz	r0, 80076d6 <powf+0x76>
 80076b6:	4620      	mov	r0, r4
 80076b8:	f000 f8ac 	bl	8007814 <finitef>
 80076bc:	b158      	cbz	r0, 80076d6 <powf+0x76>
 80076be:	4629      	mov	r1, r5
 80076c0:	4628      	mov	r0, r5
 80076c2:	f7f9 f829 	bl	8000718 <__aeabi_fcmpun>
 80076c6:	2800      	cmp	r0, #0
 80076c8:	d0e9      	beq.n	800769e <powf+0x3e>
 80076ca:	f7ff fb43 	bl	8006d54 <__errno>
 80076ce:	2321      	movs	r3, #33	@ 0x21
 80076d0:	6003      	str	r3, [r0, #0]
 80076d2:	4628      	mov	r0, r5
 80076d4:	bd70      	pop	{r4, r5, r6, pc}
 80076d6:	2100      	movs	r1, #0
 80076d8:	4628      	mov	r0, r5
 80076da:	f7f8 ffeb 	bl	80006b4 <__aeabi_fcmpeq>
 80076de:	2800      	cmp	r0, #0
 80076e0:	d0f7      	beq.n	80076d2 <powf+0x72>
 80076e2:	4630      	mov	r0, r6
 80076e4:	f000 f896 	bl	8007814 <finitef>
 80076e8:	2800      	cmp	r0, #0
 80076ea:	d0f2      	beq.n	80076d2 <powf+0x72>
 80076ec:	4620      	mov	r0, r4
 80076ee:	f000 f891 	bl	8007814 <finitef>
 80076f2:	e7d3      	b.n	800769c <powf+0x3c>
 80076f4:	f04f 557e 	mov.w	r5, #1065353216	@ 0x3f800000
 80076f8:	e7eb      	b.n	80076d2 <powf+0x72>

080076fa <sqrtf>:
 80076fa:	b538      	push	{r3, r4, r5, lr}
 80076fc:	4605      	mov	r5, r0
 80076fe:	f000 f891 	bl	8007824 <__ieee754_sqrtf>
 8007702:	4629      	mov	r1, r5
 8007704:	4604      	mov	r4, r0
 8007706:	4628      	mov	r0, r5
 8007708:	f7f9 f806 	bl	8000718 <__aeabi_fcmpun>
 800770c:	b968      	cbnz	r0, 800772a <sqrtf+0x30>
 800770e:	2100      	movs	r1, #0
 8007710:	4628      	mov	r0, r5
 8007712:	f7f8 ffd9 	bl	80006c8 <__aeabi_fcmplt>
 8007716:	b140      	cbz	r0, 800772a <sqrtf+0x30>
 8007718:	f7ff fb1c 	bl	8006d54 <__errno>
 800771c:	2321      	movs	r3, #33	@ 0x21
 800771e:	2100      	movs	r1, #0
 8007720:	6003      	str	r3, [r0, #0]
 8007722:	4608      	mov	r0, r1
 8007724:	f7f8 fee6 	bl	80004f4 <__aeabi_fdiv>
 8007728:	4604      	mov	r4, r0
 800772a:	4620      	mov	r0, r4
 800772c:	bd38      	pop	{r3, r4, r5, pc}
	...

08007730 <cosf>:
 8007730:	b507      	push	{r0, r1, r2, lr}
 8007732:	4a1a      	ldr	r2, [pc, #104]	@ (800779c <cosf+0x6c>)
 8007734:	f020 4300 	bic.w	r3, r0, #2147483648	@ 0x80000000
 8007738:	4293      	cmp	r3, r2
 800773a:	4601      	mov	r1, r0
 800773c:	d805      	bhi.n	800774a <cosf+0x1a>
 800773e:	2100      	movs	r1, #0
 8007740:	b003      	add	sp, #12
 8007742:	f85d eb04 	ldr.w	lr, [sp], #4
 8007746:	f000 b8dd 	b.w	8007904 <__kernel_cosf>
 800774a:	f1b3 4fff 	cmp.w	r3, #2139095040	@ 0x7f800000
 800774e:	d304      	bcc.n	800775a <cosf+0x2a>
 8007750:	f7f8 fd12 	bl	8000178 <__aeabi_fsub>
 8007754:	b003      	add	sp, #12
 8007756:	f85d fb04 	ldr.w	pc, [sp], #4
 800775a:	4669      	mov	r1, sp
 800775c:	f000 fd28 	bl	80081b0 <__ieee754_rem_pio2f>
 8007760:	f000 0203 	and.w	r2, r0, #3
 8007764:	2a01      	cmp	r2, #1
 8007766:	d007      	beq.n	8007778 <cosf+0x48>
 8007768:	2a02      	cmp	r2, #2
 800776a:	d00c      	beq.n	8007786 <cosf+0x56>
 800776c:	b982      	cbnz	r2, 8007790 <cosf+0x60>
 800776e:	9901      	ldr	r1, [sp, #4]
 8007770:	9800      	ldr	r0, [sp, #0]
 8007772:	f000 f8c7 	bl	8007904 <__kernel_cosf>
 8007776:	e7ed      	b.n	8007754 <cosf+0x24>
 8007778:	9901      	ldr	r1, [sp, #4]
 800777a:	9800      	ldr	r0, [sp, #0]
 800777c:	f000 f942 	bl	8007a04 <__kernel_sinf>
 8007780:	f100 4000 	add.w	r0, r0, #2147483648	@ 0x80000000
 8007784:	e7e6      	b.n	8007754 <cosf+0x24>
 8007786:	9901      	ldr	r1, [sp, #4]
 8007788:	9800      	ldr	r0, [sp, #0]
 800778a:	f000 f8bb 	bl	8007904 <__kernel_cosf>
 800778e:	e7f7      	b.n	8007780 <cosf+0x50>
 8007790:	2201      	movs	r2, #1
 8007792:	9901      	ldr	r1, [sp, #4]
 8007794:	9800      	ldr	r0, [sp, #0]
 8007796:	f000 f935 	bl	8007a04 <__kernel_sinf>
 800779a:	e7db      	b.n	8007754 <cosf+0x24>
 800779c:	3f490fd8 	.word	0x3f490fd8

080077a0 <sinf>:
 80077a0:	b507      	push	{r0, r1, r2, lr}
 80077a2:	4a1b      	ldr	r2, [pc, #108]	@ (8007810 <sinf+0x70>)
 80077a4:	f020 4300 	bic.w	r3, r0, #2147483648	@ 0x80000000
 80077a8:	4293      	cmp	r3, r2
 80077aa:	4601      	mov	r1, r0
 80077ac:	d806      	bhi.n	80077bc <sinf+0x1c>
 80077ae:	2200      	movs	r2, #0
 80077b0:	2100      	movs	r1, #0
 80077b2:	b003      	add	sp, #12
 80077b4:	f85d eb04 	ldr.w	lr, [sp], #4
 80077b8:	f000 b924 	b.w	8007a04 <__kernel_sinf>
 80077bc:	f1b3 4fff 	cmp.w	r3, #2139095040	@ 0x7f800000
 80077c0:	d304      	bcc.n	80077cc <sinf+0x2c>
 80077c2:	f7f8 fcd9 	bl	8000178 <__aeabi_fsub>
 80077c6:	b003      	add	sp, #12
 80077c8:	f85d fb04 	ldr.w	pc, [sp], #4
 80077cc:	4669      	mov	r1, sp
 80077ce:	f000 fcef 	bl	80081b0 <__ieee754_rem_pio2f>
 80077d2:	f000 0003 	and.w	r0, r0, #3
 80077d6:	2801      	cmp	r0, #1
 80077d8:	d008      	beq.n	80077ec <sinf+0x4c>
 80077da:	2802      	cmp	r0, #2
 80077dc:	d00b      	beq.n	80077f6 <sinf+0x56>
 80077de:	b990      	cbnz	r0, 8007806 <sinf+0x66>
 80077e0:	2201      	movs	r2, #1
 80077e2:	9901      	ldr	r1, [sp, #4]
 80077e4:	9800      	ldr	r0, [sp, #0]
 80077e6:	f000 f90d 	bl	8007a04 <__kernel_sinf>
 80077ea:	e7ec      	b.n	80077c6 <sinf+0x26>
 80077ec:	9901      	ldr	r1, [sp, #4]
 80077ee:	9800      	ldr	r0, [sp, #0]
 80077f0:	f000 f888 	bl	8007904 <__kernel_cosf>
 80077f4:	e7e7      	b.n	80077c6 <sinf+0x26>
 80077f6:	2201      	movs	r2, #1
 80077f8:	9901      	ldr	r1, [sp, #4]
 80077fa:	9800      	ldr	r0, [sp, #0]
 80077fc:	f000 f902 	bl	8007a04 <__kernel_sinf>
 8007800:	f100 4000 	add.w	r0, r0, #2147483648	@ 0x80000000
 8007804:	e7df      	b.n	80077c6 <sinf+0x26>
 8007806:	9901      	ldr	r1, [sp, #4]
 8007808:	9800      	ldr	r0, [sp, #0]
 800780a:	f000 f87b 	bl	8007904 <__kernel_cosf>
 800780e:	e7f7      	b.n	8007800 <sinf+0x60>
 8007810:	3f490fd8 	.word	0x3f490fd8

08007814 <finitef>:
 8007814:	f020 4000 	bic.w	r0, r0, #2147483648	@ 0x80000000
 8007818:	f1b0 4fff 	cmp.w	r0, #2139095040	@ 0x7f800000
 800781c:	bfac      	ite	ge
 800781e:	2000      	movge	r0, #0
 8007820:	2001      	movlt	r0, #1
 8007822:	4770      	bx	lr

08007824 <__ieee754_sqrtf>:
 8007824:	f020 4200 	bic.w	r2, r0, #2147483648	@ 0x80000000
 8007828:	f1b2 4fff 	cmp.w	r2, #2139095040	@ 0x7f800000
 800782c:	e92d 41f0 	stmdb	sp!, {r4, r5, r6, r7, r8, lr}
 8007830:	4603      	mov	r3, r0
 8007832:	4604      	mov	r4, r0
 8007834:	d30a      	bcc.n	800784c <__ieee754_sqrtf+0x28>
 8007836:	4601      	mov	r1, r0
 8007838:	f7f8 fda8 	bl	800038c <__aeabi_fmul>
 800783c:	4601      	mov	r1, r0
 800783e:	4620      	mov	r0, r4
 8007840:	f7f8 fc9c 	bl	800017c <__addsf3>
 8007844:	4604      	mov	r4, r0
 8007846:	4620      	mov	r0, r4
 8007848:	e8bd 81f0 	ldmia.w	sp!, {r4, r5, r6, r7, r8, pc}
 800784c:	2a00      	cmp	r2, #0
 800784e:	d0fa      	beq.n	8007846 <__ieee754_sqrtf+0x22>
 8007850:	2800      	cmp	r0, #0
 8007852:	da06      	bge.n	8007862 <__ieee754_sqrtf+0x3e>
 8007854:	4601      	mov	r1, r0
 8007856:	f7f8 fc8f 	bl	8000178 <__aeabi_fsub>
 800785a:	4601      	mov	r1, r0
 800785c:	f7f8 fe4a 	bl	80004f4 <__aeabi_fdiv>
 8007860:	e7f0      	b.n	8007844 <__ieee754_sqrtf+0x20>
 8007862:	f010 41ff 	ands.w	r1, r0, #2139095040	@ 0x7f800000
 8007866:	d03c      	beq.n	80078e2 <__ieee754_sqrtf+0xbe>
 8007868:	15c2      	asrs	r2, r0, #23
 800786a:	2400      	movs	r4, #0
 800786c:	2019      	movs	r0, #25
 800786e:	4626      	mov	r6, r4
 8007870:	f04f 7180 	mov.w	r1, #16777216	@ 0x1000000
 8007874:	f3c3 0316 	ubfx	r3, r3, #0, #23
 8007878:	f1a2 057f 	sub.w	r5, r2, #127	@ 0x7f
 800787c:	f443 0300 	orr.w	r3, r3, #8388608	@ 0x800000
 8007880:	07d2      	lsls	r2, r2, #31
 8007882:	bf58      	it	pl
 8007884:	005b      	lslpl	r3, r3, #1
 8007886:	106d      	asrs	r5, r5, #1
 8007888:	005b      	lsls	r3, r3, #1
 800788a:	1872      	adds	r2, r6, r1
 800788c:	429a      	cmp	r2, r3
 800788e:	bfcf      	iteee	gt
 8007890:	461a      	movgt	r2, r3
 8007892:	1856      	addle	r6, r2, r1
 8007894:	1864      	addle	r4, r4, r1
 8007896:	1a9a      	suble	r2, r3, r2
 8007898:	3801      	subs	r0, #1
 800789a:	ea4f 0342 	mov.w	r3, r2, lsl #1
 800789e:	ea4f 0151 	mov.w	r1, r1, lsr #1
 80078a2:	d1f2      	bne.n	800788a <__ieee754_sqrtf+0x66>
 80078a4:	b1ba      	cbz	r2, 80078d6 <__ieee754_sqrtf+0xb2>
 80078a6:	4e15      	ldr	r6, [pc, #84]	@ (80078fc <__ieee754_sqrtf+0xd8>)
 80078a8:	4f15      	ldr	r7, [pc, #84]	@ (8007900 <__ieee754_sqrtf+0xdc>)
 80078aa:	6830      	ldr	r0, [r6, #0]
 80078ac:	6839      	ldr	r1, [r7, #0]
 80078ae:	f7f8 fc63 	bl	8000178 <__aeabi_fsub>
 80078b2:	f8d6 8000 	ldr.w	r8, [r6]
 80078b6:	4601      	mov	r1, r0
 80078b8:	4640      	mov	r0, r8
 80078ba:	f7f8 ff0f 	bl	80006dc <__aeabi_fcmple>
 80078be:	b150      	cbz	r0, 80078d6 <__ieee754_sqrtf+0xb2>
 80078c0:	6830      	ldr	r0, [r6, #0]
 80078c2:	6839      	ldr	r1, [r7, #0]
 80078c4:	f7f8 fc5a 	bl	800017c <__addsf3>
 80078c8:	6836      	ldr	r6, [r6, #0]
 80078ca:	4601      	mov	r1, r0
 80078cc:	4630      	mov	r0, r6
 80078ce:	f7f8 fefb 	bl	80006c8 <__aeabi_fcmplt>
 80078d2:	b170      	cbz	r0, 80078f2 <__ieee754_sqrtf+0xce>
 80078d4:	3402      	adds	r4, #2
 80078d6:	1064      	asrs	r4, r4, #1
 80078d8:	f104 547c 	add.w	r4, r4, #1056964608	@ 0x3f000000
 80078dc:	eb04 54c5 	add.w	r4, r4, r5, lsl #23
 80078e0:	e7b1      	b.n	8007846 <__ieee754_sqrtf+0x22>
 80078e2:	005b      	lsls	r3, r3, #1
 80078e4:	0218      	lsls	r0, r3, #8
 80078e6:	460a      	mov	r2, r1
 80078e8:	f101 0101 	add.w	r1, r1, #1
 80078ec:	d5f9      	bpl.n	80078e2 <__ieee754_sqrtf+0xbe>
 80078ee:	4252      	negs	r2, r2
 80078f0:	e7bb      	b.n	800786a <__ieee754_sqrtf+0x46>
 80078f2:	3401      	adds	r4, #1
 80078f4:	f024 0401 	bic.w	r4, r4, #1
 80078f8:	e7ed      	b.n	80078d6 <__ieee754_sqrtf+0xb2>
 80078fa:	bf00      	nop
 80078fc:	08008f70 	.word	0x08008f70
 8007900:	08008f6c 	.word	0x08008f6c

08007904 <__kernel_cosf>:
 8007904:	e92d 41f0 	stmdb	sp!, {r4, r5, r6, r7, r8, lr}
 8007908:	f020 4500 	bic.w	r5, r0, #2147483648	@ 0x80000000
 800790c:	f1b5 5f48 	cmp.w	r5, #838860800	@ 0x32000000
 8007910:	4606      	mov	r6, r0
 8007912:	4688      	mov	r8, r1
 8007914:	d203      	bcs.n	800791e <__kernel_cosf+0x1a>
 8007916:	f7f8 ff15 	bl	8000744 <__aeabi_f2iz>
 800791a:	2800      	cmp	r0, #0
 800791c:	d05c      	beq.n	80079d8 <__kernel_cosf+0xd4>
 800791e:	4631      	mov	r1, r6
 8007920:	4630      	mov	r0, r6
 8007922:	f7f8 fd33 	bl	800038c <__aeabi_fmul>
 8007926:	f04f 517c 	mov.w	r1, #1056964608	@ 0x3f000000
 800792a:	4604      	mov	r4, r0
 800792c:	f7f8 fd2e 	bl	800038c <__aeabi_fmul>
 8007930:	492b      	ldr	r1, [pc, #172]	@ (80079e0 <__kernel_cosf+0xdc>)
 8007932:	4607      	mov	r7, r0
 8007934:	4620      	mov	r0, r4
 8007936:	f7f8 fd29 	bl	800038c <__aeabi_fmul>
 800793a:	492a      	ldr	r1, [pc, #168]	@ (80079e4 <__kernel_cosf+0xe0>)
 800793c:	f7f8 fc1e 	bl	800017c <__addsf3>
 8007940:	4621      	mov	r1, r4
 8007942:	f7f8 fd23 	bl	800038c <__aeabi_fmul>
 8007946:	4928      	ldr	r1, [pc, #160]	@ (80079e8 <__kernel_cosf+0xe4>)
 8007948:	f7f8 fc16 	bl	8000178 <__aeabi_fsub>
 800794c:	4621      	mov	r1, r4
 800794e:	f7f8 fd1d 	bl	800038c <__aeabi_fmul>
 8007952:	4926      	ldr	r1, [pc, #152]	@ (80079ec <__kernel_cosf+0xe8>)
 8007954:	f7f8 fc12 	bl	800017c <__addsf3>
 8007958:	4621      	mov	r1, r4
 800795a:	f7f8 fd17 	bl	800038c <__aeabi_fmul>
 800795e:	4924      	ldr	r1, [pc, #144]	@ (80079f0 <__kernel_cosf+0xec>)
 8007960:	f7f8 fc0a 	bl	8000178 <__aeabi_fsub>
 8007964:	4621      	mov	r1, r4
 8007966:	f7f8 fd11 	bl	800038c <__aeabi_fmul>
 800796a:	4922      	ldr	r1, [pc, #136]	@ (80079f4 <__kernel_cosf+0xf0>)
 800796c:	f7f8 fc06 	bl	800017c <__addsf3>
 8007970:	4621      	mov	r1, r4
 8007972:	f7f8 fd0b 	bl	800038c <__aeabi_fmul>
 8007976:	4621      	mov	r1, r4
 8007978:	f7f8 fd08 	bl	800038c <__aeabi_fmul>
 800797c:	4641      	mov	r1, r8
 800797e:	4604      	mov	r4, r0
 8007980:	4630      	mov	r0, r6
 8007982:	f7f8 fd03 	bl	800038c <__aeabi_fmul>
 8007986:	4601      	mov	r1, r0
 8007988:	4620      	mov	r0, r4
 800798a:	f7f8 fbf5 	bl	8000178 <__aeabi_fsub>
 800798e:	4b1a      	ldr	r3, [pc, #104]	@ (80079f8 <__kernel_cosf+0xf4>)
 8007990:	4604      	mov	r4, r0
 8007992:	429d      	cmp	r5, r3
 8007994:	d80a      	bhi.n	80079ac <__kernel_cosf+0xa8>
 8007996:	4601      	mov	r1, r0
 8007998:	4638      	mov	r0, r7
 800799a:	f7f8 fbed 	bl	8000178 <__aeabi_fsub>
 800799e:	4601      	mov	r1, r0
 80079a0:	f04f 507e 	mov.w	r0, #1065353216	@ 0x3f800000
 80079a4:	f7f8 fbe8 	bl	8000178 <__aeabi_fsub>
 80079a8:	e8bd 81f0 	ldmia.w	sp!, {r4, r5, r6, r7, r8, pc}
 80079ac:	4b13      	ldr	r3, [pc, #76]	@ (80079fc <__kernel_cosf+0xf8>)
 80079ae:	f04f 507e 	mov.w	r0, #1065353216	@ 0x3f800000
 80079b2:	429d      	cmp	r5, r3
 80079b4:	bf8c      	ite	hi
 80079b6:	4d12      	ldrhi	r5, [pc, #72]	@ (8007a00 <__kernel_cosf+0xfc>)
 80079b8:	f105 457f 	addls.w	r5, r5, #4278190080	@ 0xff000000
 80079bc:	4629      	mov	r1, r5
 80079be:	f7f8 fbdb 	bl	8000178 <__aeabi_fsub>
 80079c2:	4629      	mov	r1, r5
 80079c4:	4606      	mov	r6, r0
 80079c6:	4638      	mov	r0, r7
 80079c8:	f7f8 fbd6 	bl	8000178 <__aeabi_fsub>
 80079cc:	4621      	mov	r1, r4
 80079ce:	f7f8 fbd3 	bl	8000178 <__aeabi_fsub>
 80079d2:	4601      	mov	r1, r0
 80079d4:	4630      	mov	r0, r6
 80079d6:	e7e5      	b.n	80079a4 <__kernel_cosf+0xa0>
 80079d8:	f04f 507e 	mov.w	r0, #1065353216	@ 0x3f800000
 80079dc:	e7e4      	b.n	80079a8 <__kernel_cosf+0xa4>
 80079de:	bf00      	nop
 80079e0:	ad47d74e 	.word	0xad47d74e
 80079e4:	310f74f6 	.word	0x310f74f6
 80079e8:	3493f27c 	.word	0x3493f27c
 80079ec:	37d00d01 	.word	0x37d00d01
 80079f0:	3ab60b61 	.word	0x3ab60b61
 80079f4:	3d2aaaab 	.word	0x3d2aaaab
 80079f8:	3e999999 	.word	0x3e999999
 80079fc:	3f480000 	.word	0x3f480000
 8007a00:	3e900000 	.word	0x3e900000

08007a04 <__kernel_sinf>:
 8007a04:	e92d 43f8 	stmdb	sp!, {r3, r4, r5, r6, r7, r8, r9, lr}
 8007a08:	f020 4300 	bic.w	r3, r0, #2147483648	@ 0x80000000
 8007a0c:	f1b3 5f48 	cmp.w	r3, #838860800	@ 0x32000000
 8007a10:	4604      	mov	r4, r0
 8007a12:	460f      	mov	r7, r1
 8007a14:	4691      	mov	r9, r2
 8007a16:	d203      	bcs.n	8007a20 <__kernel_sinf+0x1c>
 8007a18:	f7f8 fe94 	bl	8000744 <__aeabi_f2iz>
 8007a1c:	2800      	cmp	r0, #0
 8007a1e:	d035      	beq.n	8007a8c <__kernel_sinf+0x88>
 8007a20:	4621      	mov	r1, r4
 8007a22:	4620      	mov	r0, r4
 8007a24:	f7f8 fcb2 	bl	800038c <__aeabi_fmul>
 8007a28:	4605      	mov	r5, r0
 8007a2a:	4601      	mov	r1, r0
 8007a2c:	4620      	mov	r0, r4
 8007a2e:	f7f8 fcad 	bl	800038c <__aeabi_fmul>
 8007a32:	4929      	ldr	r1, [pc, #164]	@ (8007ad8 <__kernel_sinf+0xd4>)
 8007a34:	4606      	mov	r6, r0
 8007a36:	4628      	mov	r0, r5
 8007a38:	f7f8 fca8 	bl	800038c <__aeabi_fmul>
 8007a3c:	4927      	ldr	r1, [pc, #156]	@ (8007adc <__kernel_sinf+0xd8>)
 8007a3e:	f7f8 fb9b 	bl	8000178 <__aeabi_fsub>
 8007a42:	4629      	mov	r1, r5
 8007a44:	f7f8 fca2 	bl	800038c <__aeabi_fmul>
 8007a48:	4925      	ldr	r1, [pc, #148]	@ (8007ae0 <__kernel_sinf+0xdc>)
 8007a4a:	f7f8 fb97 	bl	800017c <__addsf3>
 8007a4e:	4629      	mov	r1, r5
 8007a50:	f7f8 fc9c 	bl	800038c <__aeabi_fmul>
 8007a54:	4923      	ldr	r1, [pc, #140]	@ (8007ae4 <__kernel_sinf+0xe0>)
 8007a56:	f7f8 fb8f 	bl	8000178 <__aeabi_fsub>
 8007a5a:	4629      	mov	r1, r5
 8007a5c:	f7f8 fc96 	bl	800038c <__aeabi_fmul>
 8007a60:	4921      	ldr	r1, [pc, #132]	@ (8007ae8 <__kernel_sinf+0xe4>)
 8007a62:	f7f8 fb8b 	bl	800017c <__addsf3>
 8007a66:	4680      	mov	r8, r0
 8007a68:	f1b9 0f00 	cmp.w	r9, #0
 8007a6c:	d111      	bne.n	8007a92 <__kernel_sinf+0x8e>
 8007a6e:	4601      	mov	r1, r0
 8007a70:	4628      	mov	r0, r5
 8007a72:	f7f8 fc8b 	bl	800038c <__aeabi_fmul>
 8007a76:	491d      	ldr	r1, [pc, #116]	@ (8007aec <__kernel_sinf+0xe8>)
 8007a78:	f7f8 fb7e 	bl	8000178 <__aeabi_fsub>
 8007a7c:	4631      	mov	r1, r6
 8007a7e:	f7f8 fc85 	bl	800038c <__aeabi_fmul>
 8007a82:	4601      	mov	r1, r0
 8007a84:	4620      	mov	r0, r4
 8007a86:	f7f8 fb79 	bl	800017c <__addsf3>
 8007a8a:	4604      	mov	r4, r0
 8007a8c:	4620      	mov	r0, r4
 8007a8e:	e8bd 83f8 	ldmia.w	sp!, {r3, r4, r5, r6, r7, r8, r9, pc}
 8007a92:	f04f 517c 	mov.w	r1, #1056964608	@ 0x3f000000
 8007a96:	4638      	mov	r0, r7
 8007a98:	f7f8 fc78 	bl	800038c <__aeabi_fmul>
 8007a9c:	4641      	mov	r1, r8
 8007a9e:	4681      	mov	r9, r0
 8007aa0:	4630      	mov	r0, r6
 8007aa2:	f7f8 fc73 	bl	800038c <__aeabi_fmul>
 8007aa6:	4601      	mov	r1, r0
 8007aa8:	4648      	mov	r0, r9
 8007aaa:	f7f8 fb65 	bl	8000178 <__aeabi_fsub>
 8007aae:	4629      	mov	r1, r5
 8007ab0:	f7f8 fc6c 	bl	800038c <__aeabi_fmul>
 8007ab4:	4639      	mov	r1, r7
 8007ab6:	f7f8 fb5f 	bl	8000178 <__aeabi_fsub>
 8007aba:	490c      	ldr	r1, [pc, #48]	@ (8007aec <__kernel_sinf+0xe8>)
 8007abc:	4605      	mov	r5, r0
 8007abe:	4630      	mov	r0, r6
 8007ac0:	f7f8 fc64 	bl	800038c <__aeabi_fmul>
 8007ac4:	4601      	mov	r1, r0
 8007ac6:	4628      	mov	r0, r5
 8007ac8:	f7f8 fb58 	bl	800017c <__addsf3>
 8007acc:	4601      	mov	r1, r0
 8007ace:	4620      	mov	r0, r4
 8007ad0:	f7f8 fb52 	bl	8000178 <__aeabi_fsub>
 8007ad4:	e7d9      	b.n	8007a8a <__kernel_sinf+0x86>
 8007ad6:	bf00      	nop
 8007ad8:	2f2ec9d3 	.word	0x2f2ec9d3
 8007adc:	32d72f34 	.word	0x32d72f34
 8007ae0:	3638ef1b 	.word	0x3638ef1b
 8007ae4:	39500d01 	.word	0x39500d01
 8007ae8:	3c088889 	.word	0x3c088889
 8007aec:	3e2aaaab 	.word	0x3e2aaaab

08007af0 <__ieee754_powf>:
 8007af0:	e92d 4ff0 	stmdb	sp!, {r4, r5, r6, r7, r8, r9, sl, fp, lr}
 8007af4:	f031 4b00 	bics.w	fp, r1, #2147483648	@ 0x80000000
 8007af8:	4681      	mov	r9, r0
 8007afa:	460f      	mov	r7, r1
 8007afc:	4606      	mov	r6, r0
 8007afe:	460c      	mov	r4, r1
 8007b00:	b087      	sub	sp, #28
 8007b02:	d10c      	bne.n	8007b1e <__ieee754_powf+0x2e>
 8007b04:	f480 0680 	eor.w	r6, r0, #4194304	@ 0x400000
 8007b08:	0076      	lsls	r6, r6, #1
 8007b0a:	f516 0f00 	cmn.w	r6, #8388608	@ 0x800000
 8007b0e:	f240 8310 	bls.w	8008132 <__ieee754_powf+0x642>
 8007b12:	4639      	mov	r1, r7
 8007b14:	4648      	mov	r0, r9
 8007b16:	f7f8 fb31 	bl	800017c <__addsf3>
 8007b1a:	4601      	mov	r1, r0
 8007b1c:	e043      	b.n	8007ba6 <__ieee754_powf+0xb6>
 8007b1e:	f020 4800 	bic.w	r8, r0, #2147483648	@ 0x80000000
 8007b22:	f1b8 4fff 	cmp.w	r8, #2139095040	@ 0x7f800000
 8007b26:	d802      	bhi.n	8007b2e <__ieee754_powf+0x3e>
 8007b28:	f1bb 4fff 	cmp.w	fp, #2139095040	@ 0x7f800000
 8007b2c:	d908      	bls.n	8007b40 <__ieee754_powf+0x50>
 8007b2e:	f1b6 5f7e 	cmp.w	r6, #1065353216	@ 0x3f800000
 8007b32:	d1ee      	bne.n	8007b12 <__ieee754_powf+0x22>
 8007b34:	f484 0480 	eor.w	r4, r4, #4194304	@ 0x400000
 8007b38:	0064      	lsls	r4, r4, #1
 8007b3a:	f514 0f00 	cmn.w	r4, #8388608	@ 0x800000
 8007b3e:	e7e6      	b.n	8007b0e <__ieee754_powf+0x1e>
 8007b40:	2800      	cmp	r0, #0
 8007b42:	da1f      	bge.n	8007b84 <__ieee754_powf+0x94>
 8007b44:	f1bb 4f97 	cmp.w	fp, #1266679808	@ 0x4b800000
 8007b48:	f080 82f8 	bcs.w	800813c <__ieee754_powf+0x64c>
 8007b4c:	f1bb 5f7e 	cmp.w	fp, #1065353216	@ 0x3f800000
 8007b50:	d32f      	bcc.n	8007bb2 <__ieee754_powf+0xc2>
 8007b52:	ea4f 53eb 	mov.w	r3, fp, asr #23
 8007b56:	f1c3 0396 	rsb	r3, r3, #150	@ 0x96
 8007b5a:	fa4b f503 	asr.w	r5, fp, r3
 8007b5e:	fa05 f303 	lsl.w	r3, r5, r3
 8007b62:	455b      	cmp	r3, fp
 8007b64:	d123      	bne.n	8007bae <__ieee754_powf+0xbe>
 8007b66:	f005 0501 	and.w	r5, r5, #1
 8007b6a:	f1c5 0502 	rsb	r5, r5, #2
 8007b6e:	f1bb 5f7e 	cmp.w	fp, #1065353216	@ 0x3f800000
 8007b72:	d11f      	bne.n	8007bb4 <__ieee754_powf+0xc4>
 8007b74:	2c00      	cmp	r4, #0
 8007b76:	4649      	mov	r1, r9
 8007b78:	da15      	bge.n	8007ba6 <__ieee754_powf+0xb6>
 8007b7a:	f04f 507e 	mov.w	r0, #1065353216	@ 0x3f800000
 8007b7e:	f7f8 fcb9 	bl	80004f4 <__aeabi_fdiv>
 8007b82:	e7ca      	b.n	8007b1a <__ieee754_powf+0x2a>
 8007b84:	f1bb 4fff 	cmp.w	fp, #2139095040	@ 0x7f800000
 8007b88:	d111      	bne.n	8007bae <__ieee754_powf+0xbe>
 8007b8a:	f1b8 5f7e 	cmp.w	r8, #1065353216	@ 0x3f800000
 8007b8e:	f000 82d0 	beq.w	8008132 <__ieee754_powf+0x642>
 8007b92:	d904      	bls.n	8007b9e <__ieee754_powf+0xae>
 8007b94:	2c00      	cmp	r4, #0
 8007b96:	f280 82cf 	bge.w	8008138 <__ieee754_powf+0x648>
 8007b9a:	2100      	movs	r1, #0
 8007b9c:	e003      	b.n	8007ba6 <__ieee754_powf+0xb6>
 8007b9e:	2c00      	cmp	r4, #0
 8007ba0:	dafb      	bge.n	8007b9a <__ieee754_powf+0xaa>
 8007ba2:	f107 4100 	add.w	r1, r7, #2147483648	@ 0x80000000
 8007ba6:	4608      	mov	r0, r1
 8007ba8:	b007      	add	sp, #28
 8007baa:	e8bd 8ff0 	ldmia.w	sp!, {r4, r5, r6, r7, r8, r9, sl, fp, pc}
 8007bae:	2500      	movs	r5, #0
 8007bb0:	e7dd      	b.n	8007b6e <__ieee754_powf+0x7e>
 8007bb2:	2500      	movs	r5, #0
 8007bb4:	f1b4 4f80 	cmp.w	r4, #1073741824	@ 0x40000000
 8007bb8:	d104      	bne.n	8007bc4 <__ieee754_powf+0xd4>
 8007bba:	4649      	mov	r1, r9
 8007bbc:	4648      	mov	r0, r9
 8007bbe:	f7f8 fbe5 	bl	800038c <__aeabi_fmul>
 8007bc2:	e7aa      	b.n	8007b1a <__ieee754_powf+0x2a>
 8007bc4:	f1b4 5f7c 	cmp.w	r4, #1056964608	@ 0x3f000000
 8007bc8:	f040 82bd 	bne.w	8008146 <__ieee754_powf+0x656>
 8007bcc:	2e00      	cmp	r6, #0
 8007bce:	f2c0 82ba 	blt.w	8008146 <__ieee754_powf+0x656>
 8007bd2:	4648      	mov	r0, r9
 8007bd4:	b007      	add	sp, #28
 8007bd6:	e8bd 4ff0 	ldmia.w	sp!, {r4, r5, r6, r7, r8, r9, sl, fp, lr}
 8007bda:	f7ff be23 	b.w	8007824 <__ieee754_sqrtf>
 8007bde:	2d01      	cmp	r5, #1
 8007be0:	d1e1      	bne.n	8007ba6 <__ieee754_powf+0xb6>
 8007be2:	f101 4000 	add.w	r0, r1, #2147483648	@ 0x80000000
 8007be6:	e798      	b.n	8007b1a <__ieee754_powf+0x2a>
 8007be8:	0ff3      	lsrs	r3, r6, #31
 8007bea:	3b01      	subs	r3, #1
 8007bec:	9303      	str	r3, [sp, #12]
 8007bee:	432b      	orrs	r3, r5
 8007bf0:	d101      	bne.n	8007bf6 <__ieee754_powf+0x106>
 8007bf2:	4649      	mov	r1, r9
 8007bf4:	e2c5      	b.n	8008182 <__ieee754_powf+0x692>
 8007bf6:	f1bb 4f9a 	cmp.w	fp, #1291845632	@ 0x4d000000
 8007bfa:	f240 809b 	bls.w	8007d34 <__ieee754_powf+0x244>
 8007bfe:	4b46      	ldr	r3, [pc, #280]	@ (8007d18 <__ieee754_powf+0x228>)
 8007c00:	4598      	cmp	r8, r3
 8007c02:	d807      	bhi.n	8007c14 <__ieee754_powf+0x124>
 8007c04:	2c00      	cmp	r4, #0
 8007c06:	da0a      	bge.n	8007c1e <__ieee754_powf+0x12e>
 8007c08:	2000      	movs	r0, #0
 8007c0a:	b007      	add	sp, #28
 8007c0c:	e8bd 4ff0 	ldmia.w	sp!, {r4, r5, r6, r7, r8, r9, sl, fp, lr}
 8007c10:	f000 bc9d 	b.w	800854e <__math_oflowf>
 8007c14:	4b41      	ldr	r3, [pc, #260]	@ (8007d1c <__ieee754_powf+0x22c>)
 8007c16:	4598      	cmp	r8, r3
 8007c18:	d907      	bls.n	8007c2a <__ieee754_powf+0x13a>
 8007c1a:	2c00      	cmp	r4, #0
 8007c1c:	dcf4      	bgt.n	8007c08 <__ieee754_powf+0x118>
 8007c1e:	2000      	movs	r0, #0
 8007c20:	b007      	add	sp, #28
 8007c22:	e8bd 4ff0 	ldmia.w	sp!, {r4, r5, r6, r7, r8, r9, sl, fp, lr}
 8007c26:	f000 bc8e 	b.w	8008546 <__math_uflowf>
 8007c2a:	f04f 517e 	mov.w	r1, #1065353216	@ 0x3f800000
 8007c2e:	f7f8 faa3 	bl	8000178 <__aeabi_fsub>
 8007c32:	493b      	ldr	r1, [pc, #236]	@ (8007d20 <__ieee754_powf+0x230>)
 8007c34:	4606      	mov	r6, r0
 8007c36:	f7f8 fba9 	bl	800038c <__aeabi_fmul>
 8007c3a:	493a      	ldr	r1, [pc, #232]	@ (8007d24 <__ieee754_powf+0x234>)
 8007c3c:	4680      	mov	r8, r0
 8007c3e:	4630      	mov	r0, r6
 8007c40:	f7f8 fba4 	bl	800038c <__aeabi_fmul>
 8007c44:	f04f 517a 	mov.w	r1, #1048576000	@ 0x3e800000
 8007c48:	4681      	mov	r9, r0
 8007c4a:	4630      	mov	r0, r6
 8007c4c:	f7f8 fb9e 	bl	800038c <__aeabi_fmul>
 8007c50:	4601      	mov	r1, r0
 8007c52:	4835      	ldr	r0, [pc, #212]	@ (8007d28 <__ieee754_powf+0x238>)
 8007c54:	f7f8 fa90 	bl	8000178 <__aeabi_fsub>
 8007c58:	4631      	mov	r1, r6
 8007c5a:	f7f8 fb97 	bl	800038c <__aeabi_fmul>
 8007c5e:	4601      	mov	r1, r0
 8007c60:	f04f 507c 	mov.w	r0, #1056964608	@ 0x3f000000
 8007c64:	f7f8 fa88 	bl	8000178 <__aeabi_fsub>
 8007c68:	4631      	mov	r1, r6
 8007c6a:	4682      	mov	sl, r0
 8007c6c:	4630      	mov	r0, r6
 8007c6e:	f7f8 fb8d 	bl	800038c <__aeabi_fmul>
 8007c72:	4601      	mov	r1, r0
 8007c74:	4650      	mov	r0, sl
 8007c76:	f7f8 fb89 	bl	800038c <__aeabi_fmul>
 8007c7a:	492c      	ldr	r1, [pc, #176]	@ (8007d2c <__ieee754_powf+0x23c>)
 8007c7c:	f7f8 fb86 	bl	800038c <__aeabi_fmul>
 8007c80:	4601      	mov	r1, r0
 8007c82:	4648      	mov	r0, r9
 8007c84:	f7f8 fa78 	bl	8000178 <__aeabi_fsub>
 8007c88:	4601      	mov	r1, r0
 8007c8a:	4606      	mov	r6, r0
 8007c8c:	4640      	mov	r0, r8
 8007c8e:	f7f8 fa75 	bl	800017c <__addsf3>
 8007c92:	f420 6b7f 	bic.w	fp, r0, #4080	@ 0xff0
 8007c96:	f02b 0b0f 	bic.w	fp, fp, #15
 8007c9a:	4641      	mov	r1, r8
 8007c9c:	4658      	mov	r0, fp
 8007c9e:	f7f8 fa6b 	bl	8000178 <__aeabi_fsub>
 8007ca2:	4601      	mov	r1, r0
 8007ca4:	4630      	mov	r0, r6
 8007ca6:	f7f8 fa67 	bl	8000178 <__aeabi_fsub>
 8007caa:	9b03      	ldr	r3, [sp, #12]
 8007cac:	3d01      	subs	r5, #1
 8007cae:	f36f 040b 	bfc	r4, #0, #12
 8007cb2:	431d      	orrs	r5, r3
 8007cb4:	4606      	mov	r6, r0
 8007cb6:	4621      	mov	r1, r4
 8007cb8:	4638      	mov	r0, r7
 8007cba:	bf14      	ite	ne
 8007cbc:	f04f 557e 	movne.w	r5, #1065353216	@ 0x3f800000
 8007cc0:	4d1b      	ldreq	r5, [pc, #108]	@ (8007d30 <__ieee754_powf+0x240>)
 8007cc2:	f7f8 fa59 	bl	8000178 <__aeabi_fsub>
 8007cc6:	4659      	mov	r1, fp
 8007cc8:	f7f8 fb60 	bl	800038c <__aeabi_fmul>
 8007ccc:	4639      	mov	r1, r7
 8007cce:	4680      	mov	r8, r0
 8007cd0:	4630      	mov	r0, r6
 8007cd2:	f7f8 fb5b 	bl	800038c <__aeabi_fmul>
 8007cd6:	4601      	mov	r1, r0
 8007cd8:	4640      	mov	r0, r8
 8007cda:	f7f8 fa4f 	bl	800017c <__addsf3>
 8007cde:	4621      	mov	r1, r4
 8007ce0:	4606      	mov	r6, r0
 8007ce2:	4658      	mov	r0, fp
 8007ce4:	f7f8 fb52 	bl	800038c <__aeabi_fmul>
 8007ce8:	4601      	mov	r1, r0
 8007cea:	4607      	mov	r7, r0
 8007cec:	4630      	mov	r0, r6
 8007cee:	f7f8 fa45 	bl	800017c <__addsf3>
 8007cf2:	2800      	cmp	r0, #0
 8007cf4:	4604      	mov	r4, r0
 8007cf6:	4680      	mov	r8, r0
 8007cf8:	f020 4300 	bic.w	r3, r0, #2147483648	@ 0x80000000
 8007cfc:	f340 813f 	ble.w	8007f7e <__ieee754_powf+0x48e>
 8007d00:	f1b3 4f86 	cmp.w	r3, #1124073472	@ 0x43000000
 8007d04:	f240 8128 	bls.w	8007f58 <__ieee754_powf+0x468>
 8007d08:	2100      	movs	r1, #0
 8007d0a:	4628      	mov	r0, r5
 8007d0c:	f7f8 fcdc 	bl	80006c8 <__aeabi_fcmplt>
 8007d10:	3800      	subs	r0, #0
 8007d12:	bf18      	it	ne
 8007d14:	2001      	movne	r0, #1
 8007d16:	e778      	b.n	8007c0a <__ieee754_powf+0x11a>
 8007d18:	3f7ffff3 	.word	0x3f7ffff3
 8007d1c:	3f800007 	.word	0x3f800007
 8007d20:	3fb8aa00 	.word	0x3fb8aa00
 8007d24:	36eca570 	.word	0x36eca570
 8007d28:	3eaaaaab 	.word	0x3eaaaaab
 8007d2c:	3fb8aa3b 	.word	0x3fb8aa3b
 8007d30:	bf800000 	.word	0xbf800000
 8007d34:	f016 4fff 	tst.w	r6, #2139095040	@ 0x7f800000
 8007d38:	f040 810a 	bne.w	8007f50 <__ieee754_powf+0x460>
 8007d3c:	f04f 4197 	mov.w	r1, #1266679808	@ 0x4b800000
 8007d40:	f7f8 fb24 	bl	800038c <__aeabi_fmul>
 8007d44:	f06f 0217 	mvn.w	r2, #23
 8007d48:	4682      	mov	sl, r0
 8007d4a:	ea4f 53ea 	mov.w	r3, sl, asr #23
 8007d4e:	3b7f      	subs	r3, #127	@ 0x7f
 8007d50:	441a      	add	r2, r3
 8007d52:	4b95      	ldr	r3, [pc, #596]	@ (8007fa8 <__ieee754_powf+0x4b8>)
 8007d54:	f3ca 0a16 	ubfx	sl, sl, #0, #23
 8007d58:	459a      	cmp	sl, r3
 8007d5a:	f04a 567e 	orr.w	r6, sl, #1065353216	@ 0x3f800000
 8007d5e:	dd06      	ble.n	8007d6e <__ieee754_powf+0x27e>
 8007d60:	4b92      	ldr	r3, [pc, #584]	@ (8007fac <__ieee754_powf+0x4bc>)
 8007d62:	459a      	cmp	sl, r3
 8007d64:	f340 80f6 	ble.w	8007f54 <__ieee754_powf+0x464>
 8007d68:	3201      	adds	r2, #1
 8007d6a:	f5a6 0600 	sub.w	r6, r6, #8388608	@ 0x800000
 8007d6e:	2300      	movs	r3, #0
 8007d70:	9301      	str	r3, [sp, #4]
 8007d72:	9205      	str	r2, [sp, #20]
 8007d74:	4b8e      	ldr	r3, [pc, #568]	@ (8007fb0 <__ieee754_powf+0x4c0>)
 8007d76:	9a01      	ldr	r2, [sp, #4]
 8007d78:	4630      	mov	r0, r6
 8007d7a:	f853 b022 	ldr.w	fp, [r3, r2, lsl #2]
 8007d7e:	46b2      	mov	sl, r6
 8007d80:	4659      	mov	r1, fp
 8007d82:	f7f8 f9f9 	bl	8000178 <__aeabi_fsub>
 8007d86:	4631      	mov	r1, r6
 8007d88:	4681      	mov	r9, r0
 8007d8a:	4658      	mov	r0, fp
 8007d8c:	f7f8 f9f6 	bl	800017c <__addsf3>
 8007d90:	4601      	mov	r1, r0
 8007d92:	f04f 507e 	mov.w	r0, #1065353216	@ 0x3f800000
 8007d96:	f7f8 fbad 	bl	80004f4 <__aeabi_fdiv>
 8007d9a:	4601      	mov	r1, r0
 8007d9c:	9004      	str	r0, [sp, #16]
 8007d9e:	4648      	mov	r0, r9
 8007da0:	f7f8 faf4 	bl	800038c <__aeabi_fmul>
 8007da4:	9002      	str	r0, [sp, #8]
 8007da6:	9b02      	ldr	r3, [sp, #8]
 8007da8:	1076      	asrs	r6, r6, #1
 8007daa:	f36f 030b 	bfc	r3, #0, #12
 8007dae:	4698      	mov	r8, r3
 8007db0:	f046 5600 	orr.w	r6, r6, #536870912	@ 0x20000000
 8007db4:	9b01      	ldr	r3, [sp, #4]
 8007db6:	f506 2680 	add.w	r6, r6, #262144	@ 0x40000
 8007dba:	eb06 5643 	add.w	r6, r6, r3, lsl #21
 8007dbe:	4631      	mov	r1, r6
 8007dc0:	4640      	mov	r0, r8
 8007dc2:	f7f8 fae3 	bl	800038c <__aeabi_fmul>
 8007dc6:	4601      	mov	r1, r0
 8007dc8:	4648      	mov	r0, r9
 8007dca:	f7f8 f9d5 	bl	8000178 <__aeabi_fsub>
 8007dce:	4659      	mov	r1, fp
 8007dd0:	4681      	mov	r9, r0
 8007dd2:	4630      	mov	r0, r6
 8007dd4:	f7f8 f9d0 	bl	8000178 <__aeabi_fsub>
 8007dd8:	4601      	mov	r1, r0
 8007dda:	4650      	mov	r0, sl
 8007ddc:	f7f8 f9cc 	bl	8000178 <__aeabi_fsub>
 8007de0:	4641      	mov	r1, r8
 8007de2:	f7f8 fad3 	bl	800038c <__aeabi_fmul>
 8007de6:	4601      	mov	r1, r0
 8007de8:	4648      	mov	r0, r9
 8007dea:	f7f8 f9c5 	bl	8000178 <__aeabi_fsub>
 8007dee:	9b04      	ldr	r3, [sp, #16]
 8007df0:	4619      	mov	r1, r3
 8007df2:	f7f8 facb 	bl	800038c <__aeabi_fmul>
 8007df6:	9902      	ldr	r1, [sp, #8]
 8007df8:	4683      	mov	fp, r0
 8007dfa:	4608      	mov	r0, r1
 8007dfc:	f7f8 fac6 	bl	800038c <__aeabi_fmul>
 8007e00:	4606      	mov	r6, r0
 8007e02:	496c      	ldr	r1, [pc, #432]	@ (8007fb4 <__ieee754_powf+0x4c4>)
 8007e04:	f7f8 fac2 	bl	800038c <__aeabi_fmul>
 8007e08:	496b      	ldr	r1, [pc, #428]	@ (8007fb8 <__ieee754_powf+0x4c8>)
 8007e0a:	f7f8 f9b7 	bl	800017c <__addsf3>
 8007e0e:	4631      	mov	r1, r6
 8007e10:	f7f8 fabc 	bl	800038c <__aeabi_fmul>
 8007e14:	4969      	ldr	r1, [pc, #420]	@ (8007fbc <__ieee754_powf+0x4cc>)
 8007e16:	f7f8 f9b1 	bl	800017c <__addsf3>
 8007e1a:	4631      	mov	r1, r6
 8007e1c:	f7f8 fab6 	bl	800038c <__aeabi_fmul>
 8007e20:	4967      	ldr	r1, [pc, #412]	@ (8007fc0 <__ieee754_powf+0x4d0>)
 8007e22:	f7f8 f9ab 	bl	800017c <__addsf3>
 8007e26:	4631      	mov	r1, r6
 8007e28:	f7f8 fab0 	bl	800038c <__aeabi_fmul>
 8007e2c:	4965      	ldr	r1, [pc, #404]	@ (8007fc4 <__ieee754_powf+0x4d4>)
 8007e2e:	f7f8 f9a5 	bl	800017c <__addsf3>
 8007e32:	4631      	mov	r1, r6
 8007e34:	f7f8 faaa 	bl	800038c <__aeabi_fmul>
 8007e38:	4963      	ldr	r1, [pc, #396]	@ (8007fc8 <__ieee754_powf+0x4d8>)
 8007e3a:	f7f8 f99f 	bl	800017c <__addsf3>
 8007e3e:	4631      	mov	r1, r6
 8007e40:	4681      	mov	r9, r0
 8007e42:	4630      	mov	r0, r6
 8007e44:	f7f8 faa2 	bl	800038c <__aeabi_fmul>
 8007e48:	4601      	mov	r1, r0
 8007e4a:	4648      	mov	r0, r9
 8007e4c:	f7f8 fa9e 	bl	800038c <__aeabi_fmul>
 8007e50:	4606      	mov	r6, r0
 8007e52:	4641      	mov	r1, r8
 8007e54:	9802      	ldr	r0, [sp, #8]
 8007e56:	f7f8 f991 	bl	800017c <__addsf3>
 8007e5a:	4659      	mov	r1, fp
 8007e5c:	f7f8 fa96 	bl	800038c <__aeabi_fmul>
 8007e60:	4631      	mov	r1, r6
 8007e62:	f7f8 f98b 	bl	800017c <__addsf3>
 8007e66:	4641      	mov	r1, r8
 8007e68:	4681      	mov	r9, r0
 8007e6a:	4640      	mov	r0, r8
 8007e6c:	f7f8 fa8e 	bl	800038c <__aeabi_fmul>
 8007e70:	4956      	ldr	r1, [pc, #344]	@ (8007fcc <__ieee754_powf+0x4dc>)
 8007e72:	4682      	mov	sl, r0
 8007e74:	f7f8 f982 	bl	800017c <__addsf3>
 8007e78:	4649      	mov	r1, r9
 8007e7a:	f7f8 f97f 	bl	800017c <__addsf3>
 8007e7e:	f420 667f 	bic.w	r6, r0, #4080	@ 0xff0
 8007e82:	f026 060f 	bic.w	r6, r6, #15
 8007e86:	4631      	mov	r1, r6
 8007e88:	4640      	mov	r0, r8
 8007e8a:	f7f8 fa7f 	bl	800038c <__aeabi_fmul>
 8007e8e:	494f      	ldr	r1, [pc, #316]	@ (8007fcc <__ieee754_powf+0x4dc>)
 8007e90:	4680      	mov	r8, r0
 8007e92:	4630      	mov	r0, r6
 8007e94:	f7f8 f970 	bl	8000178 <__aeabi_fsub>
 8007e98:	4651      	mov	r1, sl
 8007e9a:	f7f8 f96d 	bl	8000178 <__aeabi_fsub>
 8007e9e:	4601      	mov	r1, r0
 8007ea0:	4648      	mov	r0, r9
 8007ea2:	f7f8 f969 	bl	8000178 <__aeabi_fsub>
 8007ea6:	9902      	ldr	r1, [sp, #8]
 8007ea8:	f7f8 fa70 	bl	800038c <__aeabi_fmul>
 8007eac:	4631      	mov	r1, r6
 8007eae:	4681      	mov	r9, r0
 8007eb0:	4658      	mov	r0, fp
 8007eb2:	f7f8 fa6b 	bl	800038c <__aeabi_fmul>
 8007eb6:	4601      	mov	r1, r0
 8007eb8:	4648      	mov	r0, r9
 8007eba:	f7f8 f95f 	bl	800017c <__addsf3>
 8007ebe:	4682      	mov	sl, r0
 8007ec0:	4601      	mov	r1, r0
 8007ec2:	4640      	mov	r0, r8
 8007ec4:	f7f8 f95a 	bl	800017c <__addsf3>
 8007ec8:	f420 667f 	bic.w	r6, r0, #4080	@ 0xff0
 8007ecc:	f026 060f 	bic.w	r6, r6, #15
 8007ed0:	4630      	mov	r0, r6
 8007ed2:	493f      	ldr	r1, [pc, #252]	@ (8007fd0 <__ieee754_powf+0x4e0>)
 8007ed4:	f7f8 fa5a 	bl	800038c <__aeabi_fmul>
 8007ed8:	4641      	mov	r1, r8
 8007eda:	4681      	mov	r9, r0
 8007edc:	4630      	mov	r0, r6
 8007ede:	f7f8 f94b 	bl	8000178 <__aeabi_fsub>
 8007ee2:	4601      	mov	r1, r0
 8007ee4:	4650      	mov	r0, sl
 8007ee6:	f7f8 f947 	bl	8000178 <__aeabi_fsub>
 8007eea:	493a      	ldr	r1, [pc, #232]	@ (8007fd4 <__ieee754_powf+0x4e4>)
 8007eec:	f7f8 fa4e 	bl	800038c <__aeabi_fmul>
 8007ef0:	4939      	ldr	r1, [pc, #228]	@ (8007fd8 <__ieee754_powf+0x4e8>)
 8007ef2:	4680      	mov	r8, r0
 8007ef4:	4630      	mov	r0, r6
 8007ef6:	f7f8 fa49 	bl	800038c <__aeabi_fmul>
 8007efa:	4601      	mov	r1, r0
 8007efc:	4640      	mov	r0, r8
 8007efe:	f7f8 f93d 	bl	800017c <__addsf3>
 8007f02:	4b36      	ldr	r3, [pc, #216]	@ (8007fdc <__ieee754_powf+0x4ec>)
 8007f04:	9a01      	ldr	r2, [sp, #4]
 8007f06:	f853 1022 	ldr.w	r1, [r3, r2, lsl #2]
 8007f0a:	f7f8 f937 	bl	800017c <__addsf3>
 8007f0e:	9a05      	ldr	r2, [sp, #20]
 8007f10:	4606      	mov	r6, r0
 8007f12:	4610      	mov	r0, r2
 8007f14:	f7f8 f9e6 	bl	80002e4 <__aeabi_i2f>
 8007f18:	4680      	mov	r8, r0
 8007f1a:	4b31      	ldr	r3, [pc, #196]	@ (8007fe0 <__ieee754_powf+0x4f0>)
 8007f1c:	9a01      	ldr	r2, [sp, #4]
 8007f1e:	4631      	mov	r1, r6
 8007f20:	f853 a022 	ldr.w	sl, [r3, r2, lsl #2]
 8007f24:	4648      	mov	r0, r9
 8007f26:	f7f8 f929 	bl	800017c <__addsf3>
 8007f2a:	4651      	mov	r1, sl
 8007f2c:	f7f8 f926 	bl	800017c <__addsf3>
 8007f30:	4641      	mov	r1, r8
 8007f32:	f7f8 f923 	bl	800017c <__addsf3>
 8007f36:	f420 6b7f 	bic.w	fp, r0, #4080	@ 0xff0
 8007f3a:	f02b 0b0f 	bic.w	fp, fp, #15
 8007f3e:	4641      	mov	r1, r8
 8007f40:	4658      	mov	r0, fp
 8007f42:	f7f8 f919 	bl	8000178 <__aeabi_fsub>
 8007f46:	4651      	mov	r1, sl
 8007f48:	f7f8 f916 	bl	8000178 <__aeabi_fsub>
 8007f4c:	4649      	mov	r1, r9
 8007f4e:	e6a6      	b.n	8007c9e <__ieee754_powf+0x1ae>
 8007f50:	2200      	movs	r2, #0
 8007f52:	e6fa      	b.n	8007d4a <__ieee754_powf+0x25a>
 8007f54:	2301      	movs	r3, #1
 8007f56:	e70b      	b.n	8007d70 <__ieee754_powf+0x280>
 8007f58:	d148      	bne.n	8007fec <__ieee754_powf+0x4fc>
 8007f5a:	4922      	ldr	r1, [pc, #136]	@ (8007fe4 <__ieee754_powf+0x4f4>)
 8007f5c:	4630      	mov	r0, r6
 8007f5e:	f7f8 f90d 	bl	800017c <__addsf3>
 8007f62:	4639      	mov	r1, r7
 8007f64:	4681      	mov	r9, r0
 8007f66:	4620      	mov	r0, r4
 8007f68:	f7f8 f906 	bl	8000178 <__aeabi_fsub>
 8007f6c:	4601      	mov	r1, r0
 8007f6e:	4648      	mov	r0, r9
 8007f70:	f7f8 fbc8 	bl	8000704 <__aeabi_fcmpgt>
 8007f74:	2800      	cmp	r0, #0
 8007f76:	f47f aec7 	bne.w	8007d08 <__ieee754_powf+0x218>
 8007f7a:	2386      	movs	r3, #134	@ 0x86
 8007f7c:	e03b      	b.n	8007ff6 <__ieee754_powf+0x506>
 8007f7e:	4a1a      	ldr	r2, [pc, #104]	@ (8007fe8 <__ieee754_powf+0x4f8>)
 8007f80:	4293      	cmp	r3, r2
 8007f82:	d907      	bls.n	8007f94 <__ieee754_powf+0x4a4>
 8007f84:	2100      	movs	r1, #0
 8007f86:	4628      	mov	r0, r5
 8007f88:	f7f8 fb9e 	bl	80006c8 <__aeabi_fcmplt>
 8007f8c:	3800      	subs	r0, #0
 8007f8e:	bf18      	it	ne
 8007f90:	2001      	movne	r0, #1
 8007f92:	e645      	b.n	8007c20 <__ieee754_powf+0x130>
 8007f94:	d12a      	bne.n	8007fec <__ieee754_powf+0x4fc>
 8007f96:	4639      	mov	r1, r7
 8007f98:	f7f8 f8ee 	bl	8000178 <__aeabi_fsub>
 8007f9c:	4631      	mov	r1, r6
 8007f9e:	f7f8 fba7 	bl	80006f0 <__aeabi_fcmpge>
 8007fa2:	2800      	cmp	r0, #0
 8007fa4:	d0e9      	beq.n	8007f7a <__ieee754_powf+0x48a>
 8007fa6:	e7ed      	b.n	8007f84 <__ieee754_powf+0x494>
 8007fa8:	001cc471 	.word	0x001cc471
 8007fac:	005db3d6 	.word	0x005db3d6
 8007fb0:	08008f84 	.word	0x08008f84
 8007fb4:	3e53f142 	.word	0x3e53f142
 8007fb8:	3e6c3255 	.word	0x3e6c3255
 8007fbc:	3e8ba305 	.word	0x3e8ba305
 8007fc0:	3eaaaaab 	.word	0x3eaaaaab
 8007fc4:	3edb6db7 	.word	0x3edb6db7
 8007fc8:	3f19999a 	.word	0x3f19999a
 8007fcc:	40400000 	.word	0x40400000
 8007fd0:	3f763800 	.word	0x3f763800
 8007fd4:	3f76384f 	.word	0x3f76384f
 8007fd8:	369dc3a0 	.word	0x369dc3a0
 8007fdc:	08008f74 	.word	0x08008f74
 8007fe0:	08008f7c 	.word	0x08008f7c
 8007fe4:	3338aa3c 	.word	0x3338aa3c
 8007fe8:	43160000 	.word	0x43160000
 8007fec:	f1b3 5f7c 	cmp.w	r3, #1056964608	@ 0x3f000000
 8007ff0:	f240 809b 	bls.w	800812a <__ieee754_powf+0x63a>
 8007ff4:	15db      	asrs	r3, r3, #23
 8007ff6:	f44f 0400 	mov.w	r4, #8388608	@ 0x800000
 8007ffa:	3b7e      	subs	r3, #126	@ 0x7e
 8007ffc:	411c      	asrs	r4, r3
 8007ffe:	4444      	add	r4, r8
 8008000:	f3c4 53c7 	ubfx	r3, r4, #23, #8
 8008004:	4961      	ldr	r1, [pc, #388]	@ (800818c <__ieee754_powf+0x69c>)
 8008006:	3b7f      	subs	r3, #127	@ 0x7f
 8008008:	4119      	asrs	r1, r3
 800800a:	4021      	ands	r1, r4
 800800c:	f3c4 0416 	ubfx	r4, r4, #0, #23
 8008010:	f1c3 0317 	rsb	r3, r3, #23
 8008014:	f444 0400 	orr.w	r4, r4, #8388608	@ 0x800000
 8008018:	4638      	mov	r0, r7
 800801a:	411c      	asrs	r4, r3
 800801c:	f1b8 0f00 	cmp.w	r8, #0
 8008020:	bfb8      	it	lt
 8008022:	4264      	neglt	r4, r4
 8008024:	f7f8 f8a8 	bl	8000178 <__aeabi_fsub>
 8008028:	4607      	mov	r7, r0
 800802a:	4631      	mov	r1, r6
 800802c:	4638      	mov	r0, r7
 800802e:	f7f8 f8a5 	bl	800017c <__addsf3>
 8008032:	f420 687f 	bic.w	r8, r0, #4080	@ 0xff0
 8008036:	f028 080f 	bic.w	r8, r8, #15
 800803a:	4640      	mov	r0, r8
 800803c:	4954      	ldr	r1, [pc, #336]	@ (8008190 <__ieee754_powf+0x6a0>)
 800803e:	f7f8 f9a5 	bl	800038c <__aeabi_fmul>
 8008042:	4639      	mov	r1, r7
 8008044:	4681      	mov	r9, r0
 8008046:	4640      	mov	r0, r8
 8008048:	f7f8 f896 	bl	8000178 <__aeabi_fsub>
 800804c:	4601      	mov	r1, r0
 800804e:	4630      	mov	r0, r6
 8008050:	f7f8 f892 	bl	8000178 <__aeabi_fsub>
 8008054:	494f      	ldr	r1, [pc, #316]	@ (8008194 <__ieee754_powf+0x6a4>)
 8008056:	f7f8 f999 	bl	800038c <__aeabi_fmul>
 800805a:	494f      	ldr	r1, [pc, #316]	@ (8008198 <__ieee754_powf+0x6a8>)
 800805c:	4606      	mov	r6, r0
 800805e:	4640      	mov	r0, r8
 8008060:	f7f8 f994 	bl	800038c <__aeabi_fmul>
 8008064:	4601      	mov	r1, r0
 8008066:	4630      	mov	r0, r6
 8008068:	f7f8 f888 	bl	800017c <__addsf3>
 800806c:	4607      	mov	r7, r0
 800806e:	4601      	mov	r1, r0
 8008070:	4648      	mov	r0, r9
 8008072:	f7f8 f883 	bl	800017c <__addsf3>
 8008076:	4649      	mov	r1, r9
 8008078:	4606      	mov	r6, r0
 800807a:	f7f8 f87d 	bl	8000178 <__aeabi_fsub>
 800807e:	4601      	mov	r1, r0
 8008080:	4638      	mov	r0, r7
 8008082:	f7f8 f879 	bl	8000178 <__aeabi_fsub>
 8008086:	4631      	mov	r1, r6
 8008088:	4680      	mov	r8, r0
 800808a:	4630      	mov	r0, r6
 800808c:	f7f8 f97e 	bl	800038c <__aeabi_fmul>
 8008090:	4607      	mov	r7, r0
 8008092:	4942      	ldr	r1, [pc, #264]	@ (800819c <__ieee754_powf+0x6ac>)
 8008094:	f7f8 f97a 	bl	800038c <__aeabi_fmul>
 8008098:	4941      	ldr	r1, [pc, #260]	@ (80081a0 <__ieee754_powf+0x6b0>)
 800809a:	f7f8 f86d 	bl	8000178 <__aeabi_fsub>
 800809e:	4639      	mov	r1, r7
 80080a0:	f7f8 f974 	bl	800038c <__aeabi_fmul>
 80080a4:	493f      	ldr	r1, [pc, #252]	@ (80081a4 <__ieee754_powf+0x6b4>)
 80080a6:	f7f8 f869 	bl	800017c <__addsf3>
 80080aa:	4639      	mov	r1, r7
 80080ac:	f7f8 f96e 	bl	800038c <__aeabi_fmul>
 80080b0:	493d      	ldr	r1, [pc, #244]	@ (80081a8 <__ieee754_powf+0x6b8>)
 80080b2:	f7f8 f861 	bl	8000178 <__aeabi_fsub>
 80080b6:	4639      	mov	r1, r7
 80080b8:	f7f8 f968 	bl	800038c <__aeabi_fmul>
 80080bc:	493b      	ldr	r1, [pc, #236]	@ (80081ac <__ieee754_powf+0x6bc>)
 80080be:	f7f8 f85d 	bl	800017c <__addsf3>
 80080c2:	4639      	mov	r1, r7
 80080c4:	f7f8 f962 	bl	800038c <__aeabi_fmul>
 80080c8:	4601      	mov	r1, r0
 80080ca:	4630      	mov	r0, r6
 80080cc:	f7f8 f854 	bl	8000178 <__aeabi_fsub>
 80080d0:	4607      	mov	r7, r0
 80080d2:	4601      	mov	r1, r0
 80080d4:	4630      	mov	r0, r6
 80080d6:	f7f8 f959 	bl	800038c <__aeabi_fmul>
 80080da:	f04f 4180 	mov.w	r1, #1073741824	@ 0x40000000
 80080de:	4681      	mov	r9, r0
 80080e0:	4638      	mov	r0, r7
 80080e2:	f7f8 f849 	bl	8000178 <__aeabi_fsub>
 80080e6:	4601      	mov	r1, r0
 80080e8:	4648      	mov	r0, r9
 80080ea:	f7f8 fa03 	bl	80004f4 <__aeabi_fdiv>
 80080ee:	4641      	mov	r1, r8
 80080f0:	4607      	mov	r7, r0
 80080f2:	4630      	mov	r0, r6
 80080f4:	f7f8 f94a 	bl	800038c <__aeabi_fmul>
 80080f8:	4641      	mov	r1, r8
 80080fa:	f7f8 f83f 	bl	800017c <__addsf3>
 80080fe:	4601      	mov	r1, r0
 8008100:	4638      	mov	r0, r7
 8008102:	f7f8 f839 	bl	8000178 <__aeabi_fsub>
 8008106:	4631      	mov	r1, r6
 8008108:	f7f8 f836 	bl	8000178 <__aeabi_fsub>
 800810c:	4601      	mov	r1, r0
 800810e:	f04f 507e 	mov.w	r0, #1065353216	@ 0x3f800000
 8008112:	f7f8 f831 	bl	8000178 <__aeabi_fsub>
 8008116:	eb00 53c4 	add.w	r3, r0, r4, lsl #23
 800811a:	f5b3 0f00 	cmp.w	r3, #8388608	@ 0x800000
 800811e:	da06      	bge.n	800812e <__ieee754_powf+0x63e>
 8008120:	4621      	mov	r1, r4
 8008122:	f000 f9af 	bl	8008484 <scalbnf>
 8008126:	4629      	mov	r1, r5
 8008128:	e549      	b.n	8007bbe <__ieee754_powf+0xce>
 800812a:	2400      	movs	r4, #0
 800812c:	e77d      	b.n	800802a <__ieee754_powf+0x53a>
 800812e:	4618      	mov	r0, r3
 8008130:	e7f9      	b.n	8008126 <__ieee754_powf+0x636>
 8008132:	f04f 517e 	mov.w	r1, #1065353216	@ 0x3f800000
 8008136:	e536      	b.n	8007ba6 <__ieee754_powf+0xb6>
 8008138:	4639      	mov	r1, r7
 800813a:	e534      	b.n	8007ba6 <__ieee754_powf+0xb6>
 800813c:	f1bb 4fff 	cmp.w	fp, #2139095040	@ 0x7f800000
 8008140:	f43f ad23 	beq.w	8007b8a <__ieee754_powf+0x9a>
 8008144:	2502      	movs	r5, #2
 8008146:	4648      	mov	r0, r9
 8008148:	f000 f998 	bl	800847c <fabsf>
 800814c:	f026 4340 	bic.w	r3, r6, #3221225472	@ 0xc0000000
 8008150:	f1b3 5f7e 	cmp.w	r3, #1065353216	@ 0x3f800000
 8008154:	46c2      	mov	sl, r8
 8008156:	4601      	mov	r1, r0
 8008158:	d003      	beq.n	8008162 <__ieee754_powf+0x672>
 800815a:	f1b8 0f00 	cmp.w	r8, #0
 800815e:	f47f ad43 	bne.w	8007be8 <__ieee754_powf+0xf8>
 8008162:	2c00      	cmp	r4, #0
 8008164:	da04      	bge.n	8008170 <__ieee754_powf+0x680>
 8008166:	f04f 507e 	mov.w	r0, #1065353216	@ 0x3f800000
 800816a:	f7f8 f9c3 	bl	80004f4 <__aeabi_fdiv>
 800816e:	4601      	mov	r1, r0
 8008170:	2e00      	cmp	r6, #0
 8008172:	f6bf ad18 	bge.w	8007ba6 <__ieee754_powf+0xb6>
 8008176:	f1a8 587e 	sub.w	r8, r8, #1065353216	@ 0x3f800000
 800817a:	ea58 0805 	orrs.w	r8, r8, r5
 800817e:	f47f ad2e 	bne.w	8007bde <__ieee754_powf+0xee>
 8008182:	4608      	mov	r0, r1
 8008184:	f7f7 fff8 	bl	8000178 <__aeabi_fsub>
 8008188:	4601      	mov	r1, r0
 800818a:	e4f8      	b.n	8007b7e <__ieee754_powf+0x8e>
 800818c:	ff800000 	.word	0xff800000
 8008190:	3f317200 	.word	0x3f317200
 8008194:	3f317218 	.word	0x3f317218
 8008198:	35bfbe8c 	.word	0x35bfbe8c
 800819c:	3331bb4c 	.word	0x3331bb4c
 80081a0:	35ddea0e 	.word	0x35ddea0e
 80081a4:	388ab355 	.word	0x388ab355
 80081a8:	3b360b61 	.word	0x3b360b61
 80081ac:	3e2aaaab 	.word	0x3e2aaaab

080081b0 <__ieee754_rem_pio2f>:
 80081b0:	e92d 4ff0 	stmdb	sp!, {r4, r5, r6, r7, r8, r9, sl, fp, lr}
 80081b4:	4aa4      	ldr	r2, [pc, #656]	@ (8008448 <__ieee754_rem_pio2f+0x298>)
 80081b6:	f020 4800 	bic.w	r8, r0, #2147483648	@ 0x80000000
 80081ba:	4590      	cmp	r8, r2
 80081bc:	460c      	mov	r4, r1
 80081be:	4682      	mov	sl, r0
 80081c0:	b087      	sub	sp, #28
 80081c2:	d804      	bhi.n	80081ce <__ieee754_rem_pio2f+0x1e>
 80081c4:	2300      	movs	r3, #0
 80081c6:	6008      	str	r0, [r1, #0]
 80081c8:	604b      	str	r3, [r1, #4]
 80081ca:	2500      	movs	r5, #0
 80081cc:	e01d      	b.n	800820a <__ieee754_rem_pio2f+0x5a>
 80081ce:	4a9f      	ldr	r2, [pc, #636]	@ (800844c <__ieee754_rem_pio2f+0x29c>)
 80081d0:	4590      	cmp	r8, r2
 80081d2:	d84f      	bhi.n	8008274 <__ieee754_rem_pio2f+0xc4>
 80081d4:	f020 4500 	bic.w	r5, r0, #2147483648	@ 0x80000000
 80081d8:	2800      	cmp	r0, #0
 80081da:	499d      	ldr	r1, [pc, #628]	@ (8008450 <__ieee754_rem_pio2f+0x2a0>)
 80081dc:	4f9d      	ldr	r7, [pc, #628]	@ (8008454 <__ieee754_rem_pio2f+0x2a4>)
 80081de:	f025 050f 	bic.w	r5, r5, #15
 80081e2:	dd24      	ble.n	800822e <__ieee754_rem_pio2f+0x7e>
 80081e4:	f7f7 ffc8 	bl	8000178 <__aeabi_fsub>
 80081e8:	42bd      	cmp	r5, r7
 80081ea:	4606      	mov	r6, r0
 80081ec:	d011      	beq.n	8008212 <__ieee754_rem_pio2f+0x62>
 80081ee:	499a      	ldr	r1, [pc, #616]	@ (8008458 <__ieee754_rem_pio2f+0x2a8>)
 80081f0:	f7f7 ffc2 	bl	8000178 <__aeabi_fsub>
 80081f4:	4601      	mov	r1, r0
 80081f6:	4605      	mov	r5, r0
 80081f8:	4630      	mov	r0, r6
 80081fa:	f7f7 ffbd 	bl	8000178 <__aeabi_fsub>
 80081fe:	4996      	ldr	r1, [pc, #600]	@ (8008458 <__ieee754_rem_pio2f+0x2a8>)
 8008200:	f7f7 ffba 	bl	8000178 <__aeabi_fsub>
 8008204:	6025      	str	r5, [r4, #0]
 8008206:	2501      	movs	r5, #1
 8008208:	6060      	str	r0, [r4, #4]
 800820a:	4628      	mov	r0, r5
 800820c:	b007      	add	sp, #28
 800820e:	e8bd 8ff0 	ldmia.w	sp!, {r4, r5, r6, r7, r8, r9, sl, fp, pc}
 8008212:	4992      	ldr	r1, [pc, #584]	@ (800845c <__ieee754_rem_pio2f+0x2ac>)
 8008214:	f7f7 ffb0 	bl	8000178 <__aeabi_fsub>
 8008218:	4991      	ldr	r1, [pc, #580]	@ (8008460 <__ieee754_rem_pio2f+0x2b0>)
 800821a:	4606      	mov	r6, r0
 800821c:	f7f7 ffac 	bl	8000178 <__aeabi_fsub>
 8008220:	4601      	mov	r1, r0
 8008222:	4605      	mov	r5, r0
 8008224:	4630      	mov	r0, r6
 8008226:	f7f7 ffa7 	bl	8000178 <__aeabi_fsub>
 800822a:	498d      	ldr	r1, [pc, #564]	@ (8008460 <__ieee754_rem_pio2f+0x2b0>)
 800822c:	e7e8      	b.n	8008200 <__ieee754_rem_pio2f+0x50>
 800822e:	f7f7 ffa5 	bl	800017c <__addsf3>
 8008232:	42bd      	cmp	r5, r7
 8008234:	4606      	mov	r6, r0
 8008236:	d00f      	beq.n	8008258 <__ieee754_rem_pio2f+0xa8>
 8008238:	4987      	ldr	r1, [pc, #540]	@ (8008458 <__ieee754_rem_pio2f+0x2a8>)
 800823a:	f7f7 ff9f 	bl	800017c <__addsf3>
 800823e:	4601      	mov	r1, r0
 8008240:	4605      	mov	r5, r0
 8008242:	4630      	mov	r0, r6
 8008244:	f7f7 ff98 	bl	8000178 <__aeabi_fsub>
 8008248:	4983      	ldr	r1, [pc, #524]	@ (8008458 <__ieee754_rem_pio2f+0x2a8>)
 800824a:	f7f7 ff97 	bl	800017c <__addsf3>
 800824e:	6025      	str	r5, [r4, #0]
 8008250:	6060      	str	r0, [r4, #4]
 8008252:	f04f 35ff 	mov.w	r5, #4294967295
 8008256:	e7d8      	b.n	800820a <__ieee754_rem_pio2f+0x5a>
 8008258:	4980      	ldr	r1, [pc, #512]	@ (800845c <__ieee754_rem_pio2f+0x2ac>)
 800825a:	f7f7 ff8f 	bl	800017c <__addsf3>
 800825e:	4980      	ldr	r1, [pc, #512]	@ (8008460 <__ieee754_rem_pio2f+0x2b0>)
 8008260:	4606      	mov	r6, r0
 8008262:	f7f7 ff8b 	bl	800017c <__addsf3>
 8008266:	4601      	mov	r1, r0
 8008268:	4605      	mov	r5, r0
 800826a:	4630      	mov	r0, r6
 800826c:	f7f7 ff84 	bl	8000178 <__aeabi_fsub>
 8008270:	497b      	ldr	r1, [pc, #492]	@ (8008460 <__ieee754_rem_pio2f+0x2b0>)
 8008272:	e7ea      	b.n	800824a <__ieee754_rem_pio2f+0x9a>
 8008274:	4a7b      	ldr	r2, [pc, #492]	@ (8008464 <__ieee754_rem_pio2f+0x2b4>)
 8008276:	4590      	cmp	r8, r2
 8008278:	f200 8095 	bhi.w	80083a6 <__ieee754_rem_pio2f+0x1f6>
 800827c:	f000 f8fe 	bl	800847c <fabsf>
 8008280:	4979      	ldr	r1, [pc, #484]	@ (8008468 <__ieee754_rem_pio2f+0x2b8>)
 8008282:	4606      	mov	r6, r0
 8008284:	f7f8 f882 	bl	800038c <__aeabi_fmul>
 8008288:	f04f 517c 	mov.w	r1, #1056964608	@ 0x3f000000
 800828c:	f7f7 ff76 	bl	800017c <__addsf3>
 8008290:	f7f8 fa58 	bl	8000744 <__aeabi_f2iz>
 8008294:	4605      	mov	r5, r0
 8008296:	f7f8 f825 	bl	80002e4 <__aeabi_i2f>
 800829a:	496d      	ldr	r1, [pc, #436]	@ (8008450 <__ieee754_rem_pio2f+0x2a0>)
 800829c:	4681      	mov	r9, r0
 800829e:	f7f8 f875 	bl	800038c <__aeabi_fmul>
 80082a2:	4601      	mov	r1, r0
 80082a4:	4630      	mov	r0, r6
 80082a6:	f7f7 ff67 	bl	8000178 <__aeabi_fsub>
 80082aa:	496b      	ldr	r1, [pc, #428]	@ (8008458 <__ieee754_rem_pio2f+0x2a8>)
 80082ac:	4607      	mov	r7, r0
 80082ae:	4648      	mov	r0, r9
 80082b0:	f7f8 f86c 	bl	800038c <__aeabi_fmul>
 80082b4:	2d1f      	cmp	r5, #31
 80082b6:	4606      	mov	r6, r0
 80082b8:	dc0e      	bgt.n	80082d8 <__ieee754_rem_pio2f+0x128>
 80082ba:	4a6c      	ldr	r2, [pc, #432]	@ (800846c <__ieee754_rem_pio2f+0x2bc>)
 80082bc:	1e69      	subs	r1, r5, #1
 80082be:	f852 2021 	ldr.w	r2, [r2, r1, lsl #2]
 80082c2:	f02a 4300 	bic.w	r3, sl, #2147483648	@ 0x80000000
 80082c6:	f023 03ff 	bic.w	r3, r3, #255	@ 0xff
 80082ca:	4293      	cmp	r3, r2
 80082cc:	d004      	beq.n	80082d8 <__ieee754_rem_pio2f+0x128>
 80082ce:	4631      	mov	r1, r6
 80082d0:	4638      	mov	r0, r7
 80082d2:	f7f7 ff51 	bl	8000178 <__aeabi_fsub>
 80082d6:	e00b      	b.n	80082f0 <__ieee754_rem_pio2f+0x140>
 80082d8:	4631      	mov	r1, r6
 80082da:	4638      	mov	r0, r7
 80082dc:	f7f7 ff4c 	bl	8000178 <__aeabi_fsub>
 80082e0:	f3c0 53c7 	ubfx	r3, r0, #23, #8
 80082e4:	ebc3 53d8 	rsb	r3, r3, r8, lsr #23
 80082e8:	2b08      	cmp	r3, #8
 80082ea:	ea4f 5be8 	mov.w	fp, r8, asr #23
 80082ee:	dc01      	bgt.n	80082f4 <__ieee754_rem_pio2f+0x144>
 80082f0:	6020      	str	r0, [r4, #0]
 80082f2:	e026      	b.n	8008342 <__ieee754_rem_pio2f+0x192>
 80082f4:	4959      	ldr	r1, [pc, #356]	@ (800845c <__ieee754_rem_pio2f+0x2ac>)
 80082f6:	4648      	mov	r0, r9
 80082f8:	f7f8 f848 	bl	800038c <__aeabi_fmul>
 80082fc:	4606      	mov	r6, r0
 80082fe:	4601      	mov	r1, r0
 8008300:	4638      	mov	r0, r7
 8008302:	f7f7 ff39 	bl	8000178 <__aeabi_fsub>
 8008306:	4601      	mov	r1, r0
 8008308:	4680      	mov	r8, r0
 800830a:	4638      	mov	r0, r7
 800830c:	f7f7 ff34 	bl	8000178 <__aeabi_fsub>
 8008310:	4631      	mov	r1, r6
 8008312:	f7f7 ff31 	bl	8000178 <__aeabi_fsub>
 8008316:	4606      	mov	r6, r0
 8008318:	4951      	ldr	r1, [pc, #324]	@ (8008460 <__ieee754_rem_pio2f+0x2b0>)
 800831a:	4648      	mov	r0, r9
 800831c:	f7f8 f836 	bl	800038c <__aeabi_fmul>
 8008320:	4631      	mov	r1, r6
 8008322:	f7f7 ff29 	bl	8000178 <__aeabi_fsub>
 8008326:	4601      	mov	r1, r0
 8008328:	4606      	mov	r6, r0
 800832a:	4640      	mov	r0, r8
 800832c:	f7f7 ff24 	bl	8000178 <__aeabi_fsub>
 8008330:	f3c0 53c7 	ubfx	r3, r0, #23, #8
 8008334:	ebab 0b03 	sub.w	fp, fp, r3
 8008338:	f1bb 0f19 	cmp.w	fp, #25
 800833c:	dc18      	bgt.n	8008370 <__ieee754_rem_pio2f+0x1c0>
 800833e:	4647      	mov	r7, r8
 8008340:	6020      	str	r0, [r4, #0]
 8008342:	f8d4 8000 	ldr.w	r8, [r4]
 8008346:	4638      	mov	r0, r7
 8008348:	4641      	mov	r1, r8
 800834a:	f7f7 ff15 	bl	8000178 <__aeabi_fsub>
 800834e:	4631      	mov	r1, r6
 8008350:	f7f7 ff12 	bl	8000178 <__aeabi_fsub>
 8008354:	f1ba 0f00 	cmp.w	sl, #0
 8008358:	6060      	str	r0, [r4, #4]
 800835a:	f6bf af56 	bge.w	800820a <__ieee754_rem_pio2f+0x5a>
 800835e:	f108 4800 	add.w	r8, r8, #2147483648	@ 0x80000000
 8008362:	f100 4000 	add.w	r0, r0, #2147483648	@ 0x80000000
 8008366:	f8c4 8000 	str.w	r8, [r4]
 800836a:	6060      	str	r0, [r4, #4]
 800836c:	426d      	negs	r5, r5
 800836e:	e74c      	b.n	800820a <__ieee754_rem_pio2f+0x5a>
 8008370:	493f      	ldr	r1, [pc, #252]	@ (8008470 <__ieee754_rem_pio2f+0x2c0>)
 8008372:	4648      	mov	r0, r9
 8008374:	f7f8 f80a 	bl	800038c <__aeabi_fmul>
 8008378:	4606      	mov	r6, r0
 800837a:	4601      	mov	r1, r0
 800837c:	4640      	mov	r0, r8
 800837e:	f7f7 fefb 	bl	8000178 <__aeabi_fsub>
 8008382:	4601      	mov	r1, r0
 8008384:	4607      	mov	r7, r0
 8008386:	4640      	mov	r0, r8
 8008388:	f7f7 fef6 	bl	8000178 <__aeabi_fsub>
 800838c:	4631      	mov	r1, r6
 800838e:	f7f7 fef3 	bl	8000178 <__aeabi_fsub>
 8008392:	4606      	mov	r6, r0
 8008394:	4937      	ldr	r1, [pc, #220]	@ (8008474 <__ieee754_rem_pio2f+0x2c4>)
 8008396:	4648      	mov	r0, r9
 8008398:	f7f7 fff8 	bl	800038c <__aeabi_fmul>
 800839c:	4631      	mov	r1, r6
 800839e:	f7f7 feeb 	bl	8000178 <__aeabi_fsub>
 80083a2:	4606      	mov	r6, r0
 80083a4:	e793      	b.n	80082ce <__ieee754_rem_pio2f+0x11e>
 80083a6:	f1b8 4fff 	cmp.w	r8, #2139095040	@ 0x7f800000
 80083aa:	d305      	bcc.n	80083b8 <__ieee754_rem_pio2f+0x208>
 80083ac:	4601      	mov	r1, r0
 80083ae:	f7f7 fee3 	bl	8000178 <__aeabi_fsub>
 80083b2:	6060      	str	r0, [r4, #4]
 80083b4:	6020      	str	r0, [r4, #0]
 80083b6:	e708      	b.n	80081ca <__ieee754_rem_pio2f+0x1a>
 80083b8:	ea4f 56e8 	mov.w	r6, r8, asr #23
 80083bc:	3e86      	subs	r6, #134	@ 0x86
 80083be:	eba8 58c6 	sub.w	r8, r8, r6, lsl #23
 80083c2:	4640      	mov	r0, r8
 80083c4:	f7f8 f9be 	bl	8000744 <__aeabi_f2iz>
 80083c8:	f7f7 ff8c 	bl	80002e4 <__aeabi_i2f>
 80083cc:	4601      	mov	r1, r0
 80083ce:	9003      	str	r0, [sp, #12]
 80083d0:	4640      	mov	r0, r8
 80083d2:	f7f7 fed1 	bl	8000178 <__aeabi_fsub>
 80083d6:	f04f 4187 	mov.w	r1, #1132462080	@ 0x43800000
 80083da:	f7f7 ffd7 	bl	800038c <__aeabi_fmul>
 80083de:	4607      	mov	r7, r0
 80083e0:	f7f8 f9b0 	bl	8000744 <__aeabi_f2iz>
 80083e4:	f7f7 ff7e 	bl	80002e4 <__aeabi_i2f>
 80083e8:	4601      	mov	r1, r0
 80083ea:	9004      	str	r0, [sp, #16]
 80083ec:	4605      	mov	r5, r0
 80083ee:	4638      	mov	r0, r7
 80083f0:	f7f7 fec2 	bl	8000178 <__aeabi_fsub>
 80083f4:	f04f 4187 	mov.w	r1, #1132462080	@ 0x43800000
 80083f8:	f7f7 ffc8 	bl	800038c <__aeabi_fmul>
 80083fc:	2100      	movs	r1, #0
 80083fe:	9005      	str	r0, [sp, #20]
 8008400:	f7f8 f958 	bl	80006b4 <__aeabi_fcmpeq>
 8008404:	b1f0      	cbz	r0, 8008444 <__ieee754_rem_pio2f+0x294>
 8008406:	2100      	movs	r1, #0
 8008408:	4628      	mov	r0, r5
 800840a:	f7f8 f953 	bl	80006b4 <__aeabi_fcmpeq>
 800840e:	2800      	cmp	r0, #0
 8008410:	bf14      	ite	ne
 8008412:	2301      	movne	r3, #1
 8008414:	2302      	moveq	r3, #2
 8008416:	4a18      	ldr	r2, [pc, #96]	@ (8008478 <__ieee754_rem_pio2f+0x2c8>)
 8008418:	4621      	mov	r1, r4
 800841a:	9201      	str	r2, [sp, #4]
 800841c:	2202      	movs	r2, #2
 800841e:	a803      	add	r0, sp, #12
 8008420:	9200      	str	r2, [sp, #0]
 8008422:	4632      	mov	r2, r6
 8008424:	f000 f898 	bl	8008558 <__kernel_rem_pio2f>
 8008428:	f1ba 0f00 	cmp.w	sl, #0
 800842c:	4605      	mov	r5, r0
 800842e:	f6bf aeec 	bge.w	800820a <__ieee754_rem_pio2f+0x5a>
 8008432:	6823      	ldr	r3, [r4, #0]
 8008434:	f103 4300 	add.w	r3, r3, #2147483648	@ 0x80000000
 8008438:	6023      	str	r3, [r4, #0]
 800843a:	6863      	ldr	r3, [r4, #4]
 800843c:	f103 4300 	add.w	r3, r3, #2147483648	@ 0x80000000
 8008440:	6063      	str	r3, [r4, #4]
 8008442:	e793      	b.n	800836c <__ieee754_rem_pio2f+0x1bc>
 8008444:	2303      	movs	r3, #3
 8008446:	e7e6      	b.n	8008416 <__ieee754_rem_pio2f+0x266>
 8008448:	3f490fd8 	.word	0x3f490fd8
 800844c:	4016cbe3 	.word	0x4016cbe3
 8008450:	3fc90f80 	.word	0x3fc90f80
 8008454:	3fc90fd0 	.word	0x3fc90fd0
 8008458:	37354443 	.word	0x37354443
 800845c:	37354400 	.word	0x37354400
 8008460:	2e85a308 	.word	0x2e85a308
 8008464:	43490f80 	.word	0x43490f80
 8008468:	3f22f984 	.word	0x3f22f984
 800846c:	08008f8c 	.word	0x08008f8c
 8008470:	2e85a300 	.word	0x2e85a300
 8008474:	248d3132 	.word	0x248d3132
 8008478:	0800900c 	.word	0x0800900c

0800847c <fabsf>:
 800847c:	f020 4000 	bic.w	r0, r0, #2147483648	@ 0x80000000
 8008480:	4770      	bx	lr
	...

08008484 <scalbnf>:
 8008484:	f030 4200 	bics.w	r2, r0, #2147483648	@ 0x80000000
 8008488:	b538      	push	{r3, r4, r5, lr}
 800848a:	4603      	mov	r3, r0
 800848c:	460d      	mov	r5, r1
 800848e:	4604      	mov	r4, r0
 8008490:	d02e      	beq.n	80084f0 <scalbnf+0x6c>
 8008492:	f1b2 4fff 	cmp.w	r2, #2139095040	@ 0x7f800000
 8008496:	d304      	bcc.n	80084a2 <scalbnf+0x1e>
 8008498:	4601      	mov	r1, r0
 800849a:	f7f7 fe6f 	bl	800017c <__addsf3>
 800849e:	4603      	mov	r3, r0
 80084a0:	e026      	b.n	80084f0 <scalbnf+0x6c>
 80084a2:	f010 4fff 	tst.w	r0, #2139095040	@ 0x7f800000
 80084a6:	d118      	bne.n	80084da <scalbnf+0x56>
 80084a8:	f04f 4198 	mov.w	r1, #1275068416	@ 0x4c000000
 80084ac:	f7f7 ff6e 	bl	800038c <__aeabi_fmul>
 80084b0:	4a17      	ldr	r2, [pc, #92]	@ (8008510 <scalbnf+0x8c>)
 80084b2:	4603      	mov	r3, r0
 80084b4:	4295      	cmp	r5, r2
 80084b6:	db0c      	blt.n	80084d2 <scalbnf+0x4e>
 80084b8:	4604      	mov	r4, r0
 80084ba:	f3c0 52c7 	ubfx	r2, r0, #23, #8
 80084be:	3a19      	subs	r2, #25
 80084c0:	f24c 3150 	movw	r1, #50000	@ 0xc350
 80084c4:	428d      	cmp	r5, r1
 80084c6:	dd0a      	ble.n	80084de <scalbnf+0x5a>
 80084c8:	4912      	ldr	r1, [pc, #72]	@ (8008514 <scalbnf+0x90>)
 80084ca:	4618      	mov	r0, r3
 80084cc:	f361 001e 	bfi	r0, r1, #0, #31
 80084d0:	e000      	b.n	80084d4 <scalbnf+0x50>
 80084d2:	4911      	ldr	r1, [pc, #68]	@ (8008518 <scalbnf+0x94>)
 80084d4:	f7f7 ff5a 	bl	800038c <__aeabi_fmul>
 80084d8:	e7e1      	b.n	800849e <scalbnf+0x1a>
 80084da:	0dd2      	lsrs	r2, r2, #23
 80084dc:	e7f0      	b.n	80084c0 <scalbnf+0x3c>
 80084de:	1951      	adds	r1, r2, r5
 80084e0:	29fe      	cmp	r1, #254	@ 0xfe
 80084e2:	dcf1      	bgt.n	80084c8 <scalbnf+0x44>
 80084e4:	2900      	cmp	r1, #0
 80084e6:	dd05      	ble.n	80084f4 <scalbnf+0x70>
 80084e8:	f024 44ff 	bic.w	r4, r4, #2139095040	@ 0x7f800000
 80084ec:	ea44 53c1 	orr.w	r3, r4, r1, lsl #23
 80084f0:	4618      	mov	r0, r3
 80084f2:	bd38      	pop	{r3, r4, r5, pc}
 80084f4:	f111 0f16 	cmn.w	r1, #22
 80084f8:	da01      	bge.n	80084fe <scalbnf+0x7a>
 80084fa:	4907      	ldr	r1, [pc, #28]	@ (8008518 <scalbnf+0x94>)
 80084fc:	e7e5      	b.n	80084ca <scalbnf+0x46>
 80084fe:	f101 0019 	add.w	r0, r1, #25
 8008502:	f024 44ff 	bic.w	r4, r4, #2139095040	@ 0x7f800000
 8008506:	f04f 514c 	mov.w	r1, #855638016	@ 0x33000000
 800850a:	ea44 50c0 	orr.w	r0, r4, r0, lsl #23
 800850e:	e7e1      	b.n	80084d4 <scalbnf+0x50>
 8008510:	ffff3cb0 	.word	0xffff3cb0
 8008514:	7149f2ca 	.word	0x7149f2ca
 8008518:	0da24260 	.word	0x0da24260

0800851c <with_errnof>:
 800851c:	b538      	push	{r3, r4, r5, lr}
 800851e:	4604      	mov	r4, r0
 8008520:	460d      	mov	r5, r1
 8008522:	f7fe fc17 	bl	8006d54 <__errno>
 8008526:	6005      	str	r5, [r0, #0]
 8008528:	4620      	mov	r0, r4
 800852a:	bd38      	pop	{r3, r4, r5, pc}

0800852c <xflowf>:
 800852c:	b508      	push	{r3, lr}
 800852e:	b140      	cbz	r0, 8008542 <xflowf+0x16>
 8008530:	f101 4000 	add.w	r0, r1, #2147483648	@ 0x80000000
 8008534:	f7f7 ff2a 	bl	800038c <__aeabi_fmul>
 8008538:	e8bd 4008 	ldmia.w	sp!, {r3, lr}
 800853c:	2122      	movs	r1, #34	@ 0x22
 800853e:	f7ff bfed 	b.w	800851c <with_errnof>
 8008542:	4608      	mov	r0, r1
 8008544:	e7f6      	b.n	8008534 <xflowf+0x8>

08008546 <__math_uflowf>:
 8008546:	f04f 5180 	mov.w	r1, #268435456	@ 0x10000000
 800854a:	f7ff bfef 	b.w	800852c <xflowf>

0800854e <__math_oflowf>:
 800854e:	f04f 41e0 	mov.w	r1, #1879048192	@ 0x70000000
 8008552:	f7ff bfeb 	b.w	800852c <xflowf>
	...

08008558 <__kernel_rem_pio2f>:
 8008558:	e92d 4ff0 	stmdb	sp!, {r4, r5, r6, r7, r8, r9, sl, fp, lr}
 800855c:	b0db      	sub	sp, #364	@ 0x16c
 800855e:	9202      	str	r2, [sp, #8]
 8008560:	9304      	str	r3, [sp, #16]
 8008562:	9a64      	ldr	r2, [sp, #400]	@ 0x190
 8008564:	4bac      	ldr	r3, [pc, #688]	@ (8008818 <__kernel_rem_pio2f+0x2c0>)
 8008566:	9005      	str	r0, [sp, #20]
 8008568:	f853 3022 	ldr.w	r3, [r3, r2, lsl #2]
 800856c:	9100      	str	r1, [sp, #0]
 800856e:	9301      	str	r3, [sp, #4]
 8008570:	9b04      	ldr	r3, [sp, #16]
 8008572:	3b01      	subs	r3, #1
 8008574:	9303      	str	r3, [sp, #12]
 8008576:	9b02      	ldr	r3, [sp, #8]
 8008578:	1d1a      	adds	r2, r3, #4
 800857a:	f2c0 8099 	blt.w	80086b0 <__kernel_rem_pio2f+0x158>
 800857e:	1edc      	subs	r4, r3, #3
 8008580:	bf48      	it	mi
 8008582:	1d1c      	addmi	r4, r3, #4
 8008584:	10e4      	asrs	r4, r4, #3
 8008586:	2500      	movs	r5, #0
 8008588:	f04f 0b00 	mov.w	fp, #0
 800858c:	1c67      	adds	r7, r4, #1
 800858e:	00fb      	lsls	r3, r7, #3
 8008590:	9306      	str	r3, [sp, #24]
 8008592:	9b02      	ldr	r3, [sp, #8]
 8008594:	9a03      	ldr	r2, [sp, #12]
 8008596:	eba3 07c7 	sub.w	r7, r3, r7, lsl #3
 800859a:	9b01      	ldr	r3, [sp, #4]
 800859c:	eba4 0802 	sub.w	r8, r4, r2
 80085a0:	eb03 0902 	add.w	r9, r3, r2
 80085a4:	9b65      	ldr	r3, [sp, #404]	@ 0x194
 80085a6:	ae1e      	add	r6, sp, #120	@ 0x78
 80085a8:	eb03 0a88 	add.w	sl, r3, r8, lsl #2
 80085ac:	454d      	cmp	r5, r9
 80085ae:	f340 8081 	ble.w	80086b4 <__kernel_rem_pio2f+0x15c>
 80085b2:	9a04      	ldr	r2, [sp, #16]
 80085b4:	ab1e      	add	r3, sp, #120	@ 0x78
 80085b6:	eb03 0582 	add.w	r5, r3, r2, lsl #2
 80085ba:	f04f 0900 	mov.w	r9, #0
 80085be:	2300      	movs	r3, #0
 80085c0:	f50d 7a8c 	add.w	sl, sp, #280	@ 0x118
 80085c4:	9a01      	ldr	r2, [sp, #4]
 80085c6:	4591      	cmp	r9, r2
 80085c8:	f340 809a 	ble.w	8008700 <__kernel_rem_pio2f+0x1a8>
 80085cc:	4613      	mov	r3, r2
 80085ce:	aa0a      	add	r2, sp, #40	@ 0x28
 80085d0:	eb02 0383 	add.w	r3, r2, r3, lsl #2
 80085d4:	9308      	str	r3, [sp, #32]
 80085d6:	9b65      	ldr	r3, [sp, #404]	@ 0x194
 80085d8:	eb03 0384 	add.w	r3, r3, r4, lsl #2
 80085dc:	9c01      	ldr	r4, [sp, #4]
 80085de:	9307      	str	r3, [sp, #28]
 80085e0:	f10d 0828 	add.w	r8, sp, #40	@ 0x28
 80085e4:	4646      	mov	r6, r8
 80085e6:	4625      	mov	r5, r4
 80085e8:	f04f 4987 	mov.w	r9, #1132462080	@ 0x43800000
 80085ec:	ab5a      	add	r3, sp, #360	@ 0x168
 80085ee:	eb03 0384 	add.w	r3, r3, r4, lsl #2
 80085f2:	f853 bc50 	ldr.w	fp, [r3, #-80]
 80085f6:	f50d 7a8c 	add.w	sl, sp, #280	@ 0x118
 80085fa:	2d00      	cmp	r5, #0
 80085fc:	f300 8085 	bgt.w	800870a <__kernel_rem_pio2f+0x1b2>
 8008600:	4639      	mov	r1, r7
 8008602:	4658      	mov	r0, fp
 8008604:	f7ff ff3e 	bl	8008484 <scalbnf>
 8008608:	f04f 5178 	mov.w	r1, #1040187392	@ 0x3e000000
 800860c:	4605      	mov	r5, r0
 800860e:	f7f7 febd 	bl	800038c <__aeabi_fmul>
 8008612:	f000 fa3f 	bl	8008a94 <floorf>
 8008616:	f04f 4182 	mov.w	r1, #1090519040	@ 0x41000000
 800861a:	f7f7 feb7 	bl	800038c <__aeabi_fmul>
 800861e:	4601      	mov	r1, r0
 8008620:	4628      	mov	r0, r5
 8008622:	f7f7 fda9 	bl	8000178 <__aeabi_fsub>
 8008626:	4605      	mov	r5, r0
 8008628:	f7f8 f88c 	bl	8000744 <__aeabi_f2iz>
 800862c:	4606      	mov	r6, r0
 800862e:	f7f7 fe59 	bl	80002e4 <__aeabi_i2f>
 8008632:	4601      	mov	r1, r0
 8008634:	4628      	mov	r0, r5
 8008636:	f7f7 fd9f 	bl	8000178 <__aeabi_fsub>
 800863a:	2f00      	cmp	r7, #0
 800863c:	4681      	mov	r9, r0
 800863e:	f340 8081 	ble.w	8008744 <__kernel_rem_pio2f+0x1ec>
 8008642:	1e62      	subs	r2, r4, #1
 8008644:	ab0a      	add	r3, sp, #40	@ 0x28
 8008646:	f853 5022 	ldr.w	r5, [r3, r2, lsl #2]
 800864a:	f1c7 0108 	rsb	r1, r7, #8
 800864e:	fa45 f301 	asr.w	r3, r5, r1
 8008652:	441e      	add	r6, r3
 8008654:	408b      	lsls	r3, r1
 8008656:	1aed      	subs	r5, r5, r3
 8008658:	ab0a      	add	r3, sp, #40	@ 0x28
 800865a:	f843 5022 	str.w	r5, [r3, r2, lsl #2]
 800865e:	f1c7 0307 	rsb	r3, r7, #7
 8008662:	411d      	asrs	r5, r3
 8008664:	2d00      	cmp	r5, #0
 8008666:	dd7a      	ble.n	800875e <__kernel_rem_pio2f+0x206>
 8008668:	2200      	movs	r2, #0
 800866a:	4692      	mov	sl, r2
 800866c:	3601      	adds	r6, #1
 800866e:	4294      	cmp	r4, r2
 8008670:	f300 80aa 	bgt.w	80087c8 <__kernel_rem_pio2f+0x270>
 8008674:	2f00      	cmp	r7, #0
 8008676:	dd05      	ble.n	8008684 <__kernel_rem_pio2f+0x12c>
 8008678:	2f01      	cmp	r7, #1
 800867a:	f000 80b6 	beq.w	80087ea <__kernel_rem_pio2f+0x292>
 800867e:	2f02      	cmp	r7, #2
 8008680:	f000 80bd 	beq.w	80087fe <__kernel_rem_pio2f+0x2a6>
 8008684:	2d02      	cmp	r5, #2
 8008686:	d16a      	bne.n	800875e <__kernel_rem_pio2f+0x206>
 8008688:	4649      	mov	r1, r9
 800868a:	f04f 507e 	mov.w	r0, #1065353216	@ 0x3f800000
 800868e:	f7f7 fd73 	bl	8000178 <__aeabi_fsub>
 8008692:	4681      	mov	r9, r0
 8008694:	f1ba 0f00 	cmp.w	sl, #0
 8008698:	d061      	beq.n	800875e <__kernel_rem_pio2f+0x206>
 800869a:	4639      	mov	r1, r7
 800869c:	f04f 507e 	mov.w	r0, #1065353216	@ 0x3f800000
 80086a0:	f7ff fef0 	bl	8008484 <scalbnf>
 80086a4:	4601      	mov	r1, r0
 80086a6:	4648      	mov	r0, r9
 80086a8:	f7f7 fd66 	bl	8000178 <__aeabi_fsub>
 80086ac:	4681      	mov	r9, r0
 80086ae:	e056      	b.n	800875e <__kernel_rem_pio2f+0x206>
 80086b0:	2400      	movs	r4, #0
 80086b2:	e768      	b.n	8008586 <__kernel_rem_pio2f+0x2e>
 80086b4:	eb18 0f05 	cmn.w	r8, r5
 80086b8:	d407      	bmi.n	80086ca <__kernel_rem_pio2f+0x172>
 80086ba:	f85a 0025 	ldr.w	r0, [sl, r5, lsl #2]
 80086be:	f7f7 fe11 	bl	80002e4 <__aeabi_i2f>
 80086c2:	f846 0b04 	str.w	r0, [r6], #4
 80086c6:	3501      	adds	r5, #1
 80086c8:	e770      	b.n	80085ac <__kernel_rem_pio2f+0x54>
 80086ca:	4658      	mov	r0, fp
 80086cc:	e7f9      	b.n	80086c2 <__kernel_rem_pio2f+0x16a>
 80086ce:	9307      	str	r3, [sp, #28]
 80086d0:	9b05      	ldr	r3, [sp, #20]
 80086d2:	f85b 1d04 	ldr.w	r1, [fp, #-4]!
 80086d6:	f853 0028 	ldr.w	r0, [r3, r8, lsl #2]
 80086da:	f7f7 fe57 	bl	800038c <__aeabi_fmul>
 80086de:	4601      	mov	r1, r0
 80086e0:	4630      	mov	r0, r6
 80086e2:	f7f7 fd4b 	bl	800017c <__addsf3>
 80086e6:	4606      	mov	r6, r0
 80086e8:	9b07      	ldr	r3, [sp, #28]
 80086ea:	f108 0801 	add.w	r8, r8, #1
 80086ee:	9a03      	ldr	r2, [sp, #12]
 80086f0:	4590      	cmp	r8, r2
 80086f2:	ddec      	ble.n	80086ce <__kernel_rem_pio2f+0x176>
 80086f4:	f84a 6b04 	str.w	r6, [sl], #4
 80086f8:	f109 0901 	add.w	r9, r9, #1
 80086fc:	3504      	adds	r5, #4
 80086fe:	e761      	b.n	80085c4 <__kernel_rem_pio2f+0x6c>
 8008700:	46ab      	mov	fp, r5
 8008702:	461e      	mov	r6, r3
 8008704:	f04f 0800 	mov.w	r8, #0
 8008708:	e7f1      	b.n	80086ee <__kernel_rem_pio2f+0x196>
 800870a:	f04f 516e 	mov.w	r1, #998244352	@ 0x3b800000
 800870e:	4658      	mov	r0, fp
 8008710:	f7f7 fe3c 	bl	800038c <__aeabi_fmul>
 8008714:	f7f8 f816 	bl	8000744 <__aeabi_f2iz>
 8008718:	f7f7 fde4 	bl	80002e4 <__aeabi_i2f>
 800871c:	4649      	mov	r1, r9
 800871e:	9009      	str	r0, [sp, #36]	@ 0x24
 8008720:	f7f7 fe34 	bl	800038c <__aeabi_fmul>
 8008724:	4601      	mov	r1, r0
 8008726:	4658      	mov	r0, fp
 8008728:	f7f7 fd26 	bl	8000178 <__aeabi_fsub>
 800872c:	f7f8 f80a 	bl	8000744 <__aeabi_f2iz>
 8008730:	3d01      	subs	r5, #1
 8008732:	f846 0b04 	str.w	r0, [r6], #4
 8008736:	f85a 1025 	ldr.w	r1, [sl, r5, lsl #2]
 800873a:	9809      	ldr	r0, [sp, #36]	@ 0x24
 800873c:	f7f7 fd1e 	bl	800017c <__addsf3>
 8008740:	4683      	mov	fp, r0
 8008742:	e75a      	b.n	80085fa <__kernel_rem_pio2f+0xa2>
 8008744:	d105      	bne.n	8008752 <__kernel_rem_pio2f+0x1fa>
 8008746:	1e63      	subs	r3, r4, #1
 8008748:	aa0a      	add	r2, sp, #40	@ 0x28
 800874a:	f852 5023 	ldr.w	r5, [r2, r3, lsl #2]
 800874e:	11ed      	asrs	r5, r5, #7
 8008750:	e788      	b.n	8008664 <__kernel_rem_pio2f+0x10c>
 8008752:	f04f 517c 	mov.w	r1, #1056964608	@ 0x3f000000
 8008756:	f7f7 ffcb 	bl	80006f0 <__aeabi_fcmpge>
 800875a:	4605      	mov	r5, r0
 800875c:	bb90      	cbnz	r0, 80087c4 <__kernel_rem_pio2f+0x26c>
 800875e:	2100      	movs	r1, #0
 8008760:	4648      	mov	r0, r9
 8008762:	f7f7 ffa7 	bl	80006b4 <__aeabi_fcmpeq>
 8008766:	2800      	cmp	r0, #0
 8008768:	f000 8090 	beq.w	800888c <__kernel_rem_pio2f+0x334>
 800876c:	2200      	movs	r2, #0
 800876e:	1e63      	subs	r3, r4, #1
 8008770:	9901      	ldr	r1, [sp, #4]
 8008772:	428b      	cmp	r3, r1
 8008774:	da4a      	bge.n	800880c <__kernel_rem_pio2f+0x2b4>
 8008776:	2a00      	cmp	r2, #0
 8008778:	d076      	beq.n	8008868 <__kernel_rem_pio2f+0x310>
 800877a:	3c01      	subs	r4, #1
 800877c:	ab0a      	add	r3, sp, #40	@ 0x28
 800877e:	f853 3024 	ldr.w	r3, [r3, r4, lsl #2]
 8008782:	3f08      	subs	r7, #8
 8008784:	2b00      	cmp	r3, #0
 8008786:	d0f8      	beq.n	800877a <__kernel_rem_pio2f+0x222>
 8008788:	4639      	mov	r1, r7
 800878a:	f04f 507e 	mov.w	r0, #1065353216	@ 0x3f800000
 800878e:	f7ff fe79 	bl	8008484 <scalbnf>
 8008792:	46a2      	mov	sl, r4
 8008794:	4607      	mov	r7, r0
 8008796:	f04f 596e 	mov.w	r9, #998244352	@ 0x3b800000
 800879a:	f50d 788c 	add.w	r8, sp, #280	@ 0x118
 800879e:	f1ba 0f00 	cmp.w	sl, #0
 80087a2:	f280 80a1 	bge.w	80088e8 <__kernel_rem_pio2f+0x390>
 80087a6:	4627      	mov	r7, r4
 80087a8:	2200      	movs	r2, #0
 80087aa:	2f00      	cmp	r7, #0
 80087ac:	f2c0 80cb 	blt.w	8008946 <__kernel_rem_pio2f+0x3ee>
 80087b0:	a946      	add	r1, sp, #280	@ 0x118
 80087b2:	4690      	mov	r8, r2
 80087b4:	f04f 0a00 	mov.w	sl, #0
 80087b8:	4b18      	ldr	r3, [pc, #96]	@ (800881c <__kernel_rem_pio2f+0x2c4>)
 80087ba:	eb01 0b87 	add.w	fp, r1, r7, lsl #2
 80087be:	eba4 0907 	sub.w	r9, r4, r7
 80087c2:	e0b4      	b.n	800892e <__kernel_rem_pio2f+0x3d6>
 80087c4:	2502      	movs	r5, #2
 80087c6:	e74f      	b.n	8008668 <__kernel_rem_pio2f+0x110>
 80087c8:	f858 3b04 	ldr.w	r3, [r8], #4
 80087cc:	f1ba 0f00 	cmp.w	sl, #0
 80087d0:	d108      	bne.n	80087e4 <__kernel_rem_pio2f+0x28c>
 80087d2:	b123      	cbz	r3, 80087de <__kernel_rem_pio2f+0x286>
 80087d4:	f5c3 7380 	rsb	r3, r3, #256	@ 0x100
 80087d8:	f848 3c04 	str.w	r3, [r8, #-4]
 80087dc:	2301      	movs	r3, #1
 80087de:	469a      	mov	sl, r3
 80087e0:	3201      	adds	r2, #1
 80087e2:	e744      	b.n	800866e <__kernel_rem_pio2f+0x116>
 80087e4:	f1c3 03ff 	rsb	r3, r3, #255	@ 0xff
 80087e8:	e7f6      	b.n	80087d8 <__kernel_rem_pio2f+0x280>
 80087ea:	1e62      	subs	r2, r4, #1
 80087ec:	ab0a      	add	r3, sp, #40	@ 0x28
 80087ee:	f853 3022 	ldr.w	r3, [r3, r2, lsl #2]
 80087f2:	f003 037f 	and.w	r3, r3, #127	@ 0x7f
 80087f6:	a90a      	add	r1, sp, #40	@ 0x28
 80087f8:	f841 3022 	str.w	r3, [r1, r2, lsl #2]
 80087fc:	e742      	b.n	8008684 <__kernel_rem_pio2f+0x12c>
 80087fe:	1e62      	subs	r2, r4, #1
 8008800:	ab0a      	add	r3, sp, #40	@ 0x28
 8008802:	f853 3022 	ldr.w	r3, [r3, r2, lsl #2]
 8008806:	f003 033f 	and.w	r3, r3, #63	@ 0x3f
 800880a:	e7f4      	b.n	80087f6 <__kernel_rem_pio2f+0x29e>
 800880c:	a90a      	add	r1, sp, #40	@ 0x28
 800880e:	f851 1023 	ldr.w	r1, [r1, r3, lsl #2]
 8008812:	3b01      	subs	r3, #1
 8008814:	430a      	orrs	r2, r1
 8008816:	e7ab      	b.n	8008770 <__kernel_rem_pio2f+0x218>
 8008818:	08009350 	.word	0x08009350
 800881c:	08009324 	.word	0x08009324
 8008820:	3301      	adds	r3, #1
 8008822:	f852 1d04 	ldr.w	r1, [r2, #-4]!
 8008826:	2900      	cmp	r1, #0
 8008828:	d0fa      	beq.n	8008820 <__kernel_rem_pio2f+0x2c8>
 800882a:	9a04      	ldr	r2, [sp, #16]
 800882c:	a91e      	add	r1, sp, #120	@ 0x78
 800882e:	18a2      	adds	r2, r4, r2
 8008830:	1c66      	adds	r6, r4, #1
 8008832:	eb01 0582 	add.w	r5, r1, r2, lsl #2
 8008836:	441c      	add	r4, r3
 8008838:	f50d 798c 	add.w	r9, sp, #280	@ 0x118
 800883c:	42b4      	cmp	r4, r6
 800883e:	f6ff aecf 	blt.w	80085e0 <__kernel_rem_pio2f+0x88>
 8008842:	9b07      	ldr	r3, [sp, #28]
 8008844:	46ab      	mov	fp, r5
 8008846:	f853 0026 	ldr.w	r0, [r3, r6, lsl #2]
 800884a:	f7f7 fd4b 	bl	80002e4 <__aeabi_i2f>
 800884e:	f04f 0a00 	mov.w	sl, #0
 8008852:	f04f 0800 	mov.w	r8, #0
 8008856:	6028      	str	r0, [r5, #0]
 8008858:	9b03      	ldr	r3, [sp, #12]
 800885a:	459a      	cmp	sl, r3
 800885c:	dd07      	ble.n	800886e <__kernel_rem_pio2f+0x316>
 800885e:	f849 8026 	str.w	r8, [r9, r6, lsl #2]
 8008862:	3504      	adds	r5, #4
 8008864:	3601      	adds	r6, #1
 8008866:	e7e9      	b.n	800883c <__kernel_rem_pio2f+0x2e4>
 8008868:	2301      	movs	r3, #1
 800886a:	9a08      	ldr	r2, [sp, #32]
 800886c:	e7d9      	b.n	8008822 <__kernel_rem_pio2f+0x2ca>
 800886e:	9b05      	ldr	r3, [sp, #20]
 8008870:	f85b 0904 	ldr.w	r0, [fp], #-4
 8008874:	f853 102a 	ldr.w	r1, [r3, sl, lsl #2]
 8008878:	f7f7 fd88 	bl	800038c <__aeabi_fmul>
 800887c:	4601      	mov	r1, r0
 800887e:	4640      	mov	r0, r8
 8008880:	f7f7 fc7c 	bl	800017c <__addsf3>
 8008884:	f10a 0a01 	add.w	sl, sl, #1
 8008888:	4680      	mov	r8, r0
 800888a:	e7e5      	b.n	8008858 <__kernel_rem_pio2f+0x300>
 800888c:	9b06      	ldr	r3, [sp, #24]
 800888e:	9a02      	ldr	r2, [sp, #8]
 8008890:	4648      	mov	r0, r9
 8008892:	1a99      	subs	r1, r3, r2
 8008894:	f7ff fdf6 	bl	8008484 <scalbnf>
 8008898:	f04f 4187 	mov.w	r1, #1132462080	@ 0x43800000
 800889c:	4680      	mov	r8, r0
 800889e:	f7f7 ff27 	bl	80006f0 <__aeabi_fcmpge>
 80088a2:	b1f8      	cbz	r0, 80088e4 <__kernel_rem_pio2f+0x38c>
 80088a4:	f04f 516e 	mov.w	r1, #998244352	@ 0x3b800000
 80088a8:	4640      	mov	r0, r8
 80088aa:	f7f7 fd6f 	bl	800038c <__aeabi_fmul>
 80088ae:	f7f7 ff49 	bl	8000744 <__aeabi_f2iz>
 80088b2:	f7f7 fd17 	bl	80002e4 <__aeabi_i2f>
 80088b6:	f04f 4187 	mov.w	r1, #1132462080	@ 0x43800000
 80088ba:	4681      	mov	r9, r0
 80088bc:	f7f7 fd66 	bl	800038c <__aeabi_fmul>
 80088c0:	4601      	mov	r1, r0
 80088c2:	4640      	mov	r0, r8
 80088c4:	f7f7 fc58 	bl	8000178 <__aeabi_fsub>
 80088c8:	f7f7 ff3c 	bl	8000744 <__aeabi_f2iz>
 80088cc:	ab0a      	add	r3, sp, #40	@ 0x28
 80088ce:	f843 0024 	str.w	r0, [r3, r4, lsl #2]
 80088d2:	4648      	mov	r0, r9
 80088d4:	3401      	adds	r4, #1
 80088d6:	3708      	adds	r7, #8
 80088d8:	f7f7 ff34 	bl	8000744 <__aeabi_f2iz>
 80088dc:	ab0a      	add	r3, sp, #40	@ 0x28
 80088de:	f843 0024 	str.w	r0, [r3, r4, lsl #2]
 80088e2:	e751      	b.n	8008788 <__kernel_rem_pio2f+0x230>
 80088e4:	4640      	mov	r0, r8
 80088e6:	e7f7      	b.n	80088d8 <__kernel_rem_pio2f+0x380>
 80088e8:	ab0a      	add	r3, sp, #40	@ 0x28
 80088ea:	f853 002a 	ldr.w	r0, [r3, sl, lsl #2]
 80088ee:	f7f7 fcf9 	bl	80002e4 <__aeabi_i2f>
 80088f2:	4639      	mov	r1, r7
 80088f4:	f7f7 fd4a 	bl	800038c <__aeabi_fmul>
 80088f8:	4649      	mov	r1, r9
 80088fa:	f848 002a 	str.w	r0, [r8, sl, lsl #2]
 80088fe:	4638      	mov	r0, r7
 8008900:	f7f7 fd44 	bl	800038c <__aeabi_fmul>
 8008904:	f10a 3aff 	add.w	sl, sl, #4294967295
 8008908:	4607      	mov	r7, r0
 800890a:	e748      	b.n	800879e <__kernel_rem_pio2f+0x246>
 800890c:	f853 0b04 	ldr.w	r0, [r3], #4
 8008910:	f85b 1b04 	ldr.w	r1, [fp], #4
 8008914:	9203      	str	r2, [sp, #12]
 8008916:	9302      	str	r3, [sp, #8]
 8008918:	f7f7 fd38 	bl	800038c <__aeabi_fmul>
 800891c:	4601      	mov	r1, r0
 800891e:	4640      	mov	r0, r8
 8008920:	f7f7 fc2c 	bl	800017c <__addsf3>
 8008924:	e9dd 3202 	ldrd	r3, r2, [sp, #8]
 8008928:	4680      	mov	r8, r0
 800892a:	f10a 0a01 	add.w	sl, sl, #1
 800892e:	9901      	ldr	r1, [sp, #4]
 8008930:	458a      	cmp	sl, r1
 8008932:	dc01      	bgt.n	8008938 <__kernel_rem_pio2f+0x3e0>
 8008934:	45ca      	cmp	sl, r9
 8008936:	dde9      	ble.n	800890c <__kernel_rem_pio2f+0x3b4>
 8008938:	ab5a      	add	r3, sp, #360	@ 0x168
 800893a:	eb03 0989 	add.w	r9, r3, r9, lsl #2
 800893e:	f849 8ca0 	str.w	r8, [r9, #-160]
 8008942:	3f01      	subs	r7, #1
 8008944:	e731      	b.n	80087aa <__kernel_rem_pio2f+0x252>
 8008946:	9b64      	ldr	r3, [sp, #400]	@ 0x190
 8008948:	2b02      	cmp	r3, #2
 800894a:	dc07      	bgt.n	800895c <__kernel_rem_pio2f+0x404>
 800894c:	2b00      	cmp	r3, #0
 800894e:	dc4e      	bgt.n	80089ee <__kernel_rem_pio2f+0x496>
 8008950:	d02e      	beq.n	80089b0 <__kernel_rem_pio2f+0x458>
 8008952:	f006 0007 	and.w	r0, r6, #7
 8008956:	b05b      	add	sp, #364	@ 0x16c
 8008958:	e8bd 8ff0 	ldmia.w	sp!, {r4, r5, r6, r7, r8, r9, sl, fp, pc}
 800895c:	9b64      	ldr	r3, [sp, #400]	@ 0x190
 800895e:	2b03      	cmp	r3, #3
 8008960:	d1f7      	bne.n	8008952 <__kernel_rem_pio2f+0x3fa>
 8008962:	f10d 0bc8 	add.w	fp, sp, #200	@ 0xc8
 8008966:	eb0b 0784 	add.w	r7, fp, r4, lsl #2
 800896a:	46b8      	mov	r8, r7
 800896c:	46a2      	mov	sl, r4
 800896e:	f1ba 0f00 	cmp.w	sl, #0
 8008972:	dc49      	bgt.n	8008a08 <__kernel_rem_pio2f+0x4b0>
 8008974:	46a1      	mov	r9, r4
 8008976:	f1b9 0f01 	cmp.w	r9, #1
 800897a:	dc60      	bgt.n	8008a3e <__kernel_rem_pio2f+0x4e6>
 800897c:	2000      	movs	r0, #0
 800897e:	2c01      	cmp	r4, #1
 8008980:	dc76      	bgt.n	8008a70 <__kernel_rem_pio2f+0x518>
 8008982:	9a32      	ldr	r2, [sp, #200]	@ 0xc8
 8008984:	9b33      	ldr	r3, [sp, #204]	@ 0xcc
 8008986:	2d00      	cmp	r5, #0
 8008988:	d178      	bne.n	8008a7c <__kernel_rem_pio2f+0x524>
 800898a:	9900      	ldr	r1, [sp, #0]
 800898c:	600a      	str	r2, [r1, #0]
 800898e:	460a      	mov	r2, r1
 8008990:	604b      	str	r3, [r1, #4]
 8008992:	6090      	str	r0, [r2, #8]
 8008994:	e7dd      	b.n	8008952 <__kernel_rem_pio2f+0x3fa>
 8008996:	f857 1024 	ldr.w	r1, [r7, r4, lsl #2]
 800899a:	f7f7 fbef 	bl	800017c <__addsf3>
 800899e:	3c01      	subs	r4, #1
 80089a0:	2c00      	cmp	r4, #0
 80089a2:	daf8      	bge.n	8008996 <__kernel_rem_pio2f+0x43e>
 80089a4:	b10d      	cbz	r5, 80089aa <__kernel_rem_pio2f+0x452>
 80089a6:	f100 4000 	add.w	r0, r0, #2147483648	@ 0x80000000
 80089aa:	9b00      	ldr	r3, [sp, #0]
 80089ac:	6018      	str	r0, [r3, #0]
 80089ae:	e7d0      	b.n	8008952 <__kernel_rem_pio2f+0x3fa>
 80089b0:	2000      	movs	r0, #0
 80089b2:	af32      	add	r7, sp, #200	@ 0xc8
 80089b4:	e7f4      	b.n	80089a0 <__kernel_rem_pio2f+0x448>
 80089b6:	f857 1028 	ldr.w	r1, [r7, r8, lsl #2]
 80089ba:	f7f7 fbdf 	bl	800017c <__addsf3>
 80089be:	f108 38ff 	add.w	r8, r8, #4294967295
 80089c2:	f1b8 0f00 	cmp.w	r8, #0
 80089c6:	daf6      	bge.n	80089b6 <__kernel_rem_pio2f+0x45e>
 80089c8:	b1ad      	cbz	r5, 80089f6 <__kernel_rem_pio2f+0x49e>
 80089ca:	f100 4300 	add.w	r3, r0, #2147483648	@ 0x80000000
 80089ce:	9a00      	ldr	r2, [sp, #0]
 80089d0:	4601      	mov	r1, r0
 80089d2:	6013      	str	r3, [r2, #0]
 80089d4:	9832      	ldr	r0, [sp, #200]	@ 0xc8
 80089d6:	f7f7 fbcf 	bl	8000178 <__aeabi_fsub>
 80089da:	f04f 0801 	mov.w	r8, #1
 80089de:	4544      	cmp	r4, r8
 80089e0:	da0b      	bge.n	80089fa <__kernel_rem_pio2f+0x4a2>
 80089e2:	b10d      	cbz	r5, 80089e8 <__kernel_rem_pio2f+0x490>
 80089e4:	f100 4000 	add.w	r0, r0, #2147483648	@ 0x80000000
 80089e8:	9b00      	ldr	r3, [sp, #0]
 80089ea:	6058      	str	r0, [r3, #4]
 80089ec:	e7b1      	b.n	8008952 <__kernel_rem_pio2f+0x3fa>
 80089ee:	46a0      	mov	r8, r4
 80089f0:	2000      	movs	r0, #0
 80089f2:	af32      	add	r7, sp, #200	@ 0xc8
 80089f4:	e7e5      	b.n	80089c2 <__kernel_rem_pio2f+0x46a>
 80089f6:	4603      	mov	r3, r0
 80089f8:	e7e9      	b.n	80089ce <__kernel_rem_pio2f+0x476>
 80089fa:	f857 1f04 	ldr.w	r1, [r7, #4]!
 80089fe:	f7f7 fbbd 	bl	800017c <__addsf3>
 8008a02:	f108 0801 	add.w	r8, r8, #1
 8008a06:	e7ea      	b.n	80089de <__kernel_rem_pio2f+0x486>
 8008a08:	f8d8 3000 	ldr.w	r3, [r8]
 8008a0c:	f858 2c04 	ldr.w	r2, [r8, #-4]
 8008a10:	4619      	mov	r1, r3
 8008a12:	4610      	mov	r0, r2
 8008a14:	9302      	str	r3, [sp, #8]
 8008a16:	9201      	str	r2, [sp, #4]
 8008a18:	f7f7 fbb0 	bl	800017c <__addsf3>
 8008a1c:	9a01      	ldr	r2, [sp, #4]
 8008a1e:	4601      	mov	r1, r0
 8008a20:	4681      	mov	r9, r0
 8008a22:	4610      	mov	r0, r2
 8008a24:	f7f7 fba8 	bl	8000178 <__aeabi_fsub>
 8008a28:	9b02      	ldr	r3, [sp, #8]
 8008a2a:	f10a 3aff 	add.w	sl, sl, #4294967295
 8008a2e:	4619      	mov	r1, r3
 8008a30:	f7f7 fba4 	bl	800017c <__addsf3>
 8008a34:	f848 0904 	str.w	r0, [r8], #-4
 8008a38:	f8c8 9000 	str.w	r9, [r8]
 8008a3c:	e797      	b.n	800896e <__kernel_rem_pio2f+0x416>
 8008a3e:	f857 3c04 	ldr.w	r3, [r7, #-4]
 8008a42:	f8d7 a000 	ldr.w	sl, [r7]
 8008a46:	4618      	mov	r0, r3
 8008a48:	4651      	mov	r1, sl
 8008a4a:	9301      	str	r3, [sp, #4]
 8008a4c:	f7f7 fb96 	bl	800017c <__addsf3>
 8008a50:	9b01      	ldr	r3, [sp, #4]
 8008a52:	4601      	mov	r1, r0
 8008a54:	4680      	mov	r8, r0
 8008a56:	4618      	mov	r0, r3
 8008a58:	f7f7 fb8e 	bl	8000178 <__aeabi_fsub>
 8008a5c:	4651      	mov	r1, sl
 8008a5e:	f7f7 fb8d 	bl	800017c <__addsf3>
 8008a62:	f847 0904 	str.w	r0, [r7], #-4
 8008a66:	f109 39ff 	add.w	r9, r9, #4294967295
 8008a6a:	f8c7 8000 	str.w	r8, [r7]
 8008a6e:	e782      	b.n	8008976 <__kernel_rem_pio2f+0x41e>
 8008a70:	f85b 1024 	ldr.w	r1, [fp, r4, lsl #2]
 8008a74:	f7f7 fb82 	bl	800017c <__addsf3>
 8008a78:	3c01      	subs	r4, #1
 8008a7a:	e780      	b.n	800897e <__kernel_rem_pio2f+0x426>
 8008a7c:	9900      	ldr	r1, [sp, #0]
 8008a7e:	f102 4200 	add.w	r2, r2, #2147483648	@ 0x80000000
 8008a82:	f103 4300 	add.w	r3, r3, #2147483648	@ 0x80000000
 8008a86:	600a      	str	r2, [r1, #0]
 8008a88:	604b      	str	r3, [r1, #4]
 8008a8a:	460a      	mov	r2, r1
 8008a8c:	f100 4000 	add.w	r0, r0, #2147483648	@ 0x80000000
 8008a90:	e77f      	b.n	8008992 <__kernel_rem_pio2f+0x43a>
 8008a92:	bf00      	nop

08008a94 <floorf>:
 8008a94:	b570      	push	{r4, r5, r6, lr}
 8008a96:	f3c0 55c7 	ubfx	r5, r0, #23, #8
 8008a9a:	3d7f      	subs	r5, #127	@ 0x7f
 8008a9c:	2d16      	cmp	r5, #22
 8008a9e:	4601      	mov	r1, r0
 8008aa0:	4604      	mov	r4, r0
 8008aa2:	f020 4600 	bic.w	r6, r0, #2147483648	@ 0x80000000
 8008aa6:	dc26      	bgt.n	8008af6 <floorf+0x62>
 8008aa8:	2d00      	cmp	r5, #0
 8008aaa:	da0f      	bge.n	8008acc <floorf+0x38>
 8008aac:	4917      	ldr	r1, [pc, #92]	@ (8008b0c <floorf+0x78>)
 8008aae:	f7f7 fb65 	bl	800017c <__addsf3>
 8008ab2:	2100      	movs	r1, #0
 8008ab4:	f7f7 fe26 	bl	8000704 <__aeabi_fcmpgt>
 8008ab8:	b130      	cbz	r0, 8008ac8 <floorf+0x34>
 8008aba:	2c00      	cmp	r4, #0
 8008abc:	da23      	bge.n	8008b06 <floorf+0x72>
 8008abe:	2e00      	cmp	r6, #0
 8008ac0:	4c13      	ldr	r4, [pc, #76]	@ (8008b10 <floorf+0x7c>)
 8008ac2:	bf08      	it	eq
 8008ac4:	f04f 4400 	moveq.w	r4, #2147483648	@ 0x80000000
 8008ac8:	4621      	mov	r1, r4
 8008aca:	e01a      	b.n	8008b02 <floorf+0x6e>
 8008acc:	4e11      	ldr	r6, [pc, #68]	@ (8008b14 <floorf+0x80>)
 8008ace:	412e      	asrs	r6, r5
 8008ad0:	4230      	tst	r0, r6
 8008ad2:	d016      	beq.n	8008b02 <floorf+0x6e>
 8008ad4:	490d      	ldr	r1, [pc, #52]	@ (8008b0c <floorf+0x78>)
 8008ad6:	f7f7 fb51 	bl	800017c <__addsf3>
 8008ada:	2100      	movs	r1, #0
 8008adc:	f7f7 fe12 	bl	8000704 <__aeabi_fcmpgt>
 8008ae0:	2800      	cmp	r0, #0
 8008ae2:	d0f1      	beq.n	8008ac8 <floorf+0x34>
 8008ae4:	2c00      	cmp	r4, #0
 8008ae6:	bfbe      	ittt	lt
 8008ae8:	f44f 0300 	movlt.w	r3, #8388608	@ 0x800000
 8008aec:	412b      	asrlt	r3, r5
 8008aee:	18e4      	addlt	r4, r4, r3
 8008af0:	ea24 0406 	bic.w	r4, r4, r6
 8008af4:	e7e8      	b.n	8008ac8 <floorf+0x34>
 8008af6:	f1b6 4fff 	cmp.w	r6, #2139095040	@ 0x7f800000
 8008afa:	d302      	bcc.n	8008b02 <floorf+0x6e>
 8008afc:	f7f7 fb3e 	bl	800017c <__addsf3>
 8008b00:	4601      	mov	r1, r0
 8008b02:	4608      	mov	r0, r1
 8008b04:	bd70      	pop	{r4, r5, r6, pc}
 8008b06:	2400      	movs	r4, #0
 8008b08:	e7de      	b.n	8008ac8 <floorf+0x34>
 8008b0a:	bf00      	nop
 8008b0c:	7149f2ca 	.word	0x7149f2ca
 8008b10:	bf800000 	.word	0xbf800000
 8008b14:	007fffff 	.word	0x007fffff

08008b18 <_init>:
 8008b18:	b5f8      	push	{r3, r4, r5, r6, r7, lr}
 8008b1a:	bf00      	nop
 8008b1c:	bcf8      	pop	{r3, r4, r5, r6, r7}
 8008b1e:	bc08      	pop	{r3}
 8008b20:	469e      	mov	lr, r3
 8008b22:	4770      	bx	lr

08008b24 <_fini>:
 8008b24:	b5f8      	push	{r3, r4, r5, r6, r7, lr}
 8008b26:	bf00      	nop
 8008b28:	bcf8      	pop	{r3, r4, r5, r6, r7}
 8008b2a:	bc08      	pop	{r3}
 8008b2c:	469e      	mov	lr, r3
 8008b2e:	4770      	bx	lr
